SF:/Users/goshea/projects/icarus/icarus-sdk/crates/icarus-canister/src/auth.rs
FN:15,_RINvXs0_NtCs1ZrBCw5B45A_15icarus_canister4authNtB6_4UserNtNtCsl9VkPx5ZYs4_6candid5types10CandidType13idl_serializeQNtNtBW_3ser15ValueSerializerEB8_
FN:28,_RINvXs6_NtCs1ZrBCw5B45A_15icarus_canister4authNtB6_8AuthRoleNtNtCsl9VkPx5ZYs4_6candid5types10CandidType13idl_serializeQNtNtB10_3ser15ValueSerializerEB8_
FN:48,_RINvXsc_NtCs1ZrBCw5B45A_15icarus_canister4authNtB6_14AuthAuditEntryNtNtCsl9VkPx5ZYs4_6candid5types10CandidType13idl_serializeQNtNtB17_3ser15ValueSerializerEB8_
FN:62,_RINvXsi_NtCs1ZrBCw5B45A_15icarus_canister4authNtB6_10AuthActionNtNtCsl9VkPx5ZYs4_6candid5types10CandidType13idl_serializeQNtNtB13_3ser15ValueSerializerEB8_
FN:423,_RNCNCNvNtCs1ZrBCw5B45A_15icarus_canister4auth14get_auth_audit00B7_
FN:427,_RNCNCNvNtCs1ZrBCw5B45A_15icarus_canister4auth14get_auth_audit0s_0B7_
FN:399,_RNCNCNvNtCs1ZrBCw5B45A_15icarus_canister4auth20get_authorized_users00B7_
FN:295,_RNCNvNtCs1ZrBCw5B45A_15icarus_canister4auth11remove_user0B5_
FN:120,_RNCNvNtCs1ZrBCw5B45A_15icarus_canister4auth12authenticate0B5_
FN:419,_RNCNvNtCs1ZrBCw5B45A_15icarus_canister4auth14get_auth_audit0B5_
FN:443,_RNCNvNtCs1ZrBCw5B45A_15icarus_canister4auth15log_auth_action0B5_
FN:461,_RNCNvNtCs1ZrBCw5B45A_15icarus_canister4auth15log_auth_actions_0B5_
FN:351,_RNCNvNtCs1ZrBCw5B45A_15icarus_canister4auth16update_user_role0B5_
FN:395,_RNCNvNtCs1ZrBCw5B45A_15icarus_canister4auth20get_authorized_users0B5_
FN:255,_RNCNvNtCs1ZrBCw5B45A_15icarus_canister4auth8add_user0B5_
FN:478,_RNCNvNtCs1ZrBCw5B45A_15icarus_canister4auth8get_user0B5_
FN:88,_RNCNvNtCs1ZrBCw5B45A_15icarus_canister4auth9init_auth0B5_
FN:472,_RNvNtCs1ZrBCw5B45A_15icarus_canister4auth10list_users
FN:291,_RNvNtCs1ZrBCw5B45A_15icarus_canister4auth11remove_user
FN:112,_RNvNtCs1ZrBCw5B45A_15icarus_canister4auth12authenticate
FN:405,_RNvNtCs1ZrBCw5B45A_15icarus_canister4auth14get_auth_audit
FN:467,_RNvNtCs1ZrBCw5B45A_15icarus_canister4auth15get_auth_status
FN:435,_RNvNtCs1ZrBCw5B45A_15icarus_canister4auth15log_auth_action
FN:342,_RNvNtCs1ZrBCw5B45A_15icarus_canister4auth16update_user_role
FN:205,_RNvNtCs1ZrBCw5B45A_15icarus_canister4auth18require_exact_role
FN:382,_RNvNtCs1ZrBCw5B45A_15icarus_canister4auth20get_authorized_users
FN:218,_RNvNtCs1ZrBCw5B45A_15icarus_canister4auth20require_any_of_roles
FN:231,_RNvNtCs1ZrBCw5B45A_15icarus_canister4auth21require_none_of_roles
FN:180,_RNvNtCs1ZrBCw5B45A_15icarus_canister4auth22require_role_or_higher
FN:241,_RNvNtCs1ZrBCw5B45A_15icarus_canister4auth8add_user
FN:477,_RNvNtCs1ZrBCw5B45A_15icarus_canister4auth8get_user
FN:82,_RNvNtCs1ZrBCw5B45A_15icarus_canister4auth9init_auth
FNDA:0,_RINvXs0_NtCs1ZrBCw5B45A_15icarus_canister4authNtB6_4UserNtNtCsl9VkPx5ZYs4_6candid5types10CandidType13idl_serializeQNtNtBW_3ser15ValueSerializerEB8_
FNDA:0,_RINvXs6_NtCs1ZrBCw5B45A_15icarus_canister4authNtB6_8AuthRoleNtNtCsl9VkPx5ZYs4_6candid5types10CandidType13idl_serializeQNtNtB10_3ser15ValueSerializerEB8_
FNDA:0,_RINvXsc_NtCs1ZrBCw5B45A_15icarus_canister4authNtB6_14AuthAuditEntryNtNtCsl9VkPx5ZYs4_6candid5types10CandidType13idl_serializeQNtNtB17_3ser15ValueSerializerEB8_
FNDA:0,_RINvXsi_NtCs1ZrBCw5B45A_15icarus_canister4authNtB6_10AuthActionNtNtCsl9VkPx5ZYs4_6candid5types10CandidType13idl_serializeQNtNtB13_3ser15ValueSerializerEB8_
FNDA:0,_RNCNCNvNtCs1ZrBCw5B45A_15icarus_canister4auth14get_auth_audit00B7_
FNDA:0,_RNCNCNvNtCs1ZrBCw5B45A_15icarus_canister4auth14get_auth_audit0s_0B7_
FNDA:0,_RNCNCNvNtCs1ZrBCw5B45A_15icarus_canister4auth20get_authorized_users00B7_
FNDA:0,_RNCNvNtCs1ZrBCw5B45A_15icarus_canister4auth11remove_user0B5_
FNDA:0,_RNCNvNtCs1ZrBCw5B45A_15icarus_canister4auth12authenticate0B5_
FNDA:0,_RNCNvNtCs1ZrBCw5B45A_15icarus_canister4auth14get_auth_audit0B5_
FNDA:0,_RNCNvNtCs1ZrBCw5B45A_15icarus_canister4auth15log_auth_action0B5_
FNDA:0,_RNCNvNtCs1ZrBCw5B45A_15icarus_canister4auth15log_auth_actions_0B5_
FNDA:0,_RNCNvNtCs1ZrBCw5B45A_15icarus_canister4auth16update_user_role0B5_
FNDA:0,_RNCNvNtCs1ZrBCw5B45A_15icarus_canister4auth20get_authorized_users0B5_
FNDA:0,_RNCNvNtCs1ZrBCw5B45A_15icarus_canister4auth8add_user0B5_
FNDA:0,_RNCNvNtCs1ZrBCw5B45A_15icarus_canister4auth8get_user0B5_
FNDA:0,_RNCNvNtCs1ZrBCw5B45A_15icarus_canister4auth9init_auth0B5_
FNDA:0,_RNvNtCs1ZrBCw5B45A_15icarus_canister4auth10list_users
FNDA:0,_RNvNtCs1ZrBCw5B45A_15icarus_canister4auth11remove_user
FNDA:0,_RNvNtCs1ZrBCw5B45A_15icarus_canister4auth12authenticate
FNDA:0,_RNvNtCs1ZrBCw5B45A_15icarus_canister4auth14get_auth_audit
FNDA:0,_RNvNtCs1ZrBCw5B45A_15icarus_canister4auth15get_auth_status
FNDA:0,_RNvNtCs1ZrBCw5B45A_15icarus_canister4auth15log_auth_action
FNDA:0,_RNvNtCs1ZrBCw5B45A_15icarus_canister4auth16update_user_role
FNDA:0,_RNvNtCs1ZrBCw5B45A_15icarus_canister4auth18require_exact_role
FNDA:0,_RNvNtCs1ZrBCw5B45A_15icarus_canister4auth20get_authorized_users
FNDA:0,_RNvNtCs1ZrBCw5B45A_15icarus_canister4auth20require_any_of_roles
FNDA:0,_RNvNtCs1ZrBCw5B45A_15icarus_canister4auth21require_none_of_roles
FNDA:0,_RNvNtCs1ZrBCw5B45A_15icarus_canister4auth22require_role_or_higher
FNDA:0,_RNvNtCs1ZrBCw5B45A_15icarus_canister4auth8add_user
FNDA:0,_RNvNtCs1ZrBCw5B45A_15icarus_canister4auth8get_user
FNDA:0,_RNvNtCs1ZrBCw5B45A_15icarus_canister4auth9init_auth
FNF:32
FNH:0
DA:15,0
DA:28,0
DA:48,0
DA:62,0
DA:82,0
DA:84,0
DA:85,0
DA:86,0
DA:88,0
DA:89,0
DA:90,0
DA:91,0
DA:92,0
DA:93,0
DA:94,0
DA:95,0
DA:96,0
DA:97,0
DA:98,0
DA:99,0
DA:101,0
DA:102,0
DA:103,0
DA:104,0
DA:105,0
DA:107,0
DA:109,0
DA:112,0
DA:113,0
DA:116,0
DA:117,0
DA:118,0
DA:120,0
DA:122,0
DA:123,0
DA:125,0
DA:126,0
DA:127,0
DA:128,0
DA:129,0
DA:131,0
DA:134,0
DA:135,0
DA:136,0
DA:140,0
DA:141,0
DA:142,0
DA:143,0
DA:144,0
DA:145,0
DA:147,0
DA:150,0
DA:151,0
DA:154,0
DA:155,0
DA:156,0
DA:158,0
DA:159,0
DA:160,0
DA:161,0
DA:162,0
DA:164,0
DA:167,0
DA:168,0
DA:169,0
DA:170,0
DA:171,0
DA:172,0
DA:173,0
DA:174,0
DA:175,0
DA:176,0
DA:180,0
DA:181,0
DA:183,0
DA:184,0
DA:194,0
DA:195,0
DA:197,0
DA:198,0
DA:202,0
DA:205,0
DA:206,0
DA:207,0
DA:208,0
DA:210,0
DA:211,0
DA:215,0
DA:218,0
DA:219,0
DA:220,0
DA:221,0
DA:223,0
DA:224,0
DA:228,0
DA:231,0
DA:232,0
DA:233,0
DA:234,0
DA:236,0
DA:238,0
DA:241,0
DA:243,0
DA:244,0
DA:245,0
DA:247,0
DA:248,0
DA:251,0
DA:252,0
DA:253,0
DA:255,0
DA:256,0
DA:257,0
DA:258,0
DA:260,0
DA:261,0
DA:262,0
DA:263,0
DA:264,0
DA:265,0
DA:266,0
DA:267,0
DA:268,0
DA:270,0
DA:272,0
DA:273,0
DA:274,0
DA:275,0
DA:276,0
DA:278,0
DA:281,0
DA:282,0
DA:283,0
DA:285,0
DA:287,0
DA:288,0
DA:291,0
DA:292,0
DA:293,0
DA:295,0
DA:297,0
DA:298,0
DA:300,0
DA:301,0
DA:303,0
DA:304,0
DA:307,0
DA:308,0
DA:309,0
DA:311,0
DA:313,0
DA:318,0
DA:319,0
DA:321,0
DA:322,0
DA:323,0
DA:324,0
DA:325,0
DA:327,0
DA:330,0
DA:331,0
DA:332,0
DA:333,0
DA:336,0
DA:338,0
DA:339,0
DA:342,0
DA:344,0
DA:345,0
DA:346,0
DA:348,0
DA:349,0
DA:351,0
DA:353,0
DA:355,0
DA:356,0
DA:357,0
DA:358,0
DA:360,0
DA:361,0
DA:362,0
DA:363,0
DA:364,0
DA:366,0
DA:369,0
DA:370,0
DA:371,0
DA:376,0
DA:378,0
DA:379,0
DA:382,0
DA:383,0
DA:384,0
DA:386,0
DA:387,0
DA:388,0
DA:389,0
DA:390,0
DA:392,0
DA:395,0
DA:396,0
DA:397,0
DA:398,0
DA:399,0
DA:400,0
DA:401,0
DA:402,0
DA:405,0
DA:406,0
DA:407,0
DA:408,0
DA:410,0
DA:411,0
DA:412,0
DA:413,0
DA:414,0
DA:416,0
DA:419,0
DA:420,0
DA:421,0
DA:422,0
DA:423,0
DA:424,0
DA:427,0
DA:428,0
DA:430,0
DA:431,0
DA:432,0
DA:435,0
DA:436,0
DA:437,0
DA:438,0
DA:439,0
DA:440,0
DA:441,0
DA:442,0
DA:443,0
DA:444,0
DA:445,0
DA:446,0
DA:447,0
DA:448,0
DA:450,0
DA:451,0
DA:452,0
DA:453,0
DA:454,0
DA:455,0
DA:456,0
DA:457,0
DA:458,0
DA:459,0
DA:461,0
DA:462,0
DA:463,0
DA:464,0
DA:467,0
DA:468,0
DA:469,0
DA:472,0
DA:473,0
DA:474,0
DA:477,0
DA:478,0
DA:479,0
BRF:0
BRH:0
LF:278
LH:0
end_of_record
SF:/Users/goshea/projects/icarus/icarus-sdk/crates/icarus-canister/src/endpoints.rs
FN:21,_RNCNCNvNtCs1ZrBCw5B45A_15icarus_canister9endpoints15icarus_metadata00B7_
FN:68,_RNCNvNtCs1ZrBCw5B45A_15icarus_canister9endpoints12http_request0B5_
FN:12,_RNCNvNtCs1ZrBCw5B45A_15icarus_canister9endpoints15icarus_metadata0B5_
FNDA:0,_RNCNCNvNtCs1ZrBCw5B45A_15icarus_canister9endpoints15icarus_metadata00B7_
FNDA:0,_RNCNvNtCs1ZrBCw5B45A_15icarus_canister9endpoints12http_request0B5_
FNDA:0,_RNCNvNtCs1ZrBCw5B45A_15icarus_canister9endpoints15icarus_metadata0B5_
FNF:3
FNH:0
DA:12,0
DA:13,0
DA:14,0
DA:16,0
DA:17,0
DA:18,0
DA:19,0
DA:20,0
DA:21,0
DA:22,0
DA:23,0
DA:24,0
DA:25,0
DA:26,0
DA:27,0
DA:28,0
DA:29,0
DA:30,0
DA:31,0
DA:34,0
DA:35,0
DA:36,0
DA:37,0
DA:38,0
DA:40,0
DA:68,0
DA:69,0
DA:70,0
DA:71,0
DA:72,0
DA:73,0
DA:75,0
DA:78,0
BRF:0
BRH:0
LF:34
LH:0
end_of_record
SF:/Users/goshea/projects/icarus/icarus-sdk/crates/icarus-canister/src/http.rs
FN:128,_RNvNtCs1ZrBCw5B45A_15icarus_canister4http15execute_request
FN:78,_RNvNtCs1ZrBCw5B45A_15icarus_canister4http15get_with_config
FN:225,_RNvNtCs1ZrBCw5B45A_15icarus_canister4http18transform_response
FN:103,_RNvNtCs1ZrBCw5B45A_15icarus_canister4http21post_json_with_config
FN:168,_RNvNtCs1ZrBCw5B45A_15icarus_canister4http22execute_single_request
FN:73,_RNvNtCs1ZrBCw5B45A_15icarus_canister4http3get
FN:118,_RNvNtCs1ZrBCw5B45A_15icarus_canister4http7request
FN:98,_RNvNtCs1ZrBCw5B45A_15icarus_canister4http9post_json
FN:52,_RNvXNtCs1ZrBCw5B45A_15icarus_canister4httpNtB2_10HttpConfigNtNtCsaNl6UpbT7bw_4core7default7Default7default
FNDA:0,_RNvNtCs1ZrBCw5B45A_15icarus_canister4http15execute_request
FNDA:0,_RNvNtCs1ZrBCw5B45A_15icarus_canister4http15get_with_config
FNDA:0,_RNvNtCs1ZrBCw5B45A_15icarus_canister4http18transform_response
FNDA:0,_RNvNtCs1ZrBCw5B45A_15icarus_canister4http21post_json_with_config
FNDA:0,_RNvNtCs1ZrBCw5B45A_15icarus_canister4http22execute_single_request
FNDA:0,_RNvNtCs1ZrBCw5B45A_15icarus_canister4http3get
FNDA:0,_RNvNtCs1ZrBCw5B45A_15icarus_canister4http7request
FNDA:0,_RNvNtCs1ZrBCw5B45A_15icarus_canister4http9post_json
FNDA:0,_RNvXNtCs1ZrBCw5B45A_15icarus_canister4httpNtB2_10HttpConfigNtNtCsaNl6UpbT7bw_4core7default7Default7default
FNF:9
FNH:0
DA:52,0
DA:53,0
DA:54,0
DA:55,0
DA:56,0
DA:57,0
DA:58,0
DA:59,0
DA:73,0
DA:78,0
DA:98,0
DA:103,0
DA:104,0
DA:105,0
DA:106,0
DA:107,0
DA:118,0
DA:119,0
DA:120,0
DA:121,0
DA:122,0
DA:123,0
DA:128,0
DA:129,0
DA:130,0
DA:131,0
DA:132,0
DA:133,0
DA:134,0
DA:168,0
DA:169,0
DA:170,0
DA:171,0
DA:172,0
DA:173,0
DA:174,0
DA:225,0
DA:228,0
DA:229,0
BRF:0
BRH:0
LF:39
LH:0
end_of_record
SF:/Users/goshea/projects/icarus/icarus-sdk/crates/icarus-canister/src/macros.rs
FN:36,_RNCNvNvNtCs1ZrBCw5B45A_15icarus_canister4auth10AUTH_AUDIT6___init0B7_
FN:36,_RNCNvNvNtCs1ZrBCw5B45A_15icarus_canister4auth10AUTH_USERS6___init0B7_
FNDA:0,_RNCNvNvNtCs1ZrBCw5B45A_15icarus_canister4auth10AUTH_AUDIT6___init0B7_
FNDA:0,_RNCNvNvNtCs1ZrBCw5B45A_15icarus_canister4auth10AUTH_USERS6___init0B7_
FNF:1
FNH:0
DA:36,0
DA:37,0
DA:38,0
DA:39,0
BRF:0
BRH:0
LF:4
LH:0
end_of_record
SF:/Users/goshea/projects/icarus/icarus-sdk/crates/icarus-canister/src/memory.rs
FN:27,_RNCNvNtCs1ZrBCw5B45A_15icarus_canister6memory10get_memory0B5_
FN:26,_RNvNtCs1ZrBCw5B45A_15icarus_canister6memory10get_memory
FNDA:0,_RNCNvNtCs1ZrBCw5B45A_15icarus_canister6memory10get_memory0B5_
FNDA:0,_RNvNtCs1ZrBCw5B45A_15icarus_canister6memory10get_memory
FNF:2
FNH:0
DA:26,0
DA:27,0
DA:28,0
BRF:0
BRH:0
LF:4
LH:0
end_of_record
SF:/Users/goshea/projects/icarus/icarus-sdk/crates/icarus-canister/src/state.rs
FN:107,_RNvMs1_NtCs1ZrBCw5B45A_15icarus_canister5stateNtB5_19IcarusCanisterState4init
FN:129,_RNvMs1_NtCs1ZrBCw5B45A_15icarus_canister5stateNtB5_19IcarusCanisterState9get_owner
FN:139,_RNvNtCs1ZrBCw5B45A_15icarus_canister5state12assert_owner
FN:154,_RNvNtCs1ZrBCw5B45A_15icarus_canister5state8is_owner
FN:159,_RNvNtCs1ZrBCw5B45A_15icarus_canister5state9get_owner
FN:50,_RNvXNtCs1ZrBCw5B45A_15icarus_canister5stateNtB2_12ServerConfigNtNtCsjCqQCPaYZ8d_20ic_stable_structures8storable8Storable10from_bytes
FN:46,_RNvXNtCs1ZrBCw5B45A_15icarus_canister5stateNtB2_12ServerConfigNtNtCsjCqQCPaYZ8d_20ic_stable_structures8storable8Storable10into_bytes
FN:42,_RNvXNtCs1ZrBCw5B45A_15icarus_canister5stateNtB2_12ServerConfigNtNtCsjCqQCPaYZ8d_20ic_stable_structures8storable8Storable8to_bytes
FN:90,_RNvXs0_NtCs1ZrBCw5B45A_15icarus_canister5stateNtB5_13ResourceStateNtNtCsjCqQCPaYZ8d_20ic_stable_structures8storable8Storable10from_bytes
FN:86,_RNvXs0_NtCs1ZrBCw5B45A_15icarus_canister5stateNtB5_13ResourceStateNtNtCsjCqQCPaYZ8d_20ic_stable_structures8storable8Storable10into_bytes
FN:82,_RNvXs0_NtCs1ZrBCw5B45A_15icarus_canister5stateNtB5_13ResourceStateNtNtCsjCqQCPaYZ8d_20ic_stable_structures8storable8Storable8to_bytes
FN:70,_RNvXs_NtCs1ZrBCw5B45A_15icarus_canister5stateNtB4_9ToolStateNtNtCsjCqQCPaYZ8d_20ic_stable_structures8storable8Storable10from_bytes
FN:66,_RNvXs_NtCs1ZrBCw5B45A_15icarus_canister5stateNtB4_9ToolStateNtNtCsjCqQCPaYZ8d_20ic_stable_structures8storable8Storable10into_bytes
FN:62,_RNvXs_NtCs1ZrBCw5B45A_15icarus_canister5stateNtB4_9ToolStateNtNtCsjCqQCPaYZ8d_20ic_stable_structures8storable8Storable8to_bytes
FN:117,_RINvMs1_NtCs1ZrBCw5B45A_15icarus_canister5stateNtB6_19IcarusCanisterState4withNCNvB6_12assert_owner0uEB8_
FN:117,_RINvMs1_NtCs1ZrBCw5B45A_15icarus_canister5stateNtB6_19IcarusCanisterState4withNCNvB6_8is_owner0bEB8_
FN:117,_RINvMs1_NtCs1ZrBCw5B45A_15icarus_canister5stateNtB6_19IcarusCanisterState4withNCNvB6_9get_owner0NtCskfGddObvUoU_12ic_principal9PrincipalEB8_
FN:17,_RINvXs4_NtCs1ZrBCw5B45A_15icarus_canister5stateNtB6_12ServerConfigNtNtCsl9VkPx5ZYs4_6candid5types10CandidType13idl_serializeQNtNtB16_3ser15ValueSerializerEB8_
FN:26,_RINvXs7_NtCs1ZrBCw5B45A_15icarus_canister5stateNtB6_9ToolStateNtNtCsl9VkPx5ZYs4_6candid5types10CandidType13idl_serializeQNtNtB12_3ser15ValueSerializerEB8_
FN:35,_RINvXsa_NtCs1ZrBCw5B45A_15icarus_canister5stateNtB6_13ResourceStateNtNtCsl9VkPx5ZYs4_6candid5types10CandidType13idl_serializeQNtNtB17_3ser15ValueSerializerEB8_
FN:121,_RNCINvMs1_NtCs1ZrBCw5B45A_15icarus_canister5stateNtB8_19IcarusCanisterState4withNCNvB8_12assert_owner0uE0Ba_
FN:121,_RNCINvMs1_NtCs1ZrBCw5B45A_15icarus_canister5stateNtB8_19IcarusCanisterState4withNCNvB8_8is_owner0bE0Ba_
FN:121,_RNCINvMs1_NtCs1ZrBCw5B45A_15icarus_canister5stateNtB8_19IcarusCanisterState4withNCNvB8_9get_owner0NtCskfGddObvUoU_12ic_principal9PrincipalE0Ba_
FN:114,_RNCNvMs1_NtCs1ZrBCw5B45A_15icarus_canister5stateNtB7_19IcarusCanisterState4init0B9_
FN:141,_RNCNvNtCs1ZrBCw5B45A_15icarus_canister5state12assert_owner0B5_
FN:155,_RNCNvNtCs1ZrBCw5B45A_15icarus_canister5state8is_owner0B5_
FN:160,_RNCNvNtCs1ZrBCw5B45A_15icarus_canister5state9get_owner0B5_
FNDA:0,_RNvMs1_NtCs1ZrBCw5B45A_15icarus_canister5stateNtB5_19IcarusCanisterState4init
FNDA:0,_RNvMs1_NtCs1ZrBCw5B45A_15icarus_canister5stateNtB5_19IcarusCanisterState9get_owner
FNDA:0,_RNvNtCs1ZrBCw5B45A_15icarus_canister5state12assert_owner
FNDA:0,_RNvNtCs1ZrBCw5B45A_15icarus_canister5state8is_owner
FNDA:0,_RNvNtCs1ZrBCw5B45A_15icarus_canister5state9get_owner
FNDA:0,_RNvXNtCs1ZrBCw5B45A_15icarus_canister5stateNtB2_12ServerConfigNtNtCsjCqQCPaYZ8d_20ic_stable_structures8storable8Storable10from_bytes
FNDA:0,_RNvXNtCs1ZrBCw5B45A_15icarus_canister5stateNtB2_12ServerConfigNtNtCsjCqQCPaYZ8d_20ic_stable_structures8storable8Storable10into_bytes
FNDA:0,_RNvXNtCs1ZrBCw5B45A_15icarus_canister5stateNtB2_12ServerConfigNtNtCsjCqQCPaYZ8d_20ic_stable_structures8storable8Storable8to_bytes
FNDA:0,_RNvXs0_NtCs1ZrBCw5B45A_15icarus_canister5stateNtB5_13ResourceStateNtNtCsjCqQCPaYZ8d_20ic_stable_structures8storable8Storable10from_bytes
FNDA:0,_RNvXs0_NtCs1ZrBCw5B45A_15icarus_canister5stateNtB5_13ResourceStateNtNtCsjCqQCPaYZ8d_20ic_stable_structures8storable8Storable10into_bytes
FNDA:0,_RNvXs0_NtCs1ZrBCw5B45A_15icarus_canister5stateNtB5_13ResourceStateNtNtCsjCqQCPaYZ8d_20ic_stable_structures8storable8Storable8to_bytes
FNDA:0,_RNvXs_NtCs1ZrBCw5B45A_15icarus_canister5stateNtB4_9ToolStateNtNtCsjCqQCPaYZ8d_20ic_stable_structures8storable8Storable10from_bytes
FNDA:0,_RNvXs_NtCs1ZrBCw5B45A_15icarus_canister5stateNtB4_9ToolStateNtNtCsjCqQCPaYZ8d_20ic_stable_structures8storable8Storable10into_bytes
FNDA:0,_RNvXs_NtCs1ZrBCw5B45A_15icarus_canister5stateNtB4_9ToolStateNtNtCsjCqQCPaYZ8d_20ic_stable_structures8storable8Storable8to_bytes
FNDA:0,_RINvMs1_NtCs1ZrBCw5B45A_15icarus_canister5stateNtB6_19IcarusCanisterState4withNCNvB6_12assert_owner0uEB8_
FNDA:0,_RINvMs1_NtCs1ZrBCw5B45A_15icarus_canister5stateNtB6_19IcarusCanisterState4withNCNvB6_8is_owner0bEB8_
FNDA:0,_RINvMs1_NtCs1ZrBCw5B45A_15icarus_canister5stateNtB6_19IcarusCanisterState4withNCNvB6_9get_owner0NtCskfGddObvUoU_12ic_principal9PrincipalEB8_
FNDA:0,_RINvXs4_NtCs1ZrBCw5B45A_15icarus_canister5stateNtB6_12ServerConfigNtNtCsl9VkPx5ZYs4_6candid5types10CandidType13idl_serializeQNtNtB16_3ser15ValueSerializerEB8_
FNDA:0,_RINvXs7_NtCs1ZrBCw5B45A_15icarus_canister5stateNtB6_9ToolStateNtNtCsl9VkPx5ZYs4_6candid5types10CandidType13idl_serializeQNtNtB12_3ser15ValueSerializerEB8_
FNDA:0,_RINvXsa_NtCs1ZrBCw5B45A_15icarus_canister5stateNtB6_13ResourceStateNtNtCsl9VkPx5ZYs4_6candid5types10CandidType13idl_serializeQNtNtB17_3ser15ValueSerializerEB8_
FNDA:0,_RNCINvMs1_NtCs1ZrBCw5B45A_15icarus_canister5stateNtB8_19IcarusCanisterState4withNCNvB8_12assert_owner0uE0Ba_
FNDA:0,_RNCINvMs1_NtCs1ZrBCw5B45A_15icarus_canister5stateNtB8_19IcarusCanisterState4withNCNvB8_8is_owner0bE0Ba_
FNDA:0,_RNCINvMs1_NtCs1ZrBCw5B45A_15icarus_canister5stateNtB8_19IcarusCanisterState4withNCNvB8_9get_owner0NtCskfGddObvUoU_12ic_principal9PrincipalE0Ba_
FNDA:0,_RNCNvMs1_NtCs1ZrBCw5B45A_15icarus_canister5stateNtB7_19IcarusCanisterState4init0B9_
FNDA:0,_RNCNvNtCs1ZrBCw5B45A_15icarus_canister5state12assert_owner0B5_
FNDA:0,_RNCNvNtCs1ZrBCw5B45A_15icarus_canister5state8is_owner0B5_
FNDA:0,_RNCNvNtCs1ZrBCw5B45A_15icarus_canister5state9get_owner0B5_
FNF:23
FNH:0
DA:17,0
DA:26,0
DA:35,0
DA:42,0
DA:43,0
DA:44,0
DA:46,0
DA:47,0
DA:48,0
DA:50,0
DA:51,0
DA:52,0
DA:62,0
DA:63,0
DA:64,0
DA:66,0
DA:67,0
DA:68,0
DA:70,0
DA:71,0
DA:72,0
DA:82,0
DA:83,0
DA:84,0
DA:86,0
DA:87,0
DA:88,0
DA:90,0
DA:91,0
DA:92,0
DA:107,0
DA:108,0
DA:109,0
DA:110,0
DA:111,0
DA:112,0
DA:114,0
DA:115,0
DA:117,0
DA:118,0
DA:119,0
DA:121,0
DA:122,0
DA:123,0
DA:124,0
DA:125,0
DA:126,0
DA:129,0
DA:130,0
DA:131,0
DA:139,0
DA:140,0
DA:141,0
DA:142,0
DA:143,0
DA:144,0
DA:145,0
DA:146,0
DA:147,0
DA:149,0
DA:150,0
DA:151,0
DA:154,0
DA:155,0
DA:156,0
DA:159,0
DA:160,0
DA:161,0
BRF:0
BRH:0
LF:73
LH:0
end_of_record
SF:/Users/goshea/projects/icarus/icarus-sdk/crates/icarus-canister/src/storage.rs
FN:100,_RNvMs_NtCs1ZrBCw5B45A_15icarus_canister7storageNtB4_13StableCounter3new
FN:107,_RNvMs_NtCs1ZrBCw5B45A_15icarus_canister7storageNtB4_13StableCounter4next
FN:115,_RNvMs_NtCs1ZrBCw5B45A_15icarus_canister7storageNtB4_13StableCounter7current
FN:23,_RNCNvMNtCs1ZrBCw5B45A_15icarus_canister7storageINtB4_9StableMapNtNtCsiTraAjBDcu4_5alloc6string6StringyE3new0B6_
FN:35,_RNvMNtCs1ZrBCw5B45A_15icarus_canister7storageINtB2_9StableMapNtNtCsiTraAjBDcu4_5alloc6string6StringyE3getB4_
FN:22,_RNvMNtCs1ZrBCw5B45A_15icarus_canister7storageINtB2_9StableMapNtNtCsiTraAjBDcu4_5alloc6string6StringyE3newB4_
FN:30,_RNvMNtCs1ZrBCw5B45A_15icarus_canister7storageINtB2_9StableMapNtNtCsiTraAjBDcu4_5alloc6string6StringyE6insertB4_
FNDA:0,_RNvMs_NtCs1ZrBCw5B45A_15icarus_canister7storageNtB4_13StableCounter3new
FNDA:0,_RNvMs_NtCs1ZrBCw5B45A_15icarus_canister7storageNtB4_13StableCounter4next
FNDA:0,_RNvMs_NtCs1ZrBCw5B45A_15icarus_canister7storageNtB4_13StableCounter7current
FNDA:0,_RNCNvMNtCs1ZrBCw5B45A_15icarus_canister7storageINtB4_9StableMapNtNtCsiTraAjBDcu4_5alloc6string6StringyE3new0B6_
FNDA:0,_RNvMNtCs1ZrBCw5B45A_15icarus_canister7storageINtB2_9StableMapNtNtCsiTraAjBDcu4_5alloc6string6StringyE3getB4_
FNDA:0,_RNvMNtCs1ZrBCw5B45A_15icarus_canister7storageINtB2_9StableMapNtNtCsiTraAjBDcu4_5alloc6string6StringyE3newB4_
FNDA:0,_RNvMNtCs1ZrBCw5B45A_15icarus_canister7storageINtB2_9StableMapNtNtCsiTraAjBDcu4_5alloc6string6StringyE6insertB4_
FNF:7
FNH:0
DA:22,0
DA:23,0
DA:24,0
DA:25,0
DA:26,0
DA:27,0
DA:30,0
DA:31,0
DA:32,0
DA:35,0
DA:36,0
DA:37,0
DA:100,0
DA:101,0
DA:102,0
DA:103,0
DA:104,0
DA:107,0
DA:108,0
DA:109,0
DA:110,0
DA:111,0
DA:112,0
DA:115,0
DA:116,0
DA:117,0
BRF:0
BRH:0
LF:27
LH:0
end_of_record
SF:/Users/goshea/projects/icarus/icarus-sdk/crates/icarus-canister/src/timers.rs
FN:186,_RNCNvNtCs1ZrBCw5B45A_15icarus_canister6timers12cancel_timer0B5_
FN:215,_RNCNvNtCs1ZrBCw5B45A_15icarus_canister6timers17cancel_all_timers0B5_
FN:220,_RNCNvNtCs1ZrBCw5B45A_15icarus_canister6timers18active_timer_count0B5_
FN:208,_RNCNvNtCs1ZrBCw5B45A_15icarus_canister6timers18list_active_timers0B5_
FN:69,_RNvMNtCs1ZrBCw5B45A_15icarus_canister6timersNtB2_13TimerRegistry11list_timers
FN:65,_RNvMNtCs1ZrBCw5B45A_15icarus_canister6timersNtB2_13TimerRegistry12remove_timer
FN:46,_RNvMNtCs1ZrBCw5B45A_15icarus_canister6timersNtB2_13TimerRegistry3new
FN:53,_RNvMNtCs1ZrBCw5B45A_15icarus_canister6timersNtB2_13TimerRegistry9add_timer
FN:73,_RNvMNtCs1ZrBCw5B45A_15icarus_canister6timersNtB2_13TimerRegistry9clear_all
FN:185,_RNvNtCs1ZrBCw5B45A_15icarus_canister6timers12cancel_timer
FN:214,_RNvNtCs1ZrBCw5B45A_15icarus_canister6timers17cancel_all_timers
FN:219,_RNvNtCs1ZrBCw5B45A_15icarus_canister6timers18active_timer_count
FN:207,_RNvNtCs1ZrBCw5B45A_15icarus_canister6timers18list_active_timers
FNDA:0,_RNCNvNtCs1ZrBCw5B45A_15icarus_canister6timers12cancel_timer0B5_
FNDA:0,_RNCNvNtCs1ZrBCw5B45A_15icarus_canister6timers17cancel_all_timers0B5_
FNDA:0,_RNCNvNtCs1ZrBCw5B45A_15icarus_canister6timers18active_timer_count0B5_
FNDA:0,_RNCNvNtCs1ZrBCw5B45A_15icarus_canister6timers18list_active_timers0B5_
FNDA:0,_RNvMNtCs1ZrBCw5B45A_15icarus_canister6timersNtB2_13TimerRegistry11list_timers
FNDA:0,_RNvMNtCs1ZrBCw5B45A_15icarus_canister6timersNtB2_13TimerRegistry12remove_timer
FNDA:0,_RNvMNtCs1ZrBCw5B45A_15icarus_canister6timersNtB2_13TimerRegistry3new
FNDA:0,_RNvMNtCs1ZrBCw5B45A_15icarus_canister6timersNtB2_13TimerRegistry9add_timer
FNDA:0,_RNvMNtCs1ZrBCw5B45A_15icarus_canister6timersNtB2_13TimerRegistry9clear_all
FNDA:0,_RNvNtCs1ZrBCw5B45A_15icarus_canister6timers12cancel_timer
FNDA:0,_RNvNtCs1ZrBCw5B45A_15icarus_canister6timers17cancel_all_timers
FNDA:0,_RNvNtCs1ZrBCw5B45A_15icarus_canister6timers18active_timer_count
FNDA:0,_RNvNtCs1ZrBCw5B45A_15icarus_canister6timers18list_active_timers
FNF:13
FNH:0
DA:46,0
DA:47,0
DA:48,0
DA:49,0
DA:50,0
DA:51,0
DA:53,0
DA:54,0
DA:55,0
DA:56,0
DA:57,0
DA:58,0
DA:59,0
DA:60,0
DA:61,0
DA:62,0
DA:63,0
DA:65,0
DA:66,0
DA:67,0
DA:69,0
DA:70,0
DA:71,0
DA:73,0
DA:74,0
DA:75,0
DA:76,0
DA:77,0
DA:78,0
DA:185,0
DA:186,0
DA:187,0
DA:188,0
DA:189,0
DA:191,0
DA:193,0
DA:194,0
DA:207,0
DA:208,0
DA:209,0
DA:214,0
DA:215,0
DA:216,0
DA:219,0
DA:220,0
DA:221,0
BRF:0
BRH:0
LF:50
LH:0
end_of_record
SF:/Users/goshea/projects/icarus/icarus-sdk/crates/icarus-canister/src/tools.rs
FN:52,_RNCNvMNtCs1ZrBCw5B45A_15icarus_canister5toolsNtB4_12ToolRegistry10list_tools0B6_
FN:38,_RNCNvMNtCs1ZrBCw5B45A_15icarus_canister5toolsNtB4_12ToolRegistry7execute0Cs4NHOHTWP2ag_24integration_sdk_workflow
FN:49,_RNvMNtCs1ZrBCw5B45A_15icarus_canister5toolsNtB2_12ToolRegistry10list_tools
FN:28,_RNvMNtCs1ZrBCw5B45A_15icarus_canister5toolsNtB2_12ToolRegistry3new
FN:38,_RNvMNtCs1ZrBCw5B45A_15icarus_canister5toolsNtB2_12ToolRegistry7execute
FN:33,_RNvMNtCs1ZrBCw5B45A_15icarus_canister5toolsNtB2_12ToolRegistry8register
FN:38,_RNCNvMNtCs1ZrBCw5B45A_15icarus_canister5toolsNtB4_12ToolRegistry7execute0CscZ0MAzZOlgQ_10unit_tools
FNDA:3,_RNCNvMNtCs1ZrBCw5B45A_15icarus_canister5toolsNtB4_12ToolRegistry10list_tools0B6_
FNDA:4,_RNCNvMNtCs1ZrBCw5B45A_15icarus_canister5toolsNtB4_12ToolRegistry7execute0Cs4NHOHTWP2ag_24integration_sdk_workflow
FNDA:4,_RNvMNtCs1ZrBCw5B45A_15icarus_canister5toolsNtB2_12ToolRegistry10list_tools
FNDA:8,_RNvMNtCs1ZrBCw5B45A_15icarus_canister5toolsNtB2_12ToolRegistry3new
FNDA:8,_RNvMNtCs1ZrBCw5B45A_15icarus_canister5toolsNtB2_12ToolRegistry7execute
FNDA:8,_RNvMNtCs1ZrBCw5B45A_15icarus_canister5toolsNtB2_12ToolRegistry8register
FNDA:4,_RNCNvMNtCs1ZrBCw5B45A_15icarus_canister5toolsNtB4_12ToolRegistry7execute0CscZ0MAzZOlgQ_10unit_tools
FNF:6
FNH:6
DA:28,8
DA:29,8
DA:30,8
DA:33,8
DA:34,8
DA:35,8
DA:38,8
DA:39,8
DA:40,7
DA:41,7
DA:42,7
DA:44,1
DA:46,8
DA:49,4
DA:50,4
DA:51,4
DA:52,4
DA:53,4
DA:54,4
BRF:0
BRH:0
LF:21
LH:21
end_of_record
SF:/Users/goshea/projects/icarus/icarus-sdk/crates/icarus-core/src/builder.rs
FN:233,_RNCNCNvXs6_NtCs9WcHBvxQcZS_11icarus_core7builderNtB9_9BuiltToolNtNtBb_4tool10IcarusTool12to_rmcp_tool00Bb_
FN:342,_RNCNvMs0_NtCs9WcHBvxQcZS_11icarus_core7builderNtB7_12ServerConfig4info0B9_
FN:378,_RNCNvMs0_NtCs9WcHBvxQcZS_11icarus_core7builderNtB7_12ServerConfig9find_tool0B9_
FN:379,_RNCNvMs0_NtCs9WcHBvxQcZS_11icarus_core7builderNtB7_12ServerConfig9find_tools_0B9_
FN:229,_RNCNvXs6_NtCs9WcHBvxQcZS_11icarus_core7builderNtB7_9BuiltToolNtNtB9_4tool10IcarusTool12to_rmcp_tool0B9_
FN:186,_RNCNvXs6_NtCs9WcHBvxQcZS_11icarus_core7builderNtB7_9BuiltToolNtNtB9_4tool10IcarusTool4info0B9_
FNDA:0,_RNCNCNvXs6_NtCs9WcHBvxQcZS_11icarus_core7builderNtB9_9BuiltToolNtNtBb_4tool10IcarusTool12to_rmcp_tool00Bb_
FNDA:0,_RNCNvMs0_NtCs9WcHBvxQcZS_11icarus_core7builderNtB7_12ServerConfig4info0B9_
FNDA:0,_RNCNvMs0_NtCs9WcHBvxQcZS_11icarus_core7builderNtB7_12ServerConfig9find_tool0B9_
FNDA:0,_RNCNvMs0_NtCs9WcHBvxQcZS_11icarus_core7builderNtB7_12ServerConfig9find_tools_0B9_
FNDA:0,_RNCNvXs6_NtCs9WcHBvxQcZS_11icarus_core7builderNtB7_9BuiltToolNtNtB9_4tool10IcarusTool12to_rmcp_tool0B9_
FNDA:0,_RNCNvXs6_NtCs9WcHBvxQcZS_11icarus_core7builderNtB7_9BuiltToolNtNtB9_4tool10IcarusTool4info0B9_
FNF:6
FNH:0
DA:186,0
DA:229,0
DA:230,0
DA:231,0
DA:232,0
DA:233,0
DA:234,0
DA:235,0
DA:236,0
DA:237,0
DA:238,0
DA:342,0
DA:343,0
DA:344,0
DA:345,0
DA:346,0
DA:347,0
DA:349,0
DA:378,0
DA:379,0
BRF:0
BRH:0
LF:20
LH:0
end_of_record
SF:/Users/goshea/projects/icarus/icarus-sdk/crates/icarus-core/src/error.rs
FN:88,_RINvMs_NtCs9WcHBvxQcZS_11icarus_core5errorNtB5_9ToolError16operation_failedReECs4NHOHTWP2ag_24integration_sdk_workflow
FN:78,_RINvMs_NtCs9WcHBvxQcZS_11icarus_core5errorNtB5_9ToolError9not_foundNtNtCsiTraAjBDcu4_5alloc6string6StringECs4NHOHTWP2ag_24integration_sdk_workflow
FN:42,_RNvXNtCs9WcHBvxQcZS_11icarus_core5errorNtB2_11IcarusErrorINtNtCsaNl6UpbT7bw_4core7convert4FromNtNtCsl9VkPx5ZYs4_6candid5error5ErrorE4from
FN:78,_RINvMs_NtCs9WcHBvxQcZS_11icarus_core5errorNtB5_9ToolError9not_foundNtNtCsiTraAjBDcu4_5alloc6string6StringECscZ0MAzZOlgQ_10unit_tools
FNDA:1,_RINvMs_NtCs9WcHBvxQcZS_11icarus_core5errorNtB5_9ToolError16operation_failedReECs4NHOHTWP2ag_24integration_sdk_workflow
FNDA:0,_RINvMs_NtCs9WcHBvxQcZS_11icarus_core5errorNtB5_9ToolError9not_foundNtNtCsiTraAjBDcu4_5alloc6string6StringECs4NHOHTWP2ag_24integration_sdk_workflow
FNDA:0,_RNvXNtCs9WcHBvxQcZS_11icarus_core5errorNtB2_11IcarusErrorINtNtCsaNl6UpbT7bw_4core7convert4FromNtNtCsl9VkPx5ZYs4_6candid5error5ErrorE4from
FNDA:1,_RINvMs_NtCs9WcHBvxQcZS_11icarus_core5errorNtB5_9ToolError9not_foundNtNtCsiTraAjBDcu4_5alloc6string6StringECscZ0MAzZOlgQ_10unit_tools
FNF:3
FNH:2
DA:42,0
DA:43,0
DA:44,0
DA:78,1
DA:79,1
DA:80,1
DA:88,1
DA:89,1
DA:90,1
BRF:0
BRH:0
LF:9
LH:6
end_of_record
SF:/Users/goshea/projects/icarus/icarus-sdk/crates/icarus-core/src/persistent.rs
FN:118,_RNCNCNvXs1_NtCs9WcHBvxQcZS_11icarus_core10persistentNtB9_21MemoryPersistentStateNtB9_21IcarusPersistentState4size00Bb_
FNDA:0,_RNCNCNvXs1_NtCs9WcHBvxQcZS_11icarus_core10persistentNtB9_21MemoryPersistentStateNtB9_21IcarusPersistentState4size00Bb_
FNF:1
FNH:0
DA:118,0
BRF:0
BRH:0
LF:1
LH:0
end_of_record
SF:/Users/goshea/projects/icarus/icarus-sdk/crates/icarus-core/src/registry.rs
FN:58,_RNCNCNvXs0_NtCs9WcHBvxQcZS_11icarus_core8registryNtB9_19DefaultToolRegistryNtB9_18IcarusToolRegistry8get_tool00Bb_
FNDA:0,_RNCNCNvXs0_NtCs9WcHBvxQcZS_11icarus_core8registryNtB9_19DefaultToolRegistryNtB9_18IcarusToolRegistry8get_tool00Bb_
FNF:1
FNH:0
DA:58,0
BRF:0
BRH:0
LF:1
LH:0
end_of_record
SF:/Users/goshea/projects/icarus/icarus-sdk/crates/icarus-core/src/server.rs
FN:39,_RNCNvMNtCs9WcHBvxQcZS_11icarus_core6serverNtB4_7Version5parse0B6_
FN:43,_RNCNvMNtCs9WcHBvxQcZS_11icarus_core6serverNtB4_7Version5parses0_0B6_
FN:41,_RNCNvMNtCs9WcHBvxQcZS_11icarus_core6serverNtB4_7Version5parses_0B6_
FN:50,_RNvMNtCs9WcHBvxQcZS_11icarus_core6serverNtB2_7Version18is_compatible_with
FN:58,_RNvMNtCs9WcHBvxQcZS_11icarus_core6serverNtB2_7Version23is_breaking_change_from
FN:23,_RNvMNtCs9WcHBvxQcZS_11icarus_core6serverNtB2_7Version3new
FN:32,_RNvMNtCs9WcHBvxQcZS_11icarus_core6serverNtB2_7Version5parse
FN:70,_RNvXs0_NtCs9WcHBvxQcZS_11icarus_core6serverNtB5_7VersionNtNtCsaNl6UpbT7bw_4core3cmp10PartialOrd11partial_cmp
FN:76,_RNvXs1_NtCs9WcHBvxQcZS_11icarus_core6serverNtB5_7VersionNtNtCsaNl6UpbT7bw_4core3cmp3Ord3cmp
FN:64,_RNvXs_NtCs9WcHBvxQcZS_11icarus_core6serverNtB4_7VersionNtNtCsaNl6UpbT7bw_4core3fmt7Display3fmt
FNDA:0,_RNCNvMNtCs9WcHBvxQcZS_11icarus_core6serverNtB4_7Version5parse0B6_
FNDA:0,_RNCNvMNtCs9WcHBvxQcZS_11icarus_core6serverNtB4_7Version5parses0_0B6_
FNDA:0,_RNCNvMNtCs9WcHBvxQcZS_11icarus_core6serverNtB4_7Version5parses_0B6_
FNDA:0,_RNvMNtCs9WcHBvxQcZS_11icarus_core6serverNtB2_7Version18is_compatible_with
FNDA:0,_RNvMNtCs9WcHBvxQcZS_11icarus_core6serverNtB2_7Version23is_breaking_change_from
FNDA:0,_RNvMNtCs9WcHBvxQcZS_11icarus_core6serverNtB2_7Version3new
FNDA:0,_RNvMNtCs9WcHBvxQcZS_11icarus_core6serverNtB2_7Version5parse
FNDA:0,_RNvXs0_NtCs9WcHBvxQcZS_11icarus_core6serverNtB5_7VersionNtNtCsaNl6UpbT7bw_4core3cmp10PartialOrd11partial_cmp
FNDA:0,_RNvXs1_NtCs9WcHBvxQcZS_11icarus_core6serverNtB5_7VersionNtNtCsaNl6UpbT7bw_4core3cmp3Ord3cmp
FNDA:0,_RNvXs_NtCs9WcHBvxQcZS_11icarus_core6serverNtB4_7VersionNtNtCsaNl6UpbT7bw_4core3fmt7Display3fmt
FNF:10
FNH:0
DA:23,0
DA:24,0
DA:25,0
DA:26,0
DA:27,0
DA:28,0
DA:29,0
DA:32,0
DA:33,0
DA:34,0
DA:35,0
DA:36,0
DA:38,0
DA:39,0
DA:40,0
DA:41,0
DA:42,0
DA:43,0
DA:45,0
DA:46,0
DA:50,0
DA:51,0
DA:52,0
DA:53,0
DA:54,0
DA:55,0
DA:58,0
DA:59,0
DA:60,0
DA:64,0
DA:65,0
DA:66,0
DA:70,0
DA:71,0
DA:72,0
DA:76,0
DA:77,0
DA:78,0
DA:79,0
DA:80,0
DA:82,0
DA:84,0
BRF:0
BRH:0
LF:45
LH:0
end_of_record
SF:/Users/goshea/projects/icarus/icarus-sdk/crates/icarus-core/src/session.rs
FN:169,_RNCNCNvXs5_NtCs9WcHBvxQcZS_11icarus_core7sessionNtB9_20MemorySessionManagerNtB9_14SessionManager15cleanup_expired00Bb_
FN:170,_RNCNCNvXs5_NtCs9WcHBvxQcZS_11icarus_core7sessionNtB9_20MemorySessionManagerNtB9_14SessionManager15cleanup_expired0s_0Bb_
FN:200,_RNvMs0_NtCs9WcHBvxQcZS_11icarus_core7sessionNtB5_14SessionContext3new
FN:112,_RNvMs_NtCs9WcHBvxQcZS_11icarus_core7sessionNtB4_20MemorySessionManager19generate_session_id
FN:89,_RNvMs_NtCs9WcHBvxQcZS_11icarus_core7sessionNtB4_20MemorySessionManager3new
FN:108,_RNvMs_NtCs9WcHBvxQcZS_11icarus_core7sessionNtB4_20MemorySessionManager8get_time
FN:70,_RNvXNtCs9WcHBvxQcZS_11icarus_core7sessionNtB2_13SessionConfigNtNtCsaNl6UpbT7bw_4core7default7Default7default
FN:139,_RNvXs5_NtCs9WcHBvxQcZS_11icarus_core7sessionNtB5_20MemorySessionManagerNtB5_14SessionManager11get_session
FN:182,_RNvXs5_NtCs9WcHBvxQcZS_11icarus_core7sessionNtB5_20MemorySessionManagerNtB5_14SessionManager13touch_session
FN:124,_RNvXs5_NtCs9WcHBvxQcZS_11icarus_core7sessionNtB5_20MemorySessionManagerNtB5_14SessionManager14create_session
FN:148,_RNvXs5_NtCs9WcHBvxQcZS_11icarus_core7sessionNtB5_20MemorySessionManagerNtB5_14SessionManager14delete_session
FN:143,_RNvXs5_NtCs9WcHBvxQcZS_11icarus_core7sessionNtB5_20MemorySessionManagerNtB5_14SessionManager14update_session
FN:162,_RNvXs5_NtCs9WcHBvxQcZS_11icarus_core7sessionNtB5_20MemorySessionManagerNtB5_14SessionManager15cleanup_expired
FN:153,_RNvXs5_NtCs9WcHBvxQcZS_11icarus_core7sessionNtB5_20MemorySessionManagerNtB5_14SessionManager20list_active_sessions
FNDA:0,_RNCNCNvXs5_NtCs9WcHBvxQcZS_11icarus_core7sessionNtB9_20MemorySessionManagerNtB9_14SessionManager15cleanup_expired00Bb_
FNDA:0,_RNCNCNvXs5_NtCs9WcHBvxQcZS_11icarus_core7sessionNtB9_20MemorySessionManagerNtB9_14SessionManager15cleanup_expired0s_0Bb_
FNDA:0,_RNvMs0_NtCs9WcHBvxQcZS_11icarus_core7sessionNtB5_14SessionContext3new
FNDA:0,_RNvMs_NtCs9WcHBvxQcZS_11icarus_core7sessionNtB4_20MemorySessionManager19generate_session_id
FNDA:0,_RNvMs_NtCs9WcHBvxQcZS_11icarus_core7sessionNtB4_20MemorySessionManager3new
FNDA:0,_RNvMs_NtCs9WcHBvxQcZS_11icarus_core7sessionNtB4_20MemorySessionManager8get_time
FNDA:0,_RNvXNtCs9WcHBvxQcZS_11icarus_core7sessionNtB2_13SessionConfigNtNtCsaNl6UpbT7bw_4core7default7Default7default
FNDA:0,_RNvXs5_NtCs9WcHBvxQcZS_11icarus_core7sessionNtB5_20MemorySessionManagerNtB5_14SessionManager11get_session
FNDA:0,_RNvXs5_NtCs9WcHBvxQcZS_11icarus_core7sessionNtB5_20MemorySessionManagerNtB5_14SessionManager13touch_session
FNDA:0,_RNvXs5_NtCs9WcHBvxQcZS_11icarus_core7sessionNtB5_20MemorySessionManagerNtB5_14SessionManager14create_session
FNDA:0,_RNvXs5_NtCs9WcHBvxQcZS_11icarus_core7sessionNtB5_20MemorySessionManagerNtB5_14SessionManager14delete_session
FNDA:0,_RNvXs5_NtCs9WcHBvxQcZS_11icarus_core7sessionNtB5_20MemorySessionManagerNtB5_14SessionManager14update_session
FNDA:0,_RNvXs5_NtCs9WcHBvxQcZS_11icarus_core7sessionNtB5_20MemorySessionManagerNtB5_14SessionManager15cleanup_expired
FNDA:0,_RNvXs5_NtCs9WcHBvxQcZS_11icarus_core7sessionNtB5_20MemorySessionManagerNtB5_14SessionManager20list_active_sessions
FNF:14
FNH:0
DA:70,0
DA:71,0
DA:72,0
DA:73,0
DA:74,0
DA:75,0
DA:76,0
DA:77,0
DA:89,0
DA:90,0
DA:91,0
DA:92,0
DA:93,0
DA:94,0
DA:95,0
DA:108,0
DA:109,0
DA:110,0
DA:112,0
DA:114,0
DA:115,0
DA:116,0
DA:117,0
DA:118,0
DA:119,0
DA:124,0
DA:137,0
DA:139,0
DA:141,0
DA:143,0
DA:146,0
DA:148,0
DA:151,0
DA:153,0
DA:160,0
DA:162,0
DA:169,0
DA:170,0
DA:179,0
DA:182,0
DA:188,0
DA:200,0
DA:201,0
DA:202,0
DA:203,0
DA:204,0
DA:205,0
BRF:0
BRH:0
LF:47
LH:0
end_of_record
SF:/Users/goshea/projects/icarus/icarus-sdk/crates/icarus-derive/src/lib.rs
FN:454,_RNvCsdJxqUgS89VV_13icarus_derive11icarus_tool
FN:440,_RNvCsdJxqUgS89VV_13icarus_derive12icarus_tools
FN:503,_RNvCsdJxqUgS89VV_13icarus_derive13icarus_module
FN:114,_RNvCsdJxqUgS89VV_13icarus_derive13icarus_server
FN:532,_RNvCsdJxqUgS89VV_13icarus_derive15icarus_canister
FN:583,_RNvCsdJxqUgS89VV_13icarus_derive17parse_size_string
FN:23,_RNvCsdJxqUgS89VV_13icarus_derive18derive_icarus_tool
FN:142,_RNvCsdJxqUgS89VV_13icarus_derive18derive_icarus_type
FN:571,_RNvCsdJxqUgS89VV_13icarus_derive18is_stable_map_type
FN:577,_RNvCsdJxqUgS89VV_13icarus_derive19is_stable_cell_type
FN:232,_RNvCsdJxqUgS89VV_13icarus_derive21derive_icarus_storage
FN:371,_RNvCsdJxqUgS89VV_13icarus_derive22derive_icarus_storable
FN:32,_RNvCsdJxqUgS89VV_13icarus_derive23derive_icarus_tool_impl
FN:155,_RNCNvCsdJxqUgS89VV_13icarus_derive18derive_icarus_type0B3_
FN:384,_RNCNvCsdJxqUgS89VV_13icarus_derive22derive_icarus_storable0B3_
FN:398,_RNCNvCsdJxqUgS89VV_13icarus_derive22derive_icarus_storables_0B3_
FN:39,_RNCNvCsdJxqUgS89VV_13icarus_derive23derive_icarus_tool_impl0B3_
FN:55,_RNCNvCsdJxqUgS89VV_13icarus_derive23derive_icarus_tool_impls0_0B3_
FN:54,_RNCNvCsdJxqUgS89VV_13icarus_derive23derive_icarus_tool_impls_0B3_
FN:545,_RNvCsdJxqUgS89VV_13icarus_derive19extract_type_string
FN:551,_RNvCsdJxqUgS89VV_13icarus_derive22rust_type_to_json_type
FNDA:0,_RNvCsdJxqUgS89VV_13icarus_derive11icarus_tool
FNDA:0,_RNvCsdJxqUgS89VV_13icarus_derive12icarus_tools
FNDA:0,_RNvCsdJxqUgS89VV_13icarus_derive13icarus_module
FNDA:0,_RNvCsdJxqUgS89VV_13icarus_derive13icarus_server
FNDA:0,_RNvCsdJxqUgS89VV_13icarus_derive15icarus_canister
FNDA:0,_RNvCsdJxqUgS89VV_13icarus_derive17parse_size_string
FNDA:0,_RNvCsdJxqUgS89VV_13icarus_derive18derive_icarus_tool
FNDA:0,_RNvCsdJxqUgS89VV_13icarus_derive18derive_icarus_type
FNDA:0,_RNvCsdJxqUgS89VV_13icarus_derive18is_stable_map_type
FNDA:0,_RNvCsdJxqUgS89VV_13icarus_derive19is_stable_cell_type
FNDA:0,_RNvCsdJxqUgS89VV_13icarus_derive21derive_icarus_storage
FNDA:2,_RNvCsdJxqUgS89VV_13icarus_derive22derive_icarus_storable
FNDA:0,_RNvCsdJxqUgS89VV_13icarus_derive23derive_icarus_tool_impl
FNDA:0,_RNCNvCsdJxqUgS89VV_13icarus_derive18derive_icarus_type0B3_
FNDA:2,_RNCNvCsdJxqUgS89VV_13icarus_derive22derive_icarus_storable0B3_
FNDA:0,_RNCNvCsdJxqUgS89VV_13icarus_derive22derive_icarus_storables_0B3_
FNDA:0,_RNCNvCsdJxqUgS89VV_13icarus_derive23derive_icarus_tool_impl0B3_
FNDA:0,_RNCNvCsdJxqUgS89VV_13icarus_derive23derive_icarus_tool_impls0_0B3_
FNDA:0,_RNCNvCsdJxqUgS89VV_13icarus_derive23derive_icarus_tool_impls_0B3_
FNDA:0,_RNvCsdJxqUgS89VV_13icarus_derive19extract_type_string
FNDA:0,_RNvCsdJxqUgS89VV_13icarus_derive22rust_type_to_json_type
FNF:21
FNH:2
DA:23,0
DA:24,0
DA:26,0
DA:27,0
DA:28,0
DA:30,0
DA:32,0
DA:34,0
DA:35,0
DA:37,0
DA:38,0
DA:39,0
DA:40,0
DA:41,0
DA:42,0
DA:43,0
DA:44,0
DA:45,0
DA:47,0
DA:49,0
DA:50,0
DA:53,0
DA:54,0
DA:55,0
DA:58,0
DA:104,0
DA:105,0
DA:114,0
DA:115,0
DA:116,0
DA:117,0
DA:118,0
DA:142,0
DA:143,0
DA:144,0
DA:147,0
DA:150,0
DA:151,0
DA:153,0
DA:154,0
DA:155,0
DA:156,0
DA:157,0
DA:158,0
DA:159,0
DA:160,0
DA:161,0
DA:162,0
DA:163,0
DA:164,0
DA:165,0
DA:166,0
DA:167,0
DA:168,0
DA:170,0
DA:172,0
DA:173,0
DA:174,0
DA:177,0
DA:178,0
DA:180,0
DA:189,0
DA:209,0
DA:210,0
DA:232,0
DA:233,0
DA:235,0
DA:236,0
DA:237,0
DA:238,0
DA:239,0
DA:240,0
DA:242,0
DA:243,0
DA:244,0
DA:245,0
DA:246,0
DA:249,0
DA:250,0
DA:258,0
DA:259,0
DA:270,0
DA:281,0
DA:284,0
DA:285,0
DA:291,0
DA:292,0
DA:294,0
DA:314,0
DA:315,0
DA:316,0
DA:319,0
DA:339,0
DA:341,0
DA:342,0
DA:343,0
DA:344,0
DA:345,0
DA:346,0
DA:349,0
DA:350,0
DA:351,0
DA:353,0
DA:371,2
DA:372,2
DA:373,2
DA:376,2
DA:379,2
DA:380,2
DA:382,6
DA:383,4
DA:384,2
DA:385,2
DA:386,2
DA:387,2
DA:388,0
DA:389,0
DA:390,0
DA:391,0
DA:392,0
DA:393,0
DA:395,0
DA:397,2
DA:398,2
DA:399,2
DA:402,2
DA:403,2
DA:405,0
DA:414,2
DA:435,2
DA:436,2
DA:440,0
DA:441,0
DA:442,0
DA:443,0
DA:444,0
DA:454,0
DA:455,0
DA:458,0
DA:459,0
DA:463,0
DA:468,0
DA:469,0
DA:475,0
DA:476,0
DA:503,0
DA:504,0
DA:507,0
DA:508,0
DA:510,0
DA:514,0
DA:515,0
DA:516,0
DA:518,0
DA:532,0
DA:534,0
DA:537,0
DA:538,0
DA:539,0
DA:541,0
DA:545,0
DA:546,0
DA:547,0
DA:551,0
DA:552,0
DA:554,0
DA:555,0
DA:556,0
DA:557,0
DA:558,0
DA:559,0
DA:560,0
DA:562,0
DA:564,0
DA:565,0
DA:566,0
DA:568,0
DA:571,0
DA:572,0
DA:573,0
DA:574,0
DA:577,0
DA:578,0
DA:579,0
DA:580,0
DA:583,0
DA:584,0
DA:585,0
DA:586,0
DA:587,0
DA:588,0
DA:589,0
DA:590,0
DA:593,0
DA:595,0
BRF:0
BRH:0
LF:202
LH:21
end_of_record
SF:/Users/goshea/projects/icarus/icarus-sdk/crates/icarus-derive/src/server.rs
FN:15,_RNCNvNtCsdJxqUgS89VV_13icarus_derive6server20expand_icarus_server0B5_
FN:31,_RNCNvNtCsdJxqUgS89VV_13icarus_derive6server20expand_icarus_servers0_0B5_
FN:30,_RNCNvNtCsdJxqUgS89VV_13icarus_derive6server20expand_icarus_servers_0B5_
FN:10,_RNvNtCsdJxqUgS89VV_13icarus_derive6server20expand_icarus_server
FNDA:0,_RNCNvNtCsdJxqUgS89VV_13icarus_derive6server20expand_icarus_server0B5_
FNDA:0,_RNCNvNtCsdJxqUgS89VV_13icarus_derive6server20expand_icarus_servers0_0B5_
FNDA:0,_RNCNvNtCsdJxqUgS89VV_13icarus_derive6server20expand_icarus_servers_0B5_
FNDA:0,_RNvNtCsdJxqUgS89VV_13icarus_derive6server20expand_icarus_server
FNF:4
FNH:0
DA:10,0
DA:12,0
DA:13,0
DA:15,0
DA:16,0
DA:17,0
DA:18,0
DA:19,0
DA:20,0
DA:21,0
DA:23,0
DA:25,0
DA:27,0
DA:29,0
DA:30,0
DA:31,0
DA:34,0
DA:115,0
BRF:0
BRH:0
LF:21
LH:0
end_of_record
SF:/Users/goshea/projects/icarus/icarus-sdk/crates/icarus-derive/src/tools.rs
FN:1079,_RNCNCNCNvNtCsdJxqUgS89VV_13icarus_derive5tools22expand_icarus_canisters0_000B9_
FN:36,_RNCNCNvNtCsdJxqUgS89VV_13icarus_derive5tools19expand_icarus_toolss_00B7_
FN:1077,_RNCNCNvNtCsdJxqUgS89VV_13icarus_derive5tools22expand_icarus_canisters0_00B7_
FN:245,_RNCNvNtCsdJxqUgS89VV_13icarus_derive5tools16extract_is_query0B5_
FN:330,_RNCNvNtCsdJxqUgS89VV_13icarus_derive5tools17extract_is_public0B5_
FN:310,_RNCNvNtCsdJxqUgS89VV_13icarus_derive5tools17extract_tool_icon0B5_
FN:227,_RNCNvNtCsdJxqUgS89VV_13icarus_derive5tools17extract_tool_name0B5_
FN:290,_RNCNvNtCsdJxqUgS89VV_13icarus_derive5tools18extract_tool_title0B5_
FN:26,_RNCNvNtCsdJxqUgS89VV_13icarus_derive5tools19expand_icarus_tools0B5_
FN:56,_RNCNvNtCsdJxqUgS89VV_13icarus_derive5tools19expand_icarus_toolss0_0B5_
FN:32,_RNCNvNtCsdJxqUgS89VV_13icarus_derive5tools19expand_icarus_toolss_0B5_
FN:796,_RNCNvNtCsdJxqUgS89VV_13icarus_derive5tools20expand_icarus_module0B5_
FN:822,_RNCNvNtCsdJxqUgS89VV_13icarus_derive5tools20expand_icarus_modules_0B5_
FN:134,_RNCNvNtCsdJxqUgS89VV_13icarus_derive5tools21generate_query_method0B5_
FN:139,_RNCNvNtCsdJxqUgS89VV_13icarus_derive5tools21generate_query_methods_0B5_
FN:1066,_RNCNvNtCsdJxqUgS89VV_13icarus_derive5tools22expand_icarus_canister0B5_
FN:1075,_RNCNvNtCsdJxqUgS89VV_13icarus_derive5tools22expand_icarus_canisters0_0B5_
FN:1085,_RNCNvNtCsdJxqUgS89VV_13icarus_derive5tools22expand_icarus_canisters1_0B5_
FN:1096,_RNCNvNtCsdJxqUgS89VV_13icarus_derive5tools22expand_icarus_canisters2_0B5_
FN:1121,_RNCNvNtCsdJxqUgS89VV_13icarus_derive5tools22expand_icarus_canisters3_0B5_
FN:1143,_RNCNvNtCsdJxqUgS89VV_13icarus_derive5tools22expand_icarus_canisters4_0B5_
FN:1067,_RNCNvNtCsdJxqUgS89VV_13icarus_derive5tools22expand_icarus_canisters_0B5_
FN:182,_RNCNvNtCsdJxqUgS89VV_13icarus_derive5tools22generate_update_method0B5_
FN:187,_RNCNvNtCsdJxqUgS89VV_13icarus_derive5tools22generate_update_methods_0B5_
FN:269,_RNCNvNtCsdJxqUgS89VV_13icarus_derive5tools24extract_tool_description0B5_
FN:546,_RNCNvNtCsdJxqUgS89VV_13icarus_derive5tools27extract_function_parameters0B5_
FN:372,_RNCNvNtCsdJxqUgS89VV_13icarus_derive5tools28generate_async_update_method0B5_
FN:377,_RNCNvNtCsdJxqUgS89VV_13icarus_derive5tools28generate_async_update_methods_0B5_
FN:902,_RNvMs0_NtCsdJxqUgS89VV_13icarus_derive5toolsNtB5_19ToolMetadataBuilder17generate_metadata
FN:869,_RNvMs0_NtCsdJxqUgS89VV_13icarus_derive5toolsNtB5_19ToolMetadataBuilder3new
FN:885,_RNvMs0_NtCsdJxqUgS89VV_13icarus_derive5toolsNtB5_19ToolMetadataBuilder9from_refs
FN:503,_RNvMs_NtCsdJxqUgS89VV_13icarus_derive5toolsNtB4_19ProcessedAttributes22has_canister_attribute
FN:507,_RNvMs_NtCsdJxqUgS89VV_13icarus_derive5toolsNtB4_19ProcessedAttributes30needs_authentication_injection
FN:491,_RNvMs_NtCsdJxqUgS89VV_13icarus_derive5toolsNtB4_19ProcessedAttributes3new
FN:241,_RNvNtCsdJxqUgS89VV_13icarus_derive5tools16extract_is_query
FN:326,_RNvNtCsdJxqUgS89VV_13icarus_derive5tools17extract_is_public
FN:306,_RNvNtCsdJxqUgS89VV_13icarus_derive5tools17extract_tool_icon
FN:223,_RNvNtCsdJxqUgS89VV_13icarus_derive5tools17extract_tool_name
FN:286,_RNvNtCsdJxqUgS89VV_13icarus_derive5tools18extract_tool_title
FN:12,_RNvNtCsdJxqUgS89VV_13icarus_derive5tools19expand_icarus_tools
FN:1047,_RNvNtCsdJxqUgS89VV_13icarus_derive5tools19type_to_candid_type
FN:1036,_RNvNtCsdJxqUgS89VV_13icarus_derive5tools19type_to_json_schema
FN:750,_RNvNtCsdJxqUgS89VV_13icarus_derive5tools20expand_icarus_module
FN:127,_RNvNtCsdJxqUgS89VV_13icarus_derive5tools21generate_query_method
FN:1058,_RNvNtCsdJxqUgS89VV_13icarus_derive5tools22expand_icarus_canister
FN:575,_RNvNtCsdJxqUgS89VV_13icarus_derive5tools22generate_init_function
FN:175,_RNvNtCsdJxqUgS89VV_13icarus_derive5tools22generate_update_method
FN:601,_RNvNtCsdJxqUgS89VV_13icarus_derive5tools23generate_auth_functions
FN:259,_RNvNtCsdJxqUgS89VV_13icarus_derive5tools24extract_tool_description
FN:562,_RNvNtCsdJxqUgS89VV_13icarus_derive5tools24inject_authenticate_call
FN:542,_RNvNtCsdJxqUgS89VV_13icarus_derive5tools27extract_function_parameters
FN:348,_RNvNtCsdJxqUgS89VV_13icarus_derive5tools27generate_async_query_method
FN:513,_RNvNtCsdJxqUgS89VV_13icarus_derive5tools27process_function_attributes
FN:365,_RNvNtCsdJxqUgS89VV_13icarus_derive5tools28generate_async_update_method
FN:716,_RNvNtCsdJxqUgS89VV_13icarus_derive5tools28generate_list_tools_function
FN:439,_RNvXNtCsdJxqUgS89VV_13icarus_derive5toolsNtB2_12ModuleConfigNtNtCsfZdZo8Jz4Of_3syn5parse5Parse5parse
FNDA:0,_RNCNCNCNvNtCsdJxqUgS89VV_13icarus_derive5tools22expand_icarus_canisters0_000B9_
FNDA:0,_RNCNCNvNtCsdJxqUgS89VV_13icarus_derive5tools19expand_icarus_toolss_00B7_
FNDA:0,_RNCNCNvNtCsdJxqUgS89VV_13icarus_derive5tools22expand_icarus_canisters0_00B7_
FNDA:0,_RNCNvNtCsdJxqUgS89VV_13icarus_derive5tools16extract_is_query0B5_
FNDA:0,_RNCNvNtCsdJxqUgS89VV_13icarus_derive5tools17extract_is_public0B5_
FNDA:0,_RNCNvNtCsdJxqUgS89VV_13icarus_derive5tools17extract_tool_icon0B5_
FNDA:0,_RNCNvNtCsdJxqUgS89VV_13icarus_derive5tools17extract_tool_name0B5_
FNDA:0,_RNCNvNtCsdJxqUgS89VV_13icarus_derive5tools18extract_tool_title0B5_
FNDA:0,_RNCNvNtCsdJxqUgS89VV_13icarus_derive5tools19expand_icarus_tools0B5_
FNDA:0,_RNCNvNtCsdJxqUgS89VV_13icarus_derive5tools19expand_icarus_toolss0_0B5_
FNDA:0,_RNCNvNtCsdJxqUgS89VV_13icarus_derive5tools19expand_icarus_toolss_0B5_
FNDA:0,_RNCNvNtCsdJxqUgS89VV_13icarus_derive5tools20expand_icarus_module0B5_
FNDA:0,_RNCNvNtCsdJxqUgS89VV_13icarus_derive5tools20expand_icarus_modules_0B5_
FNDA:0,_RNCNvNtCsdJxqUgS89VV_13icarus_derive5tools21generate_query_method0B5_
FNDA:0,_RNCNvNtCsdJxqUgS89VV_13icarus_derive5tools21generate_query_methods_0B5_
FNDA:0,_RNCNvNtCsdJxqUgS89VV_13icarus_derive5tools22expand_icarus_canister0B5_
FNDA:0,_RNCNvNtCsdJxqUgS89VV_13icarus_derive5tools22expand_icarus_canisters0_0B5_
FNDA:0,_RNCNvNtCsdJxqUgS89VV_13icarus_derive5tools22expand_icarus_canisters1_0B5_
FNDA:0,_RNCNvNtCsdJxqUgS89VV_13icarus_derive5tools22expand_icarus_canisters2_0B5_
FNDA:0,_RNCNvNtCsdJxqUgS89VV_13icarus_derive5tools22expand_icarus_canisters3_0B5_
FNDA:0,_RNCNvNtCsdJxqUgS89VV_13icarus_derive5tools22expand_icarus_canisters4_0B5_
FNDA:0,_RNCNvNtCsdJxqUgS89VV_13icarus_derive5tools22expand_icarus_canisters_0B5_
FNDA:0,_RNCNvNtCsdJxqUgS89VV_13icarus_derive5tools22generate_update_method0B5_
FNDA:0,_RNCNvNtCsdJxqUgS89VV_13icarus_derive5tools22generate_update_methods_0B5_
FNDA:0,_RNCNvNtCsdJxqUgS89VV_13icarus_derive5tools24extract_tool_description0B5_
FNDA:0,_RNCNvNtCsdJxqUgS89VV_13icarus_derive5tools27extract_function_parameters0B5_
FNDA:0,_RNCNvNtCsdJxqUgS89VV_13icarus_derive5tools28generate_async_update_method0B5_
FNDA:0,_RNCNvNtCsdJxqUgS89VV_13icarus_derive5tools28generate_async_update_methods_0B5_
FNDA:0,_RNvMs0_NtCsdJxqUgS89VV_13icarus_derive5toolsNtB5_19ToolMetadataBuilder17generate_metadata
FNDA:0,_RNvMs0_NtCsdJxqUgS89VV_13icarus_derive5toolsNtB5_19ToolMetadataBuilder3new
FNDA:0,_RNvMs0_NtCsdJxqUgS89VV_13icarus_derive5toolsNtB5_19ToolMetadataBuilder9from_refs
FNDA:0,_RNvMs_NtCsdJxqUgS89VV_13icarus_derive5toolsNtB4_19ProcessedAttributes22has_canister_attribute
FNDA:0,_RNvMs_NtCsdJxqUgS89VV_13icarus_derive5toolsNtB4_19ProcessedAttributes30needs_authentication_injection
FNDA:0,_RNvMs_NtCsdJxqUgS89VV_13icarus_derive5toolsNtB4_19ProcessedAttributes3new
FNDA:0,_RNvNtCsdJxqUgS89VV_13icarus_derive5tools16extract_is_query
FNDA:0,_RNvNtCsdJxqUgS89VV_13icarus_derive5tools17extract_is_public
FNDA:0,_RNvNtCsdJxqUgS89VV_13icarus_derive5tools17extract_tool_icon
FNDA:0,_RNvNtCsdJxqUgS89VV_13icarus_derive5tools17extract_tool_name
FNDA:0,_RNvNtCsdJxqUgS89VV_13icarus_derive5tools18extract_tool_title
FNDA:0,_RNvNtCsdJxqUgS89VV_13icarus_derive5tools19expand_icarus_tools
FNDA:0,_RNvNtCsdJxqUgS89VV_13icarus_derive5tools19type_to_candid_type
FNDA:0,_RNvNtCsdJxqUgS89VV_13icarus_derive5tools19type_to_json_schema
FNDA:0,_RNvNtCsdJxqUgS89VV_13icarus_derive5tools20expand_icarus_module
FNDA:0,_RNvNtCsdJxqUgS89VV_13icarus_derive5tools21generate_query_method
FNDA:0,_RNvNtCsdJxqUgS89VV_13icarus_derive5tools22expand_icarus_canister
FNDA:0,_RNvNtCsdJxqUgS89VV_13icarus_derive5tools22generate_init_function
FNDA:0,_RNvNtCsdJxqUgS89VV_13icarus_derive5tools22generate_update_method
FNDA:0,_RNvNtCsdJxqUgS89VV_13icarus_derive5tools23generate_auth_functions
FNDA:0,_RNvNtCsdJxqUgS89VV_13icarus_derive5tools24extract_tool_description
FNDA:0,_RNvNtCsdJxqUgS89VV_13icarus_derive5tools24inject_authenticate_call
FNDA:0,_RNvNtCsdJxqUgS89VV_13icarus_derive5tools27extract_function_parameters
FNDA:0,_RNvNtCsdJxqUgS89VV_13icarus_derive5tools27generate_async_query_method
FNDA:0,_RNvNtCsdJxqUgS89VV_13icarus_derive5tools27process_function_attributes
FNDA:0,_RNvNtCsdJxqUgS89VV_13icarus_derive5tools28generate_async_update_method
FNDA:0,_RNvNtCsdJxqUgS89VV_13icarus_derive5tools28generate_list_tools_function
FNDA:0,_RNvXNtCsdJxqUgS89VV_13icarus_derive5toolsNtB2_12ModuleConfigNtNtCsfZdZo8Jz4Of_3syn5parse5Parse5parse
FNF:56
FNH:0
DA:12,0
DA:13,0
DA:16,0
DA:17,0
DA:19,0
DA:20,0
DA:22,0
DA:23,0
DA:24,0
DA:25,0
DA:26,0
DA:27,0
DA:28,0
DA:29,0
DA:32,0
DA:33,0
DA:34,0
DA:35,0
DA:36,0
DA:38,0
DA:41,0
DA:45,0
DA:47,0
DA:48,0
DA:49,0
DA:52,0
DA:53,0
DA:54,0
DA:55,0
DA:56,0
DA:57,0
DA:58,0
DA:59,0
DA:61,0
DA:64,0
DA:66,0
DA:67,0
DA:70,0
DA:87,0
DA:89,0
DA:92,0
DA:94,0
DA:95,0
DA:96,0
DA:97,0
DA:98,0
DA:101,0
DA:105,0
DA:106,0
DA:108,0
DA:112,0
DA:125,0
DA:127,0
DA:128,0
DA:129,0
DA:130,0
DA:131,0
DA:132,0
DA:134,0
DA:135,0
DA:136,0
DA:139,0
DA:140,0
DA:141,0
DA:143,0
DA:144,0
DA:146,0
DA:152,0
DA:173,0
DA:175,0
DA:176,0
DA:177,0
DA:178,0
DA:179,0
DA:180,0
DA:182,0
DA:183,0
DA:184,0
DA:187,0
DA:188,0
DA:189,0
DA:191,0
DA:192,0
DA:194,0
DA:200,0
DA:221,0
DA:223,0
DA:225,0
DA:227,0
DA:228,0
DA:229,0
DA:230,0
DA:231,0
DA:232,0
DA:233,0
DA:234,0
DA:235,0
DA:236,0
DA:238,0
DA:239,0
DA:241,0
DA:243,0
DA:245,0
DA:246,0
DA:247,0
DA:248,0
DA:249,0
DA:250,0
DA:251,0
DA:252,0
DA:253,0
DA:254,0
DA:256,0
DA:257,0
DA:259,0
DA:261,0
DA:263,0
DA:264,0
DA:265,0
DA:268,0
DA:269,0
DA:270,0
DA:271,0
DA:272,0
DA:273,0
DA:274,0
DA:275,0
DA:276,0
DA:277,0
DA:278,0
DA:280,0
DA:282,0
DA:284,0
DA:286,0
DA:288,0
DA:289,0
DA:290,0
DA:291,0
DA:292,0
DA:293,0
DA:294,0
DA:295,0
DA:296,0
DA:297,0
DA:298,0
DA:299,0
DA:300,0
DA:302,0
DA:304,0
DA:306,0
DA:308,0
DA:309,0
DA:310,0
DA:311,0
DA:312,0
DA:313,0
DA:314,0
DA:315,0
DA:316,0
DA:317,0
DA:318,0
DA:319,0
DA:320,0
DA:322,0
DA:324,0
DA:326,0
DA:328,0
DA:330,0
DA:331,0
DA:332,0
DA:333,0
DA:334,0
DA:335,0
DA:336,0
DA:337,0
DA:338,0
DA:339,0
DA:340,0
DA:341,0
DA:342,0
DA:344,0
DA:345,0
DA:348,0
DA:349,0
DA:350,0
DA:351,0
DA:352,0
DA:353,0
DA:354,0
DA:362,0
DA:365,0
DA:366,0
DA:367,0
DA:368,0
DA:369,0
DA:370,0
DA:372,0
DA:373,0
DA:374,0
DA:377,0
DA:378,0
DA:379,0
DA:381,0
DA:382,0
DA:384,0
DA:390,0
DA:426,0
DA:439,0
DA:440,0
DA:443,0
DA:444,0
DA:445,0
DA:448,0
DA:449,0
DA:450,0
DA:451,0
DA:453,0
DA:454,0
DA:455,0
DA:456,0
DA:458,0
DA:459,0
DA:460,0
DA:461,0
DA:462,0
DA:463,0
DA:464,0
DA:469,0
DA:470,0
DA:471,0
DA:474,0
DA:475,0
DA:491,0
DA:492,0
DA:493,0
DA:494,0
DA:495,0
DA:496,0
DA:497,0
DA:498,0
DA:499,0
DA:500,0
DA:501,0
DA:503,0
DA:504,0
DA:505,0
DA:507,0
DA:508,0
DA:509,0
DA:513,0
DA:514,0
DA:516,0
DA:517,0
DA:518,0
DA:519,0
DA:520,0
DA:521,0
DA:522,0
DA:523,0
DA:524,0
DA:525,0
DA:526,0
DA:527,0
DA:528,0
DA:529,0
DA:530,0
DA:531,0
DA:532,0
DA:533,0
DA:534,0
DA:535,0
DA:538,0
DA:539,0
DA:542,0
DA:543,0
DA:544,0
DA:545,0
DA:546,0
DA:547,0
DA:548,0
DA:549,0
DA:551,0
DA:554,0
DA:556,0
DA:557,0
DA:558,0
DA:562,0
DA:566,0
DA:571,0
DA:572,0
DA:575,0
DA:576,0
DA:598,0
DA:601,0
DA:602,0
DA:713,0
DA:716,0
DA:717,0
DA:718,0
DA:719,0
DA:720,0
DA:721,0
DA:723,0
DA:747,0
DA:750,0
DA:751,0
DA:752,0
DA:755,0
DA:756,0
DA:759,0
DA:764,0
DA:765,0
DA:768,0
DA:769,0
DA:771,0
DA:773,0
DA:775,0
DA:776,0
DA:777,0
DA:778,0
DA:780,0
DA:781,0
DA:782,0
DA:783,0
DA:784,0
DA:785,0
DA:788,0
DA:789,0
DA:790,0
DA:793,0
DA:794,0
DA:795,0
DA:796,0
DA:797,0
DA:798,0
DA:799,0
DA:800,0
DA:804,0
DA:805,0
DA:806,0
DA:807,0
DA:808,0
DA:809,0
DA:810,0
DA:811,0
DA:812,0
DA:813,0
DA:814,0
DA:815,0
DA:819,0
DA:820,0
DA:821,0
DA:822,0
DA:823,0
DA:824,0
DA:825,0
DA:826,0
DA:827,0
DA:828,0
DA:830,0
DA:831,0
DA:833,0
DA:836,0
DA:839,0
DA:840,0
DA:843,0
DA:856,0
DA:869,0
DA:870,0
DA:871,0
DA:872,0
DA:873,0
DA:874,0
DA:875,0
DA:876,0
DA:877,0
DA:878,0
DA:879,0
DA:880,0
DA:881,0
DA:882,0
DA:883,0
DA:885,0
DA:886,0
DA:887,0
DA:888,0
DA:889,0
DA:890,0
DA:891,0
DA:892,0
DA:893,0
DA:894,0
DA:895,0
DA:896,0
DA:897,0
DA:898,0
DA:899,0
DA:902,0
DA:904,0
DA:905,0
DA:906,0
DA:907,0
DA:910,0
DA:911,0
DA:912,0
DA:913,0
DA:915,0
DA:916,0
DA:919,0
DA:926,0
DA:927,0
DA:928,0
DA:930,0
DA:931,0
DA:934,0
DA:935,0
DA:936,0
DA:937,0
DA:940,0
DA:941,0
DA:943,0
DA:947,0
DA:982,0
DA:1036,0
DA:1038,0
DA:1039,0
DA:1040,0
DA:1041,0
DA:1043,0
DA:1044,0
DA:1047,0
DA:1049,0
DA:1050,0
DA:1051,0
DA:1052,0
DA:1054,0
DA:1055,0
DA:1058,0
DA:1060,0
DA:1063,0
DA:1064,0
DA:1066,0
DA:1067,0
DA:1069,0
DA:1071,0
DA:1072,0
DA:1073,0
DA:1074,0
DA:1075,0
DA:1077,0
DA:1078,0
DA:1079,0
DA:1081,0
DA:1083,0
DA:1084,0
DA:1085,0
DA:1088,0
DA:1089,0
DA:1092,0
DA:1093,0
DA:1094,0
DA:1095,0
DA:1096,0
DA:1097,0
DA:1098,0
DA:1099,0
DA:1101,0
DA:1104,0
DA:1106,0
DA:1107,0
DA:1110,0
DA:1111,0
DA:1113,0
DA:1114,0
DA:1115,0
DA:1119,0
DA:1120,0
DA:1121,0
DA:1122,0
DA:1123,0
DA:1124,0
DA:1125,0
DA:1128,0
DA:1143,0
DA:1144,0
DA:1145,0
DA:1146,0
DA:1148,0
DA:1149,0
DA:1152,0
DA:1153,0
DA:1154,0
DA:1158,0
BRF:0
BRH:0
LF:521
LH:0
end_of_record
SF:/Users/goshea/projects/icarus/icarus-sdk/crates/icarus-derive/src/validation.rs
FN:32,_RNvMNtCsdJxqUgS89VV_13icarus_derive10validationNtB2_16ValidationResult11add_warning
FN:19,_RNvMNtCsdJxqUgS89VV_13icarus_derive10validationNtB2_16ValidationResult3new
FN:27,_RNvMNtCsdJxqUgS89VV_13icarus_derive10validationNtB2_16ValidationResult9add_error
FN:127,_RNvNtCsdJxqUgS89VV_13icarus_derive10validation14has_references
FN:86,_RNvNtCsdJxqUgS89VV_13icarus_derive10validation14is_result_type
FN:140,_RNvNtCsdJxqUgS89VV_13icarus_derive10validation17is_simple_pattern
FN:145,_RNvNtCsdJxqUgS89VV_13icarus_derive10validation19validate_async_sync
FN:96,_RNvNtCsdJxqUgS89VV_13icarus_derive10validation19validate_parameters
FN:69,_RNvNtCsdJxqUgS89VV_13icarus_derive10validation20validate_return_type
FN:38,_RNvNtCsdJxqUgS89VV_13icarus_derive10validation22validate_tool_function
FNDA:0,_RNvMNtCsdJxqUgS89VV_13icarus_derive10validationNtB2_16ValidationResult11add_warning
FNDA:0,_RNvMNtCsdJxqUgS89VV_13icarus_derive10validationNtB2_16ValidationResult3new
FNDA:0,_RNvMNtCsdJxqUgS89VV_13icarus_derive10validationNtB2_16ValidationResult9add_error
FNDA:0,_RNvNtCsdJxqUgS89VV_13icarus_derive10validation14has_references
FNDA:0,_RNvNtCsdJxqUgS89VV_13icarus_derive10validation14is_result_type
FNDA:0,_RNvNtCsdJxqUgS89VV_13icarus_derive10validation17is_simple_pattern
FNDA:0,_RNvNtCsdJxqUgS89VV_13icarus_derive10validation19validate_async_sync
FNDA:0,_RNvNtCsdJxqUgS89VV_13icarus_derive10validation19validate_parameters
FNDA:0,_RNvNtCsdJxqUgS89VV_13icarus_derive10validation20validate_return_type
FNDA:0,_RNvNtCsdJxqUgS89VV_13icarus_derive10validation22validate_tool_function
FNF:10
FNH:0
DA:19,0
DA:20,0
DA:21,0
DA:22,0
DA:23,0
DA:24,0
DA:25,0
DA:27,0
DA:28,0
DA:29,0
DA:30,0
DA:32,0
DA:33,0
DA:34,0
DA:38,0
DA:39,0
DA:40,0
DA:41,0
DA:42,0
DA:43,0
DA:46,0
DA:47,0
DA:48,0
DA:49,0
DA:50,0
DA:51,0
DA:52,0
DA:53,0
DA:54,0
DA:57,0
DA:60,0
DA:63,0
DA:65,0
DA:66,0
DA:69,0
DA:70,0
DA:71,0
DA:72,0
DA:73,0
DA:74,0
DA:75,0
DA:76,0
DA:77,0
DA:78,0
DA:79,0
DA:80,0
DA:83,0
DA:86,0
DA:87,0
DA:88,0
DA:89,0
DA:90,0
DA:91,0
DA:92,0
DA:93,0
DA:96,0
DA:97,0
DA:98,0
DA:99,0
DA:100,0
DA:101,0
DA:102,0
DA:103,0
DA:104,0
DA:105,0
DA:107,0
DA:108,0
DA:109,0
DA:110,0
DA:111,0
DA:112,0
DA:115,0
DA:116,0
DA:117,0
DA:118,0
DA:119,0
DA:120,0
DA:124,0
DA:127,0
DA:128,0
DA:129,0
DA:133,0
DA:135,0
DA:137,0
DA:140,0
DA:141,0
DA:142,0
DA:145,0
DA:146,0
DA:148,0
DA:149,0
DA:150,0
DA:151,0
DA:152,0
DA:153,0
BRF:0
BRH:0
LF:95
LH:0
end_of_record