SF:/Users/goshea/projects/icarus/icarus-sdk/cli/src/commands/analyze.rs
FN:169,_RNCNvNtNtCs4Q4w8IwqgUj_6icarus8commands7analyze16get_project_name0B7_
FN:171,_RNCNvNtNtCs4Q4w8IwqgUj_6icarus8commands7analyze16get_project_names0_0B7_
FN:172,_RNCNvNtNtCs4Q4w8IwqgUj_6icarus8commands7analyze16get_project_names1_0B7_
FN:170,_RNCNvNtNtCs4Q4w8IwqgUj_6icarus8commands7analyze16get_project_names_0B7_
FN:8,_RNCNvNtNtCs4Q4w8IwqgUj_6icarus8commands7analyze7execute0B7_
FN:163,_RNvNtNtCs4Q4w8IwqgUj_6icarus8commands7analyze16get_project_name
FN:159,_RNvNtNtCs4Q4w8IwqgUj_6icarus8commands7analyze17is_icarus_project
FN:95,_RNvNtNtCs4Q4w8IwqgUj_6icarus8commands7analyze19show_basic_analysis
FN:115,_RNvNtNtCs4Q4w8IwqgUj_6icarus8commands7analyze29show_optimization_suggestions
FN:8,_RNvNtNtCs4Q4w8IwqgUj_6icarus8commands7analyze7execute
FNDA:0,_RNCNvNtNtCs4Q4w8IwqgUj_6icarus8commands7analyze16get_project_name0B7_
FNDA:0,_RNCNvNtNtCs4Q4w8IwqgUj_6icarus8commands7analyze16get_project_names0_0B7_
FNDA:0,_RNCNvNtNtCs4Q4w8IwqgUj_6icarus8commands7analyze16get_project_names1_0B7_
FNDA:0,_RNCNvNtNtCs4Q4w8IwqgUj_6icarus8commands7analyze16get_project_names_0B7_
FNDA:0,_RNCNvNtNtCs4Q4w8IwqgUj_6icarus8commands7analyze7execute0B7_
FNDA:0,_RNvNtNtCs4Q4w8IwqgUj_6icarus8commands7analyze16get_project_name
FNDA:0,_RNvNtNtCs4Q4w8IwqgUj_6icarus8commands7analyze17is_icarus_project
FNDA:0,_RNvNtNtCs4Q4w8IwqgUj_6icarus8commands7analyze19show_basic_analysis
FNDA:0,_RNvNtNtCs4Q4w8IwqgUj_6icarus8commands7analyze29show_optimization_suggestions
FNDA:0,_RNvNtNtCs4Q4w8IwqgUj_6icarus8commands7analyze7execute
FNF:10
FNH:0
DA:8,0
DA:10,0
DA:11,0
DA:12,0
DA:13,0
DA:16,0
DA:17,0
DA:18,0
DA:19,0
DA:20,0
DA:21,0
DA:23,0
DA:24,0
DA:25,0
DA:28,0
DA:29,0
DA:30,0
DA:31,0
DA:34,0
DA:35,0
DA:36,0
DA:38,0
DA:39,0
DA:40,0
DA:41,0
DA:42,0
DA:43,0
DA:46,0
DA:47,0
DA:48,0
DA:49,0
DA:50,0
DA:52,0
DA:53,0
DA:56,0
DA:57,0
DA:58,0
DA:59,0
DA:60,0
DA:61,0
DA:64,0
DA:65,0
DA:66,0
DA:67,0
DA:68,0
DA:72,0
DA:75,0
DA:76,0
DA:78,0
DA:79,0
DA:80,0
DA:82,0
DA:83,0
DA:84,0
DA:85,0
DA:86,0
DA:89,0
DA:92,0
DA:93,0
DA:95,0
DA:96,0
DA:99,0
DA:100,0
DA:103,0
DA:104,0
DA:105,0
DA:106,0
DA:107,0
DA:108,0
DA:109,0
DA:110,0
DA:112,0
DA:113,0
DA:115,0
DA:116,0
DA:118,0
DA:120,0
DA:121,0
DA:122,0
DA:123,0
DA:124,0
DA:125,0
DA:126,0
DA:127,0
DA:128,0
DA:130,0
DA:131,0
DA:132,0
DA:133,0
DA:134,0
DA:137,0
DA:138,0
DA:140,0
DA:141,0
DA:142,0
DA:143,0
DA:144,0
DA:145,0
DA:146,0
DA:147,0
DA:148,0
DA:149,0
DA:150,0
DA:151,0
DA:152,0
DA:153,0
DA:154,0
DA:156,0
DA:157,0
DA:159,0
DA:160,0
DA:161,0
DA:163,0
DA:164,0
DA:165,0
DA:166,0
DA:168,0
DA:169,0
DA:170,0
DA:171,0
DA:172,0
DA:173,0
BRF:0
BRH:0
LF:127
LH:0
end_of_record
SF:/Users/goshea/projects/icarus/icarus-sdk/cli/src/commands/deploy.rs
FN:339,_RNCNCNvNtNtCs4Q4w8IwqgUj_6icarus8commands6deploy28handle_claude_desktop_config00B9_
FN:340,_RNCNCNvNtNtCs4Q4w8IwqgUj_6icarus8commands6deploy28handle_claude_desktop_config0s_0B9_
FN:80,_RNCNCNvNtNtCs4Q4w8IwqgUj_6icarus8commands6deploy7execute00B9_
FN:172,_RNCNvNtNtCs4Q4w8IwqgUj_6icarus8commands6deploy13optimize_wasm0B7_
FN:136,_RNCNvNtNtCs4Q4w8IwqgUj_6icarus8commands6deploy16get_project_name0B7_
FN:138,_RNCNvNtNtCs4Q4w8IwqgUj_6icarus8commands6deploy16get_project_names0_0B7_
FN:139,_RNCNvNtNtCs4Q4w8IwqgUj_6icarus8commands6deploy16get_project_names1_0B7_
FN:137,_RNCNvNtNtCs4Q4w8IwqgUj_6icarus8commands6deploy16get_project_names_0B7_
FN:252,_RNCNvNtNtCs4Q4w8IwqgUj_6icarus8commands6deploy23update_candid_from_wasm0B7_
FN:313,_RNCNvNtNtCs4Q4w8IwqgUj_6icarus8commands6deploy28handle_claude_desktop_config0B7_
FN:407,_RNCNvNtNtCs4Q4w8IwqgUj_6icarus8commands6deploy30generate_claude_desktop_config0B7_
FN:408,_RNCNvNtNtCs4Q4w8IwqgUj_6icarus8commands6deploy30generate_claude_desktop_configs_0B7_
FN:14,_RNCNvNtNtCs4Q4w8IwqgUj_6icarus8commands6deploy7execute0B7_
FN:235,_RNvNtNtCs4Q4w8IwqgUj_6icarus8commands6deploy11format_size
FN:172,_RNvNtNtCs4Q4w8IwqgUj_6icarus8commands6deploy13optimize_wasm
FN:130,_RNvNtNtCs4Q4w8IwqgUj_6icarus8commands6deploy16get_project_name
FN:142,_RNvNtNtCs4Q4w8IwqgUj_6icarus8commands6deploy16save_canister_id
FN:126,_RNvNtNtCs4Q4w8IwqgUj_6icarus8commands6deploy17is_icarus_project
FN:252,_RNvNtNtCs4Q4w8IwqgUj_6icarus8commands6deploy23update_candid_from_wasm
FN:309,_RNvNtNtCs4Q4w8IwqgUj_6icarus8commands6deploy28handle_claude_desktop_config
FN:404,_RNvNtNtCs4Q4w8IwqgUj_6icarus8commands6deploy30generate_claude_desktop_config
FN:14,_RNvNtNtCs4Q4w8IwqgUj_6icarus8commands6deploy7execute
FNDA:0,_RNCNCNvNtNtCs4Q4w8IwqgUj_6icarus8commands6deploy28handle_claude_desktop_config00B9_
FNDA:0,_RNCNCNvNtNtCs4Q4w8IwqgUj_6icarus8commands6deploy28handle_claude_desktop_config0s_0B9_
FNDA:0,_RNCNCNvNtNtCs4Q4w8IwqgUj_6icarus8commands6deploy7execute00B9_
FNDA:0,_RNCNvNtNtCs4Q4w8IwqgUj_6icarus8commands6deploy13optimize_wasm0B7_
FNDA:0,_RNCNvNtNtCs4Q4w8IwqgUj_6icarus8commands6deploy16get_project_name0B7_
FNDA:0,_RNCNvNtNtCs4Q4w8IwqgUj_6icarus8commands6deploy16get_project_names0_0B7_
FNDA:0,_RNCNvNtNtCs4Q4w8IwqgUj_6icarus8commands6deploy16get_project_names1_0B7_
FNDA:0,_RNCNvNtNtCs4Q4w8IwqgUj_6icarus8commands6deploy16get_project_names_0B7_
FNDA:0,_RNCNvNtNtCs4Q4w8IwqgUj_6icarus8commands6deploy23update_candid_from_wasm0B7_
FNDA:0,_RNCNvNtNtCs4Q4w8IwqgUj_6icarus8commands6deploy28handle_claude_desktop_config0B7_
FNDA:0,_RNCNvNtNtCs4Q4w8IwqgUj_6icarus8commands6deploy30generate_claude_desktop_config0B7_
FNDA:0,_RNCNvNtNtCs4Q4w8IwqgUj_6icarus8commands6deploy30generate_claude_desktop_configs_0B7_
FNDA:0,_RNCNvNtNtCs4Q4w8IwqgUj_6icarus8commands6deploy7execute0B7_
FNDA:0,_RNvNtNtCs4Q4w8IwqgUj_6icarus8commands6deploy11format_size
FNDA:0,_RNvNtNtCs4Q4w8IwqgUj_6icarus8commands6deploy13optimize_wasm
FNDA:0,_RNvNtNtCs4Q4w8IwqgUj_6icarus8commands6deploy16get_project_name
FNDA:0,_RNvNtNtCs4Q4w8IwqgUj_6icarus8commands6deploy16save_canister_id
FNDA:0,_RNvNtNtCs4Q4w8IwqgUj_6icarus8commands6deploy17is_icarus_project
FNDA:0,_RNvNtNtCs4Q4w8IwqgUj_6icarus8commands6deploy23update_candid_from_wasm
FNDA:0,_RNvNtNtCs4Q4w8IwqgUj_6icarus8commands6deploy28handle_claude_desktop_config
FNDA:0,_RNvNtNtCs4Q4w8IwqgUj_6icarus8commands6deploy30generate_claude_desktop_config
FNDA:0,_RNvNtNtCs4Q4w8IwqgUj_6icarus8commands6deploy7execute
FNF:22
FNH:0
DA:14,0
DA:16,0
DA:17,0
DA:18,0
DA:21,0
DA:22,0
DA:23,0
DA:24,0
DA:27,0
DA:29,0
DA:30,0
DA:31,0
DA:32,0
DA:35,0
DA:36,0
DA:37,0
DA:38,0
DA:39,0
DA:40,0
DA:41,0
DA:44,0
DA:47,0
DA:48,0
DA:51,0
DA:52,0
DA:53,0
DA:54,0
DA:57,0
DA:60,0
DA:61,0
DA:62,0
DA:63,0
DA:64,0
DA:65,0
DA:66,0
DA:69,0
DA:70,0
DA:71,0
DA:72,0
DA:74,0
DA:75,0
DA:76,0
DA:77,0
DA:80,0
DA:83,0
DA:86,0
DA:87,0
DA:88,0
DA:89,0
DA:90,0
DA:91,0
DA:92,0
DA:94,0
DA:95,0
DA:96,0
DA:97,0
DA:100,0
DA:103,0
DA:105,0
DA:106,0
DA:107,0
DA:108,0
DA:109,0
DA:110,0
DA:111,0
DA:112,0
DA:113,0
DA:114,0
DA:115,0
DA:116,0
DA:117,0
DA:118,0
DA:119,0
DA:121,0
DA:123,0
DA:124,0
DA:126,0
DA:127,0
DA:128,0
DA:130,0
DA:131,0
DA:132,0
DA:133,0
DA:135,0
DA:136,0
DA:137,0
DA:138,0
DA:139,0
DA:140,0
DA:142,0
DA:143,0
DA:145,0
DA:146,0
DA:147,0
DA:149,0
DA:152,0
DA:154,0
DA:155,0
DA:156,0
DA:158,0
DA:160,0
DA:161,0
DA:162,0
DA:164,0
DA:166,0
DA:167,0
DA:169,0
DA:170,0
DA:172,0
DA:176,0
DA:177,0
DA:178,0
DA:180,0
DA:181,0
DA:184,0
DA:185,0
DA:186,0
DA:187,0
DA:188,0
DA:189,0
DA:191,0
DA:193,0
DA:194,0
DA:197,0
DA:199,0
DA:202,0
DA:203,0
DA:204,0
DA:205,0
DA:206,0
DA:207,0
DA:208,0
DA:210,0
DA:211,0
DA:213,0
DA:214,0
DA:216,0
DA:217,0
DA:218,0
DA:219,0
DA:220,0
DA:221,0
DA:223,0
DA:224,0
DA:225,0
DA:226,0
DA:227,0
DA:228,0
DA:229,0
DA:232,0
DA:233,0
DA:235,0
DA:237,0
DA:238,0
DA:240,0
DA:241,0
DA:242,0
DA:243,0
DA:245,0
DA:246,0
DA:248,0
DA:250,0
DA:252,0
DA:256,0
DA:257,0
DA:258,0
DA:259,0
DA:260,0
DA:261,0
DA:263,0
DA:264,0
DA:265,0
DA:268,0
DA:269,0
DA:270,0
DA:273,0
DA:276,0
DA:277,0
DA:278,0
DA:279,0
DA:280,0
DA:283,0
DA:284,0
DA:285,0
DA:286,0
DA:288,0
DA:289,0
DA:290,0
DA:291,0
DA:292,0
DA:293,0
DA:296,0
DA:299,0
DA:300,0
DA:301,0
DA:302,0
DA:303,0
DA:304,0
DA:306,0
DA:307,0
DA:309,0
DA:310,0
DA:311,0
DA:312,0
DA:313,0
DA:315,0
DA:316,0
DA:317,0
DA:318,0
DA:319,0
DA:322,0
DA:323,0
DA:325,0
DA:327,0
DA:331,0
DA:334,0
DA:335,0
DA:336,0
DA:338,0
DA:339,0
DA:340,0
DA:341,0
DA:342,0
DA:343,0
DA:345,0
DA:346,0
DA:347,0
DA:349,0
DA:350,0
DA:351,0
DA:352,0
DA:353,0
DA:354,0
DA:355,0
DA:356,0
DA:357,0
DA:358,0
DA:359,0
DA:360,0
DA:361,0
DA:362,0
DA:363,0
DA:365,0
DA:366,0
DA:369,0
DA:371,0
DA:372,0
DA:373,0
DA:374,0
DA:376,0
DA:377,0
DA:378,0
DA:379,0
DA:381,0
DA:384,0
DA:386,0
DA:387,0
DA:388,0
DA:389,0
DA:390,0
DA:392,0
DA:394,0
DA:395,0
DA:396,0
DA:397,0
DA:399,0
DA:401,0
DA:402,0
DA:404,0
DA:406,0
DA:407,0
DA:408,0
DA:410,0
DA:411,0
DA:412,0
DA:413,0
DA:414,0
DA:415,0
DA:419,0
BRF:0
BRH:0
LF:292
LH:0
end_of_record
SF:/Users/goshea/projects/icarus/icarus-sdk/cli/src/commands/mcp/add.rs
FN:26,_RNCNCNvNtNtNtCs4Q4w8IwqgUj_6icarus8commands3mcp3add7execute00Bb_
FN:73,_RNCNCNvNtNtNtCs4Q4w8IwqgUj_6icarus8commands3mcp3add7execute0s0_0Bb_
FN:87,_RNCNCNvNtNtNtCs4Q4w8IwqgUj_6icarus8commands3mcp3add7execute0s1_0Bb_
FN:243,_RNCNvNtNtNtCs4Q4w8IwqgUj_6icarus8commands3mcp3add16configure_client0B9_
FN:20,_RNCNvNtNtNtCs4Q4w8IwqgUj_6icarus8commands3mcp3add7execute0B9_
FN:237,_RNvNtNtNtCs4Q4w8IwqgUj_6icarus8commands3mcp3add16configure_client
FN:14,_RNvNtNtNtCs4Q4w8IwqgUj_6icarus8commands3mcp3add7execute
FNDA:0,_RNCNCNvNtNtNtCs4Q4w8IwqgUj_6icarus8commands3mcp3add7execute00Bb_
FNDA:0,_RNCNCNvNtNtNtCs4Q4w8IwqgUj_6icarus8commands3mcp3add7execute0s0_0Bb_
FNDA:0,_RNCNCNvNtNtNtCs4Q4w8IwqgUj_6icarus8commands3mcp3add7execute0s1_0Bb_
FNDA:0,_RNCNvNtNtNtCs4Q4w8IwqgUj_6icarus8commands3mcp3add16configure_client0B9_
FNDA:0,_RNCNvNtNtNtCs4Q4w8IwqgUj_6icarus8commands3mcp3add7execute0B9_
FNDA:0,_RNvNtNtNtCs4Q4w8IwqgUj_6icarus8commands3mcp3add16configure_client
FNDA:0,_RNvNtNtNtCs4Q4w8IwqgUj_6icarus8commands3mcp3add7execute
FNF:7
FNH:0
DA:14,0
DA:15,0
DA:16,0
DA:17,0
DA:18,0
DA:19,0
DA:20,0
DA:22,0
DA:23,0
DA:24,0
DA:26,0
DA:28,0
DA:29,0
DA:31,0
DA:32,0
DA:34,0
DA:35,0
DA:38,0
DA:39,0
DA:40,0
DA:41,0
DA:43,0
DA:44,0
DA:45,0
DA:46,0
DA:47,0
DA:48,0
DA:49,0
DA:50,0
DA:51,0
DA:54,0
DA:56,0
DA:57,0
DA:59,0
DA:60,0
DA:61,0
DA:62,0
DA:63,0
DA:64,0
DA:66,0
DA:67,0
DA:71,0
DA:72,0
DA:73,0
DA:74,0
DA:75,0
DA:76,0
DA:77,0
DA:78,0
DA:79,0
DA:80,0
DA:81,0
DA:83,0
DA:86,0
DA:87,0
DA:90,0
DA:91,0
DA:92,0
DA:93,0
DA:96,0
DA:97,0
DA:98,0
DA:99,0
DA:101,0
DA:102,0
DA:103,0
DA:104,0
DA:107,0
DA:110,0
DA:111,0
DA:113,0
DA:114,0
DA:115,0
DA:119,0
DA:120,0
DA:121,0
DA:122,0
DA:126,0
DA:127,0
DA:128,0
DA:129,0
DA:130,0
DA:131,0
DA:132,0
DA:133,0
DA:134,0
DA:137,0
DA:140,0
DA:141,0
DA:142,0
DA:143,0
DA:144,0
DA:145,0
DA:146,0
DA:149,0
DA:150,0
DA:152,0
DA:153,0
DA:154,0
DA:155,0
DA:157,0
DA:158,0
DA:159,0
DA:160,0
DA:163,0
DA:164,0
DA:165,0
DA:166,0
DA:167,0
DA:168,0
DA:169,0
DA:170,0
DA:172,0
DA:175,0
DA:178,0
DA:180,0
DA:181,0
DA:183,0
DA:184,0
DA:185,0
DA:186,0
DA:187,0
DA:188,0
DA:189,0
DA:190,0
DA:191,0
DA:192,0
DA:193,0
DA:194,0
DA:195,0
DA:196,0
DA:197,0
DA:198,0
DA:199,0
DA:200,0
DA:201,0
DA:202,0
DA:203,0
DA:207,0
DA:208,0
DA:209,0
DA:210,0
DA:211,0
DA:212,0
DA:213,0
DA:214,0
DA:215,0
DA:216,0
DA:217,0
DA:218,0
DA:219,0
DA:220,0
DA:221,0
DA:222,0
DA:223,0
DA:224,0
DA:225,0
DA:226,0
DA:227,0
DA:228,0
DA:229,0
DA:230,0
DA:233,0
DA:234,0
DA:237,0
DA:238,0
DA:239,0
DA:240,0
DA:241,0
DA:242,0
DA:243,0
DA:245,0
DA:246,0
DA:248,0
DA:249,0
DA:252,0
DA:257,0
DA:258,0
DA:259,0
DA:260,0
DA:263,0
DA:266,0
DA:267,0
DA:268,0
DA:271,0
DA:272,0
DA:273,0
DA:275,0
DA:276,0
BRF:0
BRH:0
LF:194
LH:0
end_of_record
SF:/Users/goshea/projects/icarus/icarus-sdk/cli/src/commands/mcp/dashboard.rs
FN:89,_RNCNCNvNtNtNtCs4Q4w8IwqgUj_6icarus8commands3mcp9dashboard7execute0s0_0Bb_
FN:90,_RNCNCNvNtNtNtCs4Q4w8IwqgUj_6icarus8commands3mcp9dashboard7execute0s1_0Bb_
FN:91,_RNCNCNvNtNtNtCs4Q4w8IwqgUj_6icarus8commands3mcp9dashboard7execute0s2_0Bb_
FN:88,_RNCNCNvNtNtNtCs4Q4w8IwqgUj_6icarus8commands3mcp9dashboard7execute0s_0Bb_
FN:13,_RNCNvNtNtNtCs4Q4w8IwqgUj_6icarus8commands3mcp9dashboard7execute0B9_
FN:13,_RNvNtNtNtCs4Q4w8IwqgUj_6icarus8commands3mcp9dashboard7execute
FNDA:0,_RNCNCNvNtNtNtCs4Q4w8IwqgUj_6icarus8commands3mcp9dashboard7execute0s0_0Bb_
FNDA:0,_RNCNCNvNtNtNtCs4Q4w8IwqgUj_6icarus8commands3mcp9dashboard7execute0s1_0Bb_
FNDA:0,_RNCNCNvNtNtNtCs4Q4w8IwqgUj_6icarus8commands3mcp9dashboard7execute0s2_0Bb_
FNDA:0,_RNCNCNvNtNtNtCs4Q4w8IwqgUj_6icarus8commands3mcp9dashboard7execute0s_0Bb_
FNDA:0,_RNCNvNtNtNtCs4Q4w8IwqgUj_6icarus8commands3mcp9dashboard7execute0B9_
FNDA:0,_RNvNtNtNtCs4Q4w8IwqgUj_6icarus8commands3mcp9dashboard7execute
FNF:6
FNH:0
DA:13,0
DA:14,0
DA:16,0
DA:18,0
DA:19,0
DA:21,0
DA:24,0
DA:25,0
DA:26,0
DA:27,0
DA:30,0
DA:31,0
DA:33,0
DA:34,0
DA:36,0
DA:37,0
DA:38,0
DA:39,0
DA:40,0
DA:43,0
DA:44,0
DA:45,0
DA:47,0
DA:48,0
DA:49,0
DA:50,0
DA:51,0
DA:52,0
DA:53,0
DA:55,0
DA:58,0
DA:59,0
DA:62,0
DA:63,0
DA:66,0
DA:67,0
DA:68,0
DA:69,0
DA:70,0
DA:74,0
DA:75,0
DA:76,0
DA:77,0
DA:78,0
DA:81,0
DA:82,0
DA:84,0
DA:87,0
DA:88,0
DA:89,0
DA:90,0
DA:91,0
DA:94,0
DA:96,0
DA:100,0
DA:102,0
DA:103,0
DA:104,0
DA:105,0
DA:106,0
DA:108,0
DA:111,0
DA:114,0
DA:115,0
DA:116,0
DA:118,0
DA:121,0
DA:124,0
DA:126,0
DA:127,0
DA:132,0
DA:133,0
DA:134,0
DA:138,0
DA:139,0
DA:140,0
DA:142,0
DA:143,0
DA:147,0
DA:149,0
DA:150,0
DA:151,0
DA:152,0
DA:153,0
DA:154,0
DA:155,0
DA:156,0
DA:157,0
DA:158,0
DA:159,0
DA:160,0
DA:161,0
DA:162,0
DA:163,0
DA:164,0
DA:165,0
DA:168,0
DA:169,0
DA:170,0
DA:171,0
DA:173,0
DA:174,0
BRF:0
BRH:0
LF:107
LH:0
end_of_record
SF:/Users/goshea/projects/icarus/icarus-sdk/cli/src/commands/mcp/list.rs
FN:94,_RNCNCNCNvNtNtNtCs4Q4w8IwqgUj_6icarus8commands3mcp4list7execute0s0_00Bd_
FN:34,_RNCNCNvNtNtNtCs4Q4w8IwqgUj_6icarus8commands3mcp4list7execute00Bb_
FN:91,_RNCNCNvNtNtNtCs4Q4w8IwqgUj_6icarus8commands3mcp4list7execute0s0_0Bb_
FN:105,_RNCNCNvNtNtNtCs4Q4w8IwqgUj_6icarus8commands3mcp4list7execute0s1_0Bb_
FN:113,_RNCNCNvNtNtNtCs4Q4w8IwqgUj_6icarus8commands3mcp4list7execute0s2_0Bb_
FN:115,_RNCNCNvNtNtNtCs4Q4w8IwqgUj_6icarus8commands3mcp4list7execute0s3_0Bb_
FN:132,_RNCNCNvNtNtNtCs4Q4w8IwqgUj_6icarus8commands3mcp4list7execute0s4_0Bb_
FN:13,_RNCNvNtNtNtCs4Q4w8IwqgUj_6icarus8commands3mcp4list7execute0B9_
FN:13,_RNvNtNtNtCs4Q4w8IwqgUj_6icarus8commands3mcp4list7execute
FNDA:0,_RNCNCNCNvNtNtNtCs4Q4w8IwqgUj_6icarus8commands3mcp4list7execute0s0_00Bd_
FNDA:0,_RNCNCNvNtNtNtCs4Q4w8IwqgUj_6icarus8commands3mcp4list7execute00Bb_
FNDA:0,_RNCNCNvNtNtNtCs4Q4w8IwqgUj_6icarus8commands3mcp4list7execute0s0_0Bb_
FNDA:0,_RNCNCNvNtNtNtCs4Q4w8IwqgUj_6icarus8commands3mcp4list7execute0s1_0Bb_
FNDA:0,_RNCNCNvNtNtNtCs4Q4w8IwqgUj_6icarus8commands3mcp4list7execute0s2_0Bb_
FNDA:0,_RNCNCNvNtNtNtCs4Q4w8IwqgUj_6icarus8commands3mcp4list7execute0s3_0Bb_
FNDA:0,_RNCNCNvNtNtNtCs4Q4w8IwqgUj_6icarus8commands3mcp4list7execute0s4_0Bb_
FNDA:0,_RNCNvNtNtNtCs4Q4w8IwqgUj_6icarus8commands3mcp4list7execute0B9_
FNDA:0,_RNvNtNtNtCs4Q4w8IwqgUj_6icarus8commands3mcp4list7execute
FNF:9
FNH:0
DA:13,0
DA:14,0
DA:16,0
DA:18,0
DA:19,0
DA:22,0
DA:23,0
DA:24,0
DA:25,0
DA:26,0
DA:28,0
DA:29,0
DA:33,0
DA:34,0
DA:36,0
DA:39,0
DA:42,0
DA:44,0
DA:45,0
DA:48,0
DA:50,0
DA:51,0
DA:53,0
DA:54,0
DA:55,0
DA:56,0
DA:57,0
DA:60,0
DA:61,0
DA:62,0
DA:64,0
DA:65,0
DA:66,0
DA:67,0
DA:68,0
DA:69,0
DA:71,0
DA:72,0
DA:73,0
DA:74,0
DA:75,0
DA:76,0
DA:77,0
DA:78,0
DA:81,0
DA:84,0
DA:85,0
DA:89,0
DA:90,0
DA:91,0
DA:92,0
DA:93,0
DA:94,0
DA:95,0
DA:96,0
DA:97,0
DA:98,0
DA:100,0
DA:103,0
DA:104,0
DA:105,0
DA:106,0
DA:108,0
DA:109,0
DA:111,0
DA:112,0
DA:113,0
DA:115,0
DA:117,0
DA:119,0
DA:120,0
DA:121,0
DA:124,0
DA:126,0
DA:128,0
DA:129,0
DA:130,0
DA:131,0
DA:132,0
DA:133,0
DA:134,0
DA:135,0
DA:136,0
DA:139,0
DA:140,0
BRF:0
BRH:0
LF:93
LH:0
end_of_record
SF:/Users/goshea/projects/icarus/icarus-sdk/cli/src/commands/mcp/remove.rs
FN:192,_RNCNCNvNtNtNtCs4Q4w8IwqgUj_6icarus8commands3mcp6remove24find_clients_with_server00Bb_
FN:217,_RNCNCNvNtNtNtCs4Q4w8IwqgUj_6icarus8commands3mcp6remove24find_clients_with_server0s_0Bb_
FN:56,_RNCNCNvNtNtNtCs4Q4w8IwqgUj_6icarus8commands3mcp6remove7execute0s_0Bb_
FN:230,_RNCNvNtNtNtCs4Q4w8IwqgUj_6icarus8commands3mcp6remove18remove_from_client0B9_
FN:143,_RNCNvNtNtNtCs4Q4w8IwqgUj_6icarus8commands3mcp6remove24find_clients_with_server0B9_
FN:19,_RNCNvNtNtNtCs4Q4w8IwqgUj_6icarus8commands3mcp6remove7execute0B9_
FN:225,_RNvNtNtNtCs4Q4w8IwqgUj_6icarus8commands3mcp6remove18remove_from_client
FN:139,_RNvNtNtNtCs4Q4w8IwqgUj_6icarus8commands3mcp6remove24find_clients_with_server
FN:14,_RNvNtNtNtCs4Q4w8IwqgUj_6icarus8commands3mcp6remove7execute
FNDA:0,_RNCNCNvNtNtNtCs4Q4w8IwqgUj_6icarus8commands3mcp6remove24find_clients_with_server00Bb_
FNDA:0,_RNCNCNvNtNtNtCs4Q4w8IwqgUj_6icarus8commands3mcp6remove24find_clients_with_server0s_0Bb_
FNDA:0,_RNCNCNvNtNtNtCs4Q4w8IwqgUj_6icarus8commands3mcp6remove7execute0s_0Bb_
FNDA:0,_RNCNvNtNtNtCs4Q4w8IwqgUj_6icarus8commands3mcp6remove18remove_from_client0B9_
FNDA:0,_RNCNvNtNtNtCs4Q4w8IwqgUj_6icarus8commands3mcp6remove24find_clients_with_server0B9_
FNDA:0,_RNCNvNtNtNtCs4Q4w8IwqgUj_6icarus8commands3mcp6remove7execute0B9_
FNDA:0,_RNvNtNtNtCs4Q4w8IwqgUj_6icarus8commands3mcp6remove18remove_from_client
FNDA:0,_RNvNtNtNtCs4Q4w8IwqgUj_6icarus8commands3mcp6remove24find_clients_with_server
FNDA:0,_RNvNtNtNtCs4Q4w8IwqgUj_6icarus8commands3mcp6remove7execute
FNF:9
FNH:0
DA:14,0
DA:15,0
DA:16,0
DA:17,0
DA:18,0
DA:19,0
DA:20,0
DA:22,0
DA:23,0
DA:26,0
DA:27,0
DA:28,0
DA:29,0
DA:31,0
DA:32,0
DA:33,0
DA:34,0
DA:37,0
DA:39,0
DA:40,0
DA:42,0
DA:43,0
DA:44,0
DA:45,0
DA:46,0
DA:47,0
DA:49,0
DA:50,0
DA:54,0
DA:55,0
DA:56,0
DA:57,0
DA:58,0
DA:59,0
DA:60,0
DA:61,0
DA:62,0
DA:63,0
DA:64,0
DA:66,0
DA:69,0
DA:72,0
DA:73,0
DA:74,0
DA:75,0
DA:78,0
DA:79,0
DA:80,0
DA:81,0
DA:82,0
DA:84,0
DA:85,0
DA:86,0
DA:87,0
DA:89,0
DA:90,0
DA:91,0
DA:92,0
DA:93,0
DA:94,0
DA:95,0
DA:99,0
DA:100,0
DA:101,0
DA:103,0
DA:104,0
DA:106,0
DA:107,0
DA:108,0
DA:109,0
DA:110,0
DA:111,0
DA:112,0
DA:113,0
DA:114,0
DA:115,0
DA:119,0
DA:120,0
DA:121,0
DA:122,0
DA:123,0
DA:124,0
DA:125,0
DA:126,0
DA:127,0
DA:128,0
DA:129,0
DA:130,0
DA:131,0
DA:132,0
DA:133,0
DA:136,0
DA:137,0
DA:139,0
DA:140,0
DA:141,0
DA:142,0
DA:143,0
DA:144,0
DA:147,0
DA:148,0
DA:149,0
DA:150,0
DA:152,0
DA:153,0
DA:154,0
DA:155,0
DA:156,0
DA:159,0
DA:160,0
DA:161,0
DA:164,0
DA:166,0
DA:167,0
DA:168,0
DA:169,0
DA:170,0
DA:171,0
DA:172,0
DA:174,0
DA:175,0
DA:176,0
DA:177,0
DA:178,0
DA:180,0
DA:181,0
DA:183,0
DA:187,0
DA:188,0
DA:190,0
DA:191,0
DA:192,0
DA:193,0
DA:195,0
DA:198,0
DA:199,0
DA:200,0
DA:201,0
DA:202,0
DA:203,0
DA:205,0
DA:207,0
DA:210,0
DA:211,0
DA:212,0
DA:213,0
DA:215,0
DA:216,0
DA:217,0
DA:218,0
DA:220,0
DA:223,0
DA:225,0
DA:226,0
DA:227,0
DA:228,0
DA:229,0
DA:230,0
DA:232,0
DA:233,0
DA:235,0
DA:236,0
DA:239,0
DA:244,0
DA:245,0
DA:246,0
DA:247,0
DA:250,0
DA:251,0
DA:252,0
DA:254,0
DA:255,0
BRF:0
BRH:0
LF:178
LH:0
end_of_record
SF:/Users/goshea/projects/icarus/icarus-sdk/cli/src/commands/mcp/start.rs
FN:75,_RNCNvNtNtNtCs4Q4w8IwqgUj_6icarus8commands3mcp5start17start_daemon_mode0B9_
FN:43,_RNCNvNtNtNtCs4Q4w8IwqgUj_6icarus8commands3mcp5start20run_mcp_server_stdio0B9_
FN:65,_RNCNvNtNtNtCs4Q4w8IwqgUj_6icarus8commands3mcp5start21start_foreground_mode0B9_
FN:9,_RNCNvNtNtNtCs4Q4w8IwqgUj_6icarus8commands3mcp5start7execute0B9_
FN:75,_RNvNtNtNtCs4Q4w8IwqgUj_6icarus8commands3mcp5start17start_daemon_mode
FN:43,_RNvNtNtNtCs4Q4w8IwqgUj_6icarus8commands3mcp5start20run_mcp_server_stdio
FN:65,_RNvNtNtNtCs4Q4w8IwqgUj_6icarus8commands3mcp5start21start_foreground_mode
FN:9,_RNvNtNtNtCs4Q4w8IwqgUj_6icarus8commands3mcp5start7execute
FNDA:0,_RNCNvNtNtNtCs4Q4w8IwqgUj_6icarus8commands3mcp5start17start_daemon_mode0B9_
FNDA:0,_RNCNvNtNtNtCs4Q4w8IwqgUj_6icarus8commands3mcp5start20run_mcp_server_stdio0B9_
FNDA:0,_RNCNvNtNtNtCs4Q4w8IwqgUj_6icarus8commands3mcp5start21start_foreground_mode0B9_
FNDA:0,_RNCNvNtNtNtCs4Q4w8IwqgUj_6icarus8commands3mcp5start7execute0B9_
FNDA:0,_RNvNtNtNtCs4Q4w8IwqgUj_6icarus8commands3mcp5start17start_daemon_mode
FNDA:0,_RNvNtNtNtCs4Q4w8IwqgUj_6icarus8commands3mcp5start20run_mcp_server_stdio
FNDA:0,_RNvNtNtNtCs4Q4w8IwqgUj_6icarus8commands3mcp5start21start_foreground_mode
FNDA:0,_RNvNtNtNtCs4Q4w8IwqgUj_6icarus8commands3mcp5start7execute
FNF:8
FNH:0
DA:9,0
DA:11,0
DA:12,0
DA:16,0
DA:17,0
DA:19,0
DA:21,0
DA:22,0
DA:24,0
DA:27,0
DA:28,0
DA:30,0
DA:31,0
DA:32,0
DA:33,0
DA:35,0
DA:36,0
DA:38,0
DA:40,0
DA:43,0
DA:47,0
DA:50,0
DA:51,0
DA:52,0
DA:55,0
DA:56,0
DA:57,0
DA:58,0
DA:61,0
DA:62,0
DA:65,0
DA:66,0
DA:67,0
DA:68,0
DA:71,0
DA:72,0
DA:75,0
DA:76,0
DA:80,0
DA:82,0
DA:83,0
DA:84,0
DA:85,0
DA:89,0
DA:90,0
BRF:0
BRH:0
LF:49
LH:0
end_of_record
SF:/Users/goshea/projects/icarus/icarus-sdk/cli/src/commands/mcp/status.rs
FN:80,_RNCNCNvNtNtNtCs4Q4w8IwqgUj_6icarus8commands3mcp6status18find_mcp_instancess_00Bb_
FN:81,_RNCNCNvNtNtNtCs4Q4w8IwqgUj_6icarus8commands3mcp6status18find_mcp_instancess_0s_0Bb_
FN:73,_RNCNvNtNtNtCs4Q4w8IwqgUj_6icarus8commands3mcp6status18find_mcp_instances0B9_
FN:77,_RNCNvNtNtNtCs4Q4w8IwqgUj_6icarus8commands3mcp6status18find_mcp_instancess_0B9_
FN:16,_RNCNvNtNtNtCs4Q4w8IwqgUj_6icarus8commands3mcp6status7execute0B9_
FN:61,_RNvNtNtNtCs4Q4w8IwqgUj_6icarus8commands3mcp6status18find_mcp_instances
FN:103,_RNvNtNtNtCs4Q4w8IwqgUj_6icarus8commands3mcp6status19extract_canister_id
FN:16,_RNvNtNtNtCs4Q4w8IwqgUj_6icarus8commands3mcp6status7execute
FNDA:0,_RNCNCNvNtNtNtCs4Q4w8IwqgUj_6icarus8commands3mcp6status18find_mcp_instancess_00Bb_
FNDA:0,_RNCNCNvNtNtNtCs4Q4w8IwqgUj_6icarus8commands3mcp6status18find_mcp_instancess_0s_0Bb_
FNDA:0,_RNCNvNtNtNtCs4Q4w8IwqgUj_6icarus8commands3mcp6status18find_mcp_instances0B9_
FNDA:0,_RNCNvNtNtNtCs4Q4w8IwqgUj_6icarus8commands3mcp6status18find_mcp_instancess_0B9_
FNDA:0,_RNCNvNtNtNtCs4Q4w8IwqgUj_6icarus8commands3mcp6status7execute0B9_
FNDA:0,_RNvNtNtNtCs4Q4w8IwqgUj_6icarus8commands3mcp6status18find_mcp_instances
FNDA:0,_RNvNtNtNtCs4Q4w8IwqgUj_6icarus8commands3mcp6status19extract_canister_id
FNDA:0,_RNvNtNtNtCs4Q4w8IwqgUj_6icarus8commands3mcp6status7execute
FNF:8
FNH:0
DA:16,0
DA:17,0
DA:19,0
DA:21,0
DA:22,0
DA:23,0
DA:24,0
DA:25,0
DA:27,0
DA:28,0
DA:30,0
DA:31,0
DA:32,0
DA:33,0
DA:36,0
DA:37,0
DA:38,0
DA:40,0
DA:41,0
DA:42,0
DA:43,0
DA:44,0
DA:48,0
DA:49,0
DA:52,0
DA:53,0
DA:54,0
DA:55,0
DA:56,0
DA:58,0
DA:59,0
DA:61,0
DA:62,0
DA:63,0
DA:65,0
DA:67,0
DA:68,0
DA:71,0
DA:72,0
DA:73,0
DA:74,0
DA:77,0
DA:78,0
DA:79,0
DA:80,0
DA:81,0
DA:82,0
DA:84,0
DA:85,0
DA:86,0
DA:87,0
DA:88,0
DA:89,0
DA:90,0
DA:91,0
DA:92,0
DA:93,0
DA:94,0
DA:95,0
DA:96,0
DA:97,0
DA:100,0
DA:101,0
DA:103,0
DA:105,0
DA:106,0
DA:107,0
DA:108,0
DA:110,0
DA:111,0
BRF:0
BRH:0
LF:75
LH:0
end_of_record
SF:/Users/goshea/projects/icarus/icarus-sdk/cli/src/commands/mcp/stop.rs
FN:38,_RNCNCNCNvNtNtNtCs4Q4w8IwqgUj_6icarus8commands3mcp4stop20stop_all_mcp_servers0s_00Bd_
FN:39,_RNCNCNCNvNtNtNtCs4Q4w8IwqgUj_6icarus8commands3mcp4stop20stop_all_mcp_servers0s_0s_0Bd_
FN:85,_RNCNCNCNvNtNtNtCs4Q4w8IwqgUj_6icarus8commands3mcp4stop28stop_mcp_server_for_canister0s_00Bd_
FN:86,_RNCNCNCNvNtNtNtCs4Q4w8IwqgUj_6icarus8commands3mcp4stop28stop_mcp_server_for_canister0s_0s_0Bd_
FN:31,_RNCNCNvNtNtNtCs4Q4w8IwqgUj_6icarus8commands3mcp4stop20stop_all_mcp_servers00Bb_
FN:35,_RNCNCNvNtNtNtCs4Q4w8IwqgUj_6icarus8commands3mcp4stop20stop_all_mcp_servers0s_0Bb_
FN:78,_RNCNCNvNtNtNtCs4Q4w8IwqgUj_6icarus8commands3mcp4stop28stop_mcp_server_for_canister00Bb_
FN:87,_RNCNCNvNtNtNtCs4Q4w8IwqgUj_6icarus8commands3mcp4stop28stop_mcp_server_for_canister0s0_0Bb_
FN:82,_RNCNCNvNtNtNtCs4Q4w8IwqgUj_6icarus8commands3mcp4stop28stop_mcp_server_for_canister0s_0Bb_
FN:17,_RNCNvNtNtNtCs4Q4w8IwqgUj_6icarus8commands3mcp4stop20stop_all_mcp_servers0B9_
FN:61,_RNCNvNtNtNtCs4Q4w8IwqgUj_6icarus8commands3mcp4stop28stop_mcp_server_for_canister0B9_
FN:6,_RNCNvNtNtNtCs4Q4w8IwqgUj_6icarus8commands3mcp4stop7execute0B9_
FN:118,_RNvNtNtNtCs4Q4w8IwqgUj_6icarus8commands3mcp4stop12stop_process
FN:17,_RNvNtNtNtCs4Q4w8IwqgUj_6icarus8commands3mcp4stop20stop_all_mcp_servers
FN:61,_RNvNtNtNtCs4Q4w8IwqgUj_6icarus8commands3mcp4stop28stop_mcp_server_for_canister
FN:6,_RNvNtNtNtCs4Q4w8IwqgUj_6icarus8commands3mcp4stop7execute
FNDA:0,_RNCNCNCNvNtNtNtCs4Q4w8IwqgUj_6icarus8commands3mcp4stop20stop_all_mcp_servers0s_00Bd_
FNDA:0,_RNCNCNCNvNtNtNtCs4Q4w8IwqgUj_6icarus8commands3mcp4stop20stop_all_mcp_servers0s_0s_0Bd_
FNDA:0,_RNCNCNCNvNtNtNtCs4Q4w8IwqgUj_6icarus8commands3mcp4stop28stop_mcp_server_for_canister0s_00Bd_
FNDA:0,_RNCNCNCNvNtNtNtCs4Q4w8IwqgUj_6icarus8commands3mcp4stop28stop_mcp_server_for_canister0s_0s_0Bd_
FNDA:0,_RNCNCNvNtNtNtCs4Q4w8IwqgUj_6icarus8commands3mcp4stop20stop_all_mcp_servers00Bb_
FNDA:0,_RNCNCNvNtNtNtCs4Q4w8IwqgUj_6icarus8commands3mcp4stop20stop_all_mcp_servers0s_0Bb_
FNDA:0,_RNCNCNvNtNtNtCs4Q4w8IwqgUj_6icarus8commands3mcp4stop28stop_mcp_server_for_canister00Bb_
FNDA:0,_RNCNCNvNtNtNtCs4Q4w8IwqgUj_6icarus8commands3mcp4stop28stop_mcp_server_for_canister0s0_0Bb_
FNDA:0,_RNCNCNvNtNtNtCs4Q4w8IwqgUj_6icarus8commands3mcp4stop28stop_mcp_server_for_canister0s_0Bb_
FNDA:0,_RNCNvNtNtNtCs4Q4w8IwqgUj_6icarus8commands3mcp4stop20stop_all_mcp_servers0B9_
FNDA:0,_RNCNvNtNtNtCs4Q4w8IwqgUj_6icarus8commands3mcp4stop28stop_mcp_server_for_canister0B9_
FNDA:0,_RNCNvNtNtNtCs4Q4w8IwqgUj_6icarus8commands3mcp4stop7execute0B9_
FNDA:0,_RNvNtNtNtCs4Q4w8IwqgUj_6icarus8commands3mcp4stop12stop_process
FNDA:0,_RNvNtNtNtCs4Q4w8IwqgUj_6icarus8commands3mcp4stop20stop_all_mcp_servers
FNDA:0,_RNvNtNtNtCs4Q4w8IwqgUj_6icarus8commands3mcp4stop28stop_mcp_server_for_canister
FNDA:0,_RNvNtNtNtCs4Q4w8IwqgUj_6icarus8commands3mcp4stop7execute
FNF:16
FNH:0
DA:6,0
DA:7,0
DA:8,0
DA:9,0
DA:10,0
DA:12,0
DA:13,0
DA:15,0
DA:17,0
DA:18,0
DA:20,0
DA:21,0
DA:23,0
DA:25,0
DA:26,0
DA:29,0
DA:30,0
DA:31,0
DA:32,0
DA:35,0
DA:36,0
DA:37,0
DA:38,0
DA:39,0
DA:40,0
DA:42,0
DA:43,0
DA:44,0
DA:45,0
DA:46,0
DA:47,0
DA:48,0
DA:49,0
DA:52,0
DA:53,0
DA:54,0
DA:55,0
DA:56,0
DA:58,0
DA:59,0
DA:61,0
DA:62,0
DA:63,0
DA:64,0
DA:65,0
DA:67,0
DA:68,0
DA:70,0
DA:72,0
DA:73,0
DA:76,0
DA:77,0
DA:78,0
DA:79,0
DA:82,0
DA:83,0
DA:84,0
DA:85,0
DA:86,0
DA:87,0
DA:89,0
DA:90,0
DA:91,0
DA:92,0
DA:93,0
DA:94,0
DA:95,0
DA:96,0
DA:97,0
DA:98,0
DA:99,0
DA:100,0
DA:103,0
DA:104,0
DA:105,0
DA:106,0
DA:107,0
DA:108,0
DA:109,0
DA:110,0
DA:111,0
DA:112,0
DA:113,0
DA:115,0
DA:116,0
DA:118,0
DA:119,0
DA:121,0
DA:122,0
DA:125,0
DA:127,0
DA:130,0
DA:132,0
DA:133,0
DA:134,0
DA:137,0
DA:138,0
DA:139,0
DA:140,0
DA:141,0
DA:142,0
DA:143,0
DA:145,0
DA:146,0
DA:148,0
DA:149,0
DA:150,0
DA:151,0
DA:152,0
DA:154,0
BRF:0
BRH:0
LF:123
LH:0
end_of_record
SF:/Users/goshea/projects/icarus/icarus-sdk/cli/src/commands/new.rs
FN:347,_RNCNCNvNtNtCs4Q4w8IwqgUj_6icarus8commands3new25create_cargo_toml_content00B9_
FN:102,_RNCNvNtNtCs4Q4w8IwqgUj_6icarus8commands3new21is_valid_project_name0B7_
FN:346,_RNCNvNtNtCs4Q4w8IwqgUj_6icarus8commands3new25create_cargo_toml_content0B7_
FN:14,_RNCNvNtNtCs4Q4w8IwqgUj_6icarus8commands3new7execute0B7_
FN:474,_RNvNtNtCs4Q4w8IwqgUj_6icarus8commands3new13create_readme
FN:421,_RNvNtNtCs4Q4w8IwqgUj_6icarus8commands3new15create_dfx_json
FN:274,_RNvNtNtCs4Q4w8IwqgUj_6icarus8commands3new17create_cargo_toml
FN:141,_RNvNtNtCs4Q4w8IwqgUj_6icarus8commands3new19create_lib_template
FN:100,_RNvNtNtCs4Q4w8IwqgUj_6icarus8commands3new21is_valid_project_name
FN:287,_RNvNtNtCs4Q4w8IwqgUj_6icarus8commands3new22get_workspace_versions
FN:106,_RNvNtNtCs4Q4w8IwqgUj_6icarus8commands3new24create_project_structure
FN:339,_RNvNtNtCs4Q4w8IwqgUj_6icarus8commands3new25create_cargo_toml_content
FN:451,_RNvNtNtCs4Q4w8IwqgUj_6icarus8commands3new26create_minimal_candid_file
FN:9,_RNvNtNtCs4Q4w8IwqgUj_6icarus8commands3new7execute
FNDA:0,_RNCNCNvNtNtCs4Q4w8IwqgUj_6icarus8commands3new25create_cargo_toml_content00B9_
FNDA:0,_RNCNvNtNtCs4Q4w8IwqgUj_6icarus8commands3new21is_valid_project_name0B7_
FNDA:0,_RNCNvNtNtCs4Q4w8IwqgUj_6icarus8commands3new25create_cargo_toml_content0B7_
FNDA:0,_RNCNvNtNtCs4Q4w8IwqgUj_6icarus8commands3new7execute0B7_
FNDA:0,_RNvNtNtCs4Q4w8IwqgUj_6icarus8commands3new13create_readme
FNDA:0,_RNvNtNtCs4Q4w8IwqgUj_6icarus8commands3new15create_dfx_json
FNDA:0,_RNvNtNtCs4Q4w8IwqgUj_6icarus8commands3new17create_cargo_toml
FNDA:0,_RNvNtNtCs4Q4w8IwqgUj_6icarus8commands3new19create_lib_template
FNDA:0,_RNvNtNtCs4Q4w8IwqgUj_6icarus8commands3new21is_valid_project_name
FNDA:0,_RNvNtNtCs4Q4w8IwqgUj_6icarus8commands3new22get_workspace_versions
FNDA:0,_RNvNtNtCs4Q4w8IwqgUj_6icarus8commands3new24create_project_structure
FNDA:0,_RNvNtNtCs4Q4w8IwqgUj_6icarus8commands3new25create_cargo_toml_content
FNDA:0,_RNvNtNtCs4Q4w8IwqgUj_6icarus8commands3new26create_minimal_candid_file
FNDA:0,_RNvNtNtCs4Q4w8IwqgUj_6icarus8commands3new7execute
FNF:14
FNH:0
DA:9,0
DA:10,0
DA:11,0
DA:12,0
DA:13,0
DA:14,0
DA:16,0
DA:17,0
DA:18,0
DA:21,0
DA:22,0
DA:24,0
DA:28,0
DA:29,0
DA:30,0
DA:32,0
DA:34,0
DA:35,0
DA:36,0
DA:39,0
DA:42,0
DA:45,0
DA:46,0
DA:47,0
DA:48,0
DA:49,0
DA:51,0
DA:52,0
DA:53,0
DA:54,0
DA:55,0
DA:56,0
DA:57,0
DA:58,0
DA:61,0
DA:62,0
DA:63,0
DA:64,0
DA:65,0
DA:68,0
DA:69,0
DA:70,0
DA:71,0
DA:72,0
DA:73,0
DA:74,0
DA:75,0
DA:76,0
DA:77,0
DA:78,0
DA:79,0
DA:80,0
DA:81,0
DA:82,0
DA:83,0
DA:84,0
DA:85,0
DA:86,0
DA:87,0
DA:88,0
DA:90,0
DA:92,0
DA:93,0
DA:94,0
DA:95,0
DA:97,0
DA:98,0
DA:100,0
DA:101,0
DA:102,0
DA:103,0
DA:104,0
DA:106,0
DA:107,0
DA:108,0
DA:109,0
DA:110,0
DA:111,0
DA:113,0
DA:114,0
DA:117,0
DA:118,0
DA:119,0
DA:120,0
DA:123,0
DA:124,0
DA:127,0
DA:130,0
DA:133,0
DA:136,0
DA:138,0
DA:139,0
DA:141,0
DA:143,0
DA:144,0
DA:145,0
DA:146,0
DA:147,0
DA:148,0
DA:149,0
DA:150,0
DA:151,0
DA:152,0
DA:153,0
DA:154,0
DA:155,0
DA:156,0
DA:157,0
DA:158,0
DA:159,0
DA:160,0
DA:161,0
DA:162,0
DA:163,0
DA:164,0
DA:165,0
DA:166,0
DA:167,0
DA:168,0
DA:169,0
DA:170,0
DA:171,0
DA:172,0
DA:173,0
DA:174,0
DA:175,0
DA:176,0
DA:177,0
DA:178,0
DA:179,0
DA:180,0
DA:181,0
DA:182,0
DA:183,0
DA:184,0
DA:185,0
DA:186,0
DA:187,0
DA:188,0
DA:189,0
DA:190,0
DA:191,0
DA:192,0
DA:193,0
DA:194,0
DA:195,0
DA:196,0
DA:197,0
DA:198,0
DA:199,0
DA:200,0
DA:201,0
DA:202,0
DA:203,0
DA:204,0
DA:205,0
DA:206,0
DA:207,0
DA:208,0
DA:209,0
DA:210,0
DA:211,0
DA:212,0
DA:213,0
DA:214,0
DA:215,0
DA:216,0
DA:217,0
DA:218,0
DA:219,0
DA:220,0
DA:221,0
DA:222,0
DA:223,0
DA:224,0
DA:225,0
DA:226,0
DA:227,0
DA:228,0
DA:229,0
DA:230,0
DA:231,0
DA:232,0
DA:233,0
DA:234,0
DA:235,0
DA:236,0
DA:237,0
DA:238,0
DA:239,0
DA:240,0
DA:241,0
DA:242,0
DA:243,0
DA:244,0
DA:245,0
DA:246,0
DA:247,0
DA:248,0
DA:249,0
DA:250,0
DA:251,0
DA:252,0
DA:253,0
DA:254,0
DA:255,0
DA:256,0
DA:257,0
DA:258,0
DA:259,0
DA:260,0
DA:261,0
DA:262,0
DA:263,0
DA:264,0
DA:265,0
DA:266,0
DA:267,0
DA:268,0
DA:270,0
DA:271,0
DA:272,0
DA:274,0
DA:275,0
DA:276,0
DA:277,0
DA:278,0
DA:279,0
DA:281,0
DA:283,0
DA:284,0
DA:285,0
DA:287,0
DA:289,0
DA:290,0
DA:291,0
DA:292,0
DA:293,0
DA:294,0
DA:296,0
DA:297,0
DA:298,0
DA:299,0
DA:300,0
DA:301,0
DA:303,0
DA:304,0
DA:305,0
DA:306,0
DA:307,0
DA:308,0
DA:309,0
DA:311,0
DA:314,0
DA:316,0
DA:318,0
DA:319,0
DA:320,0
DA:321,0
DA:322,0
DA:323,0
DA:327,0
DA:328,0
DA:329,0
DA:330,0
DA:331,0
DA:332,0
DA:333,0
DA:334,0
DA:335,0
DA:336,0
DA:337,0
DA:339,0
DA:340,0
DA:341,0
DA:342,0
DA:343,0
DA:344,0
DA:346,0
DA:347,0
DA:348,0
DA:349,0
DA:350,0
DA:351,0
DA:352,0
DA:353,0
DA:354,0
DA:355,0
DA:356,0
DA:357,0
DA:358,0
DA:360,0
DA:361,0
DA:362,0
DA:363,0
DA:364,0
DA:365,0
DA:366,0
DA:367,0
DA:368,0
DA:369,0
DA:370,0
DA:371,0
DA:374,0
DA:377,0
DA:378,0
DA:380,0
DA:381,0
DA:382,0
DA:387,0
DA:388,0
DA:389,0
DA:390,0
DA:391,0
DA:392,0
DA:393,0
DA:394,0
DA:395,0
DA:396,0
DA:397,0
DA:398,0
DA:399,0
DA:400,0
DA:401,0
DA:402,0
DA:403,0
DA:404,0
DA:405,0
DA:406,0
DA:407,0
DA:408,0
DA:409,0
DA:410,0
DA:411,0
DA:412,0
DA:413,0
DA:414,0
DA:415,0
DA:416,0
DA:417,0
DA:418,0
DA:419,0
DA:421,0
DA:422,0
DA:423,0
DA:424,0
DA:425,0
DA:426,0
DA:427,0
DA:428,0
DA:429,0
DA:430,0
DA:431,0
DA:432,0
DA:433,0
DA:434,0
DA:435,0
DA:436,0
DA:437,0
DA:438,0
DA:439,0
DA:440,0
DA:441,0
DA:442,0
DA:443,0
DA:444,0
DA:447,0
DA:448,0
DA:449,0
DA:451,0
DA:454,0
DA:455,0
DA:456,0
DA:457,0
DA:458,0
DA:459,0
DA:460,0
DA:461,0
DA:462,0
DA:463,0
DA:464,0
DA:465,0
DA:466,0
DA:467,0
DA:469,0
DA:470,0
DA:471,0
DA:472,0
DA:474,0
DA:475,0
DA:476,0
DA:477,0
DA:478,0
DA:479,0
DA:480,0
DA:481,0
DA:482,0
DA:483,0
DA:484,0
DA:485,0
DA:486,0
DA:487,0
DA:488,0
DA:489,0
DA:490,0
DA:491,0
DA:492,0
DA:493,0
DA:494,0
DA:495,0
DA:496,0
DA:497,0
DA:498,0
DA:499,0
DA:500,0
DA:501,0
DA:502,0
DA:503,0
DA:504,0
DA:505,0
DA:506,0
DA:507,0
DA:508,0
DA:509,0
DA:510,0
DA:511,0
DA:512,0
DA:513,0
DA:514,0
DA:515,0
DA:516,0
DA:517,0
DA:518,0
DA:519,0
DA:520,0
DA:521,0
DA:522,0
DA:523,0
DA:524,0
DA:525,0
DA:526,0
DA:527,0
DA:528,0
DA:529,0
DA:530,0
DA:531,0
DA:532,0
DA:533,0
DA:534,0
DA:535,0
DA:538,0
DA:539,0
DA:540,0
BRF:0
BRH:0
LF:457
LH:0
end_of_record
SF:/Users/goshea/projects/icarus/icarus-sdk/cli/src/commands/profile/analyze.rs
FN:28,_RNCNCNvNtNtNtCs4Q4w8IwqgUj_6icarus8commands7profile7analyze7execute00Bb_
FN:82,_RNCNvNtNtNtCs4Q4w8IwqgUj_6icarus8commands7profile7analyze14find_wasm_file0B9_
FN:10,_RNCNvNtNtNtCs4Q4w8IwqgUj_6icarus8commands7profile7analyze7execute0B9_
FN:401,_RNvNtNtNtCs4Q4w8IwqgUj_6icarus8commands7profile7analyze13decode_leb128
FN:50,_RNvNtNtNtCs4Q4w8IwqgUj_6icarus8commands7profile7analyze14find_wasm_file
FN:345,_RNvNtNtNtCs4Q4w8IwqgUj_6icarus8commands7profile7analyze19parse_wasm_sections
FN:172,_RNvNtNtNtCs4Q4w8IwqgUj_6icarus8commands7profile7analyze22analyze_memory_section
FN:97,_RNvNtNtNtCs4Q4w8IwqgUj_6icarus8commands7profile7analyze24analyze_basic_properties
FN:227,_RNvNtNtNtCs4Q4w8IwqgUj_6icarus8commands7profile7analyze27estimate_optimization_level
FN:201,_RNvNtNtNtCs4Q4w8IwqgUj_6icarus8commands7profile7analyze28analyze_instruction_patterns
FN:242,_RNvNtNtNtCs4Q4w8IwqgUj_6icarus8commands7profile7analyze28analyze_performance_patterns
FN:139,_RNvNtNtNtCs4Q4w8IwqgUj_6icarus8commands7profile7analyze30analyze_memory_characteristics
FN:279,_RNvNtNtNtCs4Q4w8IwqgUj_6icarus8commands7profile7analyze36provide_optimization_recommendations
FN:10,_RNvNtNtNtCs4Q4w8IwqgUj_6icarus8commands7profile7analyze7execute
FNDA:0,_RNCNCNvNtNtNtCs4Q4w8IwqgUj_6icarus8commands7profile7analyze7execute00Bb_
FNDA:0,_RNCNvNtNtNtCs4Q4w8IwqgUj_6icarus8commands7profile7analyze14find_wasm_file0B9_
FNDA:0,_RNCNvNtNtNtCs4Q4w8IwqgUj_6icarus8commands7profile7analyze7execute0B9_
FNDA:0,_RNvNtNtNtCs4Q4w8IwqgUj_6icarus8commands7profile7analyze13decode_leb128
FNDA:0,_RNvNtNtNtCs4Q4w8IwqgUj_6icarus8commands7profile7analyze14find_wasm_file
FNDA:0,_RNvNtNtNtCs4Q4w8IwqgUj_6icarus8commands7profile7analyze19parse_wasm_sections
FNDA:0,_RNvNtNtNtCs4Q4w8IwqgUj_6icarus8commands7profile7analyze22analyze_memory_section
FNDA:0,_RNvNtNtNtCs4Q4w8IwqgUj_6icarus8commands7profile7analyze24analyze_basic_properties
FNDA:0,_RNvNtNtNtCs4Q4w8IwqgUj_6icarus8commands7profile7analyze27estimate_optimization_level
FNDA:0,_RNvNtNtNtCs4Q4w8IwqgUj_6icarus8commands7profile7analyze28analyze_instruction_patterns
FNDA:0,_RNvNtNtNtCs4Q4w8IwqgUj_6icarus8commands7profile7analyze28analyze_performance_patterns
FNDA:0,_RNvNtNtNtCs4Q4w8IwqgUj_6icarus8commands7profile7analyze30analyze_memory_characteristics
FNDA:0,_RNvNtNtNtCs4Q4w8IwqgUj_6icarus8commands7profile7analyze36provide_optimization_recommendations
FNDA:0,_RNvNtNtNtCs4Q4w8IwqgUj_6icarus8commands7profile7analyze7execute
FNF:14
FNH:0
DA:10,0
DA:11,0
DA:12,0
DA:13,0
DA:14,0
DA:15,0
DA:19,0
DA:20,0
DA:21,0
DA:22,0
DA:24,0
DA:27,0
DA:28,0
DA:30,0
DA:31,0
DA:33,0
DA:34,0
DA:35,0
DA:36,0
DA:38,0
DA:39,0
DA:40,0
DA:41,0
DA:43,0
DA:44,0
DA:46,0
DA:47,0
DA:50,0
DA:51,0
DA:52,0
DA:53,0
DA:54,0
DA:55,0
DA:56,0
DA:57,0
DA:60,0
DA:61,0
DA:62,0
DA:63,0
DA:64,0
DA:65,0
DA:66,0
DA:67,0
DA:68,0
DA:69,0
DA:70,0
DA:71,0
DA:72,0
DA:76,0
DA:77,0
DA:78,0
DA:79,0
DA:80,0
DA:81,0
DA:82,0
DA:83,0
DA:84,0
DA:85,0
DA:87,0
DA:88,0
DA:91,0
DA:92,0
DA:93,0
DA:94,0
DA:97,0
DA:98,0
DA:99,0
DA:100,0
DA:101,0
DA:105,0
DA:106,0
DA:107,0
DA:108,0
DA:109,0
DA:110,0
DA:111,0
DA:112,0
DA:113,0
DA:114,0
DA:115,0
DA:116,0
DA:119,0
DA:120,0
DA:121,0
DA:123,0
DA:124,0
DA:125,0
DA:126,0
DA:127,0
DA:128,0
DA:129,0
DA:130,0
DA:133,0
DA:135,0
DA:136,0
DA:139,0
DA:141,0
DA:143,0
DA:144,0
DA:145,0
DA:146,0
DA:147,0
DA:148,0
DA:149,0
DA:150,0
DA:151,0
DA:152,0
DA:153,0
DA:154,0
DA:155,0
DA:156,0
DA:157,0
DA:158,0
DA:163,0
DA:164,0
DA:165,0
DA:166,0
DA:168,0
DA:169,0
DA:172,0
DA:173,0
DA:174,0
DA:175,0
DA:178,0
DA:179,0
DA:180,0
DA:184,0
DA:185,0
DA:186,0
DA:188,0
DA:190,0
DA:191,0
DA:192,0
DA:193,0
DA:194,0
DA:195,0
DA:196,0
DA:197,0
DA:198,0
DA:201,0
DA:202,0
DA:204,0
DA:205,0
DA:206,0
DA:207,0
DA:208,0
DA:209,0
DA:210,0
DA:211,0
DA:212,0
DA:213,0
DA:214,0
DA:215,0
DA:216,0
DA:217,0
DA:218,0
DA:219,0
DA:220,0
DA:223,0
DA:224,0
DA:227,0
DA:228,0
DA:229,0
DA:230,0
DA:231,0
DA:232,0
DA:235,0
DA:236,0
DA:237,0
DA:239,0
DA:242,0
DA:244,0
DA:245,0
DA:246,0
DA:249,0
DA:250,0
DA:251,0
DA:252,0
DA:253,0
DA:254,0
DA:258,0
DA:259,0
DA:260,0
DA:261,0
DA:262,0
DA:263,0
DA:264,0
DA:265,0
DA:266,0
DA:267,0
DA:268,0
DA:269,0
DA:270,0
DA:271,0
DA:272,0
DA:273,0
DA:274,0
DA:275,0
DA:276,0
DA:279,0
DA:280,0
DA:283,0
DA:284,0
DA:285,0
DA:286,0
DA:287,0
DA:288,0
DA:289,0
DA:290,0
DA:291,0
DA:292,0
DA:293,0
DA:294,0
DA:297,0
DA:298,0
DA:299,0
DA:300,0
DA:301,0
DA:302,0
DA:305,0
DA:306,0
DA:307,0
DA:308,0
DA:309,0
DA:312,0
DA:313,0
DA:314,0
DA:315,0
DA:317,0
DA:318,0
DA:345,0
DA:346,0
DA:348,0
DA:349,0
DA:350,0
DA:353,0
DA:355,0
DA:356,0
DA:357,0
DA:358,0
DA:360,0
DA:361,0
DA:362,0
DA:363,0
DA:364,0
DA:365,0
DA:366,0
DA:367,0
DA:368,0
DA:369,0
DA:370,0
DA:371,0
DA:372,0
DA:373,0
DA:374,0
DA:375,0
DA:378,0
DA:381,0
DA:382,0
DA:384,0
DA:385,0
DA:386,0
DA:388,0
DA:389,0
DA:390,0
DA:391,0
DA:392,0
DA:394,0
DA:397,0
DA:398,0
DA:401,0
DA:402,0
DA:403,0
DA:404,0
DA:406,0
DA:408,0
DA:409,0
DA:411,0
DA:412,0
DA:413,0
DA:415,0
DA:416,0
DA:417,0
DA:418,0
DA:421,0
DA:422,0
BRF:0
BRH:0
LF:289
LH:0
end_of_record
SF:/Users/goshea/projects/icarus/icarus-sdk/cli/src/commands/profile/bench.rs
FN:47,_RNCNCNvNtNtNtCs4Q4w8IwqgUj_6icarus8commands7profile5bench7execute00Bb_
FN:127,_RNCNvNtNtNtCs4Q4w8IwqgUj_6icarus8commands7profile5bench22save_benchmark_results0B9_
FN:11,_RNCNvNtNtNtCs4Q4w8IwqgUj_6icarus8commands7profile5bench7execute0B9_
FN:170,_RNvNtNtNtCs4Q4w8IwqgUj_6icarus8commands7profile5bench20parse_benchmark_line
FN:106,_RNvNtNtNtCs4Q4w8IwqgUj_6icarus8commands7profile5bench21find_target_directory
FN:155,_RNvNtNtNtCs4Q4w8IwqgUj_6icarus8commands7profile5bench22parse_benchmark_output
FN:127,_RNvNtNtNtCs4Q4w8IwqgUj_6icarus8commands7profile5bench22save_benchmark_results
FN:250,_RNvNtNtNtCs4Q4w8IwqgUj_6icarus8commands7profile5bench22show_benchmark_summary
FN:206,_RNvNtNtNtCs4Q4w8IwqgUj_6icarus8commands7profile5bench25calculate_overall_summary
FN:11,_RNvNtNtNtCs4Q4w8IwqgUj_6icarus8commands7profile5bench7execute
FNDA:0,_RNCNCNvNtNtNtCs4Q4w8IwqgUj_6icarus8commands7profile5bench7execute00Bb_
FNDA:0,_RNCNvNtNtNtCs4Q4w8IwqgUj_6icarus8commands7profile5bench22save_benchmark_results0B9_
FNDA:0,_RNCNvNtNtNtCs4Q4w8IwqgUj_6icarus8commands7profile5bench7execute0B9_
FNDA:0,_RNvNtNtNtCs4Q4w8IwqgUj_6icarus8commands7profile5bench20parse_benchmark_line
FNDA:0,_RNvNtNtNtCs4Q4w8IwqgUj_6icarus8commands7profile5bench21find_target_directory
FNDA:0,_RNvNtNtNtCs4Q4w8IwqgUj_6icarus8commands7profile5bench22parse_benchmark_output
FNDA:0,_RNvNtNtNtCs4Q4w8IwqgUj_6icarus8commands7profile5bench22save_benchmark_results
FNDA:0,_RNvNtNtNtCs4Q4w8IwqgUj_6icarus8commands7profile5bench22show_benchmark_summary
FNDA:0,_RNvNtNtNtCs4Q4w8IwqgUj_6icarus8commands7profile5bench25calculate_overall_summary
FNDA:0,_RNvNtNtNtCs4Q4w8IwqgUj_6icarus8commands7profile5bench7execute
FNF:10
FNH:0
DA:11,0
DA:12,0
DA:13,0
DA:14,0
DA:18,0
DA:19,0
DA:21,0
DA:22,0
DA:23,0
DA:26,0
DA:27,0
DA:30,0
DA:31,0
DA:32,0
DA:33,0
DA:36,0
DA:37,0
DA:38,0
DA:39,0
DA:41,0
DA:44,0
DA:45,0
DA:46,0
DA:47,0
DA:49,0
DA:50,0
DA:51,0
DA:52,0
DA:53,0
DA:54,0
DA:55,0
DA:56,0
DA:59,0
DA:60,0
DA:63,0
DA:64,0
DA:65,0
DA:66,0
DA:69,0
DA:70,0
DA:71,0
DA:72,0
DA:73,0
DA:75,0
DA:76,0
DA:77,0
DA:78,0
DA:79,0
DA:80,0
DA:81,0
DA:82,0
DA:83,0
DA:84,0
DA:85,0
DA:86,0
DA:87,0
DA:88,0
DA:89,0
DA:90,0
DA:91,0
DA:92,0
DA:95,0
DA:97,0
DA:98,0
DA:99,0
DA:102,0
DA:103,0
DA:106,0
DA:107,0
DA:110,0
DA:111,0
DA:112,0
DA:113,0
DA:115,0
DA:116,0
DA:117,0
DA:118,0
DA:123,0
DA:124,0
DA:127,0
DA:128,0
DA:131,0
DA:132,0
DA:133,0
DA:136,0
DA:138,0
DA:139,0
DA:140,0
DA:141,0
DA:142,0
DA:144,0
DA:145,0
DA:148,0
DA:151,0
DA:152,0
DA:155,0
DA:156,0
DA:158,0
DA:159,0
DA:160,0
DA:161,0
DA:162,0
DA:163,0
DA:166,0
DA:167,0
DA:170,0
DA:172,0
DA:174,0
DA:175,0
DA:176,0
DA:178,0
DA:181,0
DA:182,0
DA:184,0
DA:185,0
DA:186,0
DA:187,0
DA:188,0
DA:189,0
DA:190,0
DA:191,0
DA:192,0
DA:193,0
DA:195,0
DA:196,0
DA:197,0
DA:198,0
DA:199,0
DA:201,0
DA:203,0
DA:206,0
DA:207,0
DA:209,0
DA:210,0
DA:211,0
DA:212,0
DA:213,0
DA:214,0
DA:215,0
DA:216,0
DA:217,0
DA:218,0
DA:219,0
DA:220,0
DA:222,0
DA:223,0
DA:225,0
DA:226,0
DA:227,0
DA:228,0
DA:229,0
DA:231,0
DA:232,0
DA:233,0
DA:234,0
DA:235,0
DA:237,0
DA:238,0
DA:239,0
DA:240,0
DA:241,0
DA:242,0
DA:243,0
DA:244,0
DA:245,0
DA:246,0
DA:247,0
DA:250,0
DA:251,0
DA:253,0
DA:254,0
DA:255,0
DA:256,0
DA:258,0
DA:259,0
DA:260,0
DA:261,0
DA:265,0
DA:266,0
DA:267,0
DA:268,0
DA:269,0
DA:270,0
DA:271,0
DA:272,0
DA:273,0
DA:274,0
DA:276,0
DA:277,0
DA:278,0
DA:279,0
DA:280,0
DA:281,0
DA:282,0
DA:283,0
DA:284,0
DA:285,0
DA:288,0
DA:289,0
DA:291,0
DA:292,0
DA:293,0
DA:295,0
BRF:0
BRH:0
LF:206
LH:0
end_of_record
SF:/Users/goshea/projects/icarus/icarus-sdk/cli/src/commands/profile/canister.rs
FN:61,_RNCNCNvNtNtNtCs4Q4w8IwqgUj_6icarus8commands7profile8canister12create_agent00Bb_
FN:68,_RNCNCNvNtNtNtCs4Q4w8IwqgUj_6icarus8commands7profile8canister12create_agent0s_0Bb_
FN:139,_RNCNCNvNtNtNtCs4Q4w8IwqgUj_6icarus8commands7profile8canister16profile_canister00Bb_
FN:78,_RNCNCNvNtNtNtCs4Q4w8IwqgUj_6icarus8commands7profile8canister17validate_canister00Bb_
FN:47,_RNCNvNtNtNtCs4Q4w8IwqgUj_6icarus8commands7profile8canister12create_agent0B9_
FN:119,_RNCNvNtNtNtCs4Q4w8IwqgUj_6icarus8commands7profile8canister16profile_canister0B9_
FN:211,_RNCNvNtNtNtCs4Q4w8IwqgUj_6icarus8commands7profile8canister17make_test_request0B9_
FN:75,_RNCNvNtNtNtCs4Q4w8IwqgUj_6icarus8commands7profile8canister17validate_canister0B9_
FN:18,_RNCNvNtNtNtCs4Q4w8IwqgUj_6icarus8commands7profile8canister7execute0B9_
FN:47,_RNvNtNtNtCs4Q4w8IwqgUj_6icarus8commands7profile8canister12create_agent
FN:114,_RNvNtNtNtCs4Q4w8IwqgUj_6icarus8commands7profile8canister16profile_canister
FN:211,_RNvNtNtNtCs4Q4w8IwqgUj_6icarus8commands7profile8canister17make_test_request
FN:75,_RNvNtNtNtCs4Q4w8IwqgUj_6icarus8commands7profile8canister17validate_canister
FN:286,_RNvNtNtNtCs4Q4w8IwqgUj_6icarus8commands7profile8canister18assess_performance
FN:225,_RNvNtNtNtCs4Q4w8IwqgUj_6icarus8commands7profile8canister25display_profiling_results
FN:13,_RNvNtNtNtCs4Q4w8IwqgUj_6icarus8commands7profile8canister7execute
FNDA:0,_RNCNCNvNtNtNtCs4Q4w8IwqgUj_6icarus8commands7profile8canister12create_agent00Bb_
FNDA:0,_RNCNCNvNtNtNtCs4Q4w8IwqgUj_6icarus8commands7profile8canister12create_agent0s_0Bb_
FNDA:0,_RNCNCNvNtNtNtCs4Q4w8IwqgUj_6icarus8commands7profile8canister16profile_canister00Bb_
FNDA:0,_RNCNCNvNtNtNtCs4Q4w8IwqgUj_6icarus8commands7profile8canister17validate_canister00Bb_
FNDA:0,_RNCNvNtNtNtCs4Q4w8IwqgUj_6icarus8commands7profile8canister12create_agent0B9_
FNDA:0,_RNCNvNtNtNtCs4Q4w8IwqgUj_6icarus8commands7profile8canister16profile_canister0B9_
FNDA:0,_RNCNvNtNtNtCs4Q4w8IwqgUj_6icarus8commands7profile8canister17make_test_request0B9_
FNDA:0,_RNCNvNtNtNtCs4Q4w8IwqgUj_6icarus8commands7profile8canister17validate_canister0B9_
FNDA:0,_RNCNvNtNtNtCs4Q4w8IwqgUj_6icarus8commands7profile8canister7execute0B9_
FNDA:0,_RNvNtNtNtCs4Q4w8IwqgUj_6icarus8commands7profile8canister12create_agent
FNDA:0,_RNvNtNtNtCs4Q4w8IwqgUj_6icarus8commands7profile8canister16profile_canister
FNDA:0,_RNvNtNtNtCs4Q4w8IwqgUj_6icarus8commands7profile8canister17make_test_request
FNDA:0,_RNvNtNtNtCs4Q4w8IwqgUj_6icarus8commands7profile8canister17validate_canister
FNDA:0,_RNvNtNtNtCs4Q4w8IwqgUj_6icarus8commands7profile8canister18assess_performance
FNDA:0,_RNvNtNtNtCs4Q4w8IwqgUj_6icarus8commands7profile8canister25display_profiling_results
FNDA:0,_RNvNtNtNtCs4Q4w8IwqgUj_6icarus8commands7profile8canister7execute
FNF:16
FNH:0
DA:13,0
DA:14,0
DA:15,0
DA:16,0
DA:17,0
DA:18,0
DA:19,0
DA:20,0
DA:21,0
DA:23,0
DA:24,0
DA:25,0
DA:26,0
DA:27,0
DA:30,0
DA:33,0
DA:35,0
DA:38,0
DA:41,0
DA:43,0
DA:44,0
DA:47,0
DA:48,0
DA:49,0
DA:50,0
DA:51,0
DA:54,0
DA:58,0
DA:59,0
DA:60,0
DA:61,0
DA:64,0
DA:65,0
DA:66,0
DA:67,0
DA:68,0
DA:69,0
DA:71,0
DA:72,0
DA:75,0
DA:76,0
DA:77,0
DA:78,0
DA:80,0
DA:83,0
DA:84,0
DA:85,0
DA:88,0
DA:89,0
DA:91,0
DA:93,0
DA:94,0
DA:95,0
DA:97,0
DA:100,0
DA:101,0
DA:104,0
DA:105,0
DA:106,0
DA:111,0
DA:114,0
DA:115,0
DA:116,0
DA:117,0
DA:118,0
DA:119,0
DA:120,0
DA:121,0
DA:123,0
DA:124,0
DA:125,0
DA:127,0
DA:128,0
DA:133,0
DA:135,0
DA:136,0
DA:137,0
DA:139,0
DA:140,0
DA:141,0
DA:142,0
DA:144,0
DA:145,0
DA:146,0
DA:147,0
DA:148,0
DA:149,0
DA:150,0
DA:151,0
DA:152,0
DA:153,0
DA:154,0
DA:157,0
DA:160,0
DA:163,0
DA:164,0
DA:165,0
DA:166,0
DA:167,0
DA:168,0
DA:169,0
DA:170,0
DA:171,0
DA:172,0
DA:173,0
DA:176,0
DA:177,0
DA:179,0
DA:183,0
DA:185,0
DA:186,0
DA:187,0
DA:188,0
DA:189,0
DA:190,0
DA:191,0
DA:192,0
DA:193,0
DA:194,0
DA:198,0
DA:200,0
DA:201,0
DA:202,0
DA:203,0
DA:204,0
DA:207,0
DA:208,0
DA:211,0
DA:213,0
DA:215,0
DA:217,0
DA:218,0
DA:219,0
DA:220,0
DA:222,0
DA:225,0
DA:226,0
DA:227,0
DA:229,0
DA:230,0
DA:233,0
DA:234,0
DA:235,0
DA:236,0
DA:238,0
DA:239,0
DA:240,0
DA:242,0
DA:243,0
DA:244,0
DA:246,0
DA:247,0
DA:248,0
DA:250,0
DA:251,0
DA:252,0
DA:254,0
DA:257,0
DA:258,0
DA:259,0
DA:261,0
DA:263,0
DA:264,0
DA:265,0
DA:267,0
DA:268,0
DA:269,0
DA:272,0
DA:273,0
DA:274,0
DA:275,0
DA:276,0
DA:277,0
DA:279,0
DA:282,0
DA:283,0
DA:286,0
DA:287,0
DA:290,0
DA:291,0
DA:292,0
DA:293,0
DA:294,0
DA:295,0
DA:296,0
DA:297,0
DA:298,0
DA:299,0
DA:300,0
DA:301,0
DA:302,0
DA:303,0
DA:304,0
DA:305,0
DA:306,0
DA:310,0
DA:311,0
DA:312,0
DA:313,0
DA:314,0
DA:315,0
DA:316,0
DA:317,0
DA:318,0
DA:319,0
DA:320,0
DA:321,0
DA:324,0
DA:325,0
DA:326,0
DA:327,0
DA:328,0
DA:329,0
DA:330,0
DA:331,0
DA:332,0
DA:333,0
DA:334,0
DA:335,0
DA:337,0
DA:340,0
DA:342,0
DA:343,0
DA:344,0
DA:345,0
DA:347,0
DA:348,0
DA:349,0
DA:350,0
DA:352,0
DA:353,0
DA:354,0
DA:355,0
DA:357,0
DA:358,0
DA:359,0
DA:360,0
DA:361,0
BRF:0
BRH:0
LF:247
LH:0
end_of_record
SF:/Users/goshea/projects/icarus/icarus-sdk/cli/src/commands/profile/mod.rs
FN:61,_RNCNvMNtNtCs4Q4w8IwqgUj_6icarus8commands7profileNtB4_15EnvironmentInfo7collect0B8_
FN:53,_RNvMNtNtCs4Q4w8IwqgUj_6icarus8commands7profileNtB2_15EnvironmentInfo7collect
FN:139,_RNvNtNtNtCs4Q4w8IwqgUj_6icarus8commands7profile5utils12format_bytes
FN:125,_RNvNtNtNtCs4Q4w8IwqgUj_6icarus8commands7profile5utils15format_duration
FN:74,_RNvNtNtNtCs4Q4w8IwqgUj_6icarus8commands7profile5utils17calculate_metrics
FNDA:0,_RNCNvMNtNtCs4Q4w8IwqgUj_6icarus8commands7profileNtB4_15EnvironmentInfo7collect0B8_
FNDA:0,_RNvMNtNtCs4Q4w8IwqgUj_6icarus8commands7profileNtB2_15EnvironmentInfo7collect
FNDA:0,_RNvNtNtNtCs4Q4w8IwqgUj_6icarus8commands7profile5utils12format_bytes
FNDA:0,_RNvNtNtNtCs4Q4w8IwqgUj_6icarus8commands7profile5utils15format_duration
FNDA:0,_RNvNtNtNtCs4Q4w8IwqgUj_6icarus8commands7profile5utils17calculate_metrics
FNF:5
FNH:0
DA:53,0
DA:54,0
DA:56,0
DA:57,0
DA:58,0
DA:59,0
DA:60,0
DA:61,0
DA:62,0
DA:63,0
DA:65,0
DA:74,0
DA:75,0
DA:76,0
DA:77,0
DA:78,0
DA:79,0
DA:80,0
DA:81,0
DA:82,0
DA:83,0
DA:84,0
DA:85,0
DA:86,0
DA:87,0
DA:88,0
DA:89,0
DA:90,0
DA:92,0
DA:93,0
DA:94,0
DA:96,0
DA:97,0
DA:99,0
DA:100,0
DA:101,0
DA:102,0
DA:103,0
DA:104,0
DA:105,0
DA:107,0
DA:108,0
DA:109,0
DA:110,0
DA:112,0
DA:113,0
DA:114,0
DA:115,0
DA:116,0
DA:117,0
DA:118,0
DA:119,0
DA:120,0
DA:121,0
DA:122,0
DA:125,0
DA:126,0
DA:127,0
DA:128,0
DA:129,0
DA:130,0
DA:131,0
DA:132,0
DA:134,0
DA:136,0
DA:139,0
DA:141,0
DA:142,0
DA:144,0
DA:145,0
DA:146,0
DA:147,0
DA:149,0
DA:150,0
BRF:0
BRH:0
LF:75
LH:0
end_of_record
SF:/Users/goshea/projects/icarus/icarus-sdk/cli/src/commands/validate.rs
FN:15,_RNCNCNvNtNtCs4Q4w8IwqgUj_6icarus8commands8validate7execute00B9_
FN:640,_RNCNvNtNtCs4Q4w8IwqgUj_6icarus8commands8validate16normalize_candid0B7_
FN:641,_RNCNvNtNtCs4Q4w8IwqgUj_6icarus8commands8validate16normalize_candids_0B7_
FN:647,_RNCNvNtNtCs4Q4w8IwqgUj_6icarus8commands8validate21cleanup_test_canister0B7_
FN:627,_RNCNvNtNtCs4Q4w8IwqgUj_6icarus8commands8validate21parse_candid_response0B7_
FN:629,_RNCNvNtNtCs4Q4w8IwqgUj_6icarus8commands8validate21parse_candid_responses_0B7_
FN:682,_RNCNvNtNtCs4Q4w8IwqgUj_6icarus8commands8validate22find_default_wasm_path0B7_
FN:737,_RNCNvNtNtCs4Q4w8IwqgUj_6icarus8commands8validate22find_default_wasm_paths0_0B7_
FN:738,_RNCNvNtNtCs4Q4w8IwqgUj_6icarus8commands8validate22find_default_wasm_paths1_0B7_
FN:685,_RNCNvNtNtCs4Q4w8IwqgUj_6icarus8commands8validate22find_default_wasm_paths_0B7_
FN:534,_RNCNvNtNtCs4Q4w8IwqgUj_6icarus8commands8validate29retrieve_candid_from_canister0B7_
FN:340,_RNCNvNtNtCs4Q4w8IwqgUj_6icarus8commands8validate37deploy_and_verify_candid_preservation0B7_
FN:14,_RNCNvNtNtCs4Q4w8IwqgUj_6icarus8commands8validate7execute0B7_
FN:637,_RNvNtNtCs4Q4w8IwqgUj_6icarus8commands8validate16normalize_candid
FN:232,_RNvNtNtCs4Q4w8IwqgUj_6icarus8commands8validate19check_wasm_metadata
FN:273,_RNvNtNtCs4Q4w8IwqgUj_6icarus8commands8validate20check_init_signature
FN:647,_RNvNtNtCs4Q4w8IwqgUj_6icarus8commands8validate21cleanup_test_canister
FN:625,_RNvNtNtCs4Q4w8IwqgUj_6icarus8commands8validate21parse_candid_response
FN:672,_RNvNtNtCs4Q4w8IwqgUj_6icarus8commands8validate22find_default_wasm_path
FN:302,_RNvNtNtCs4Q4w8IwqgUj_6icarus8commands8validate22validate_candid_syntax
FN:252,_RNvNtNtCs4Q4w8IwqgUj_6icarus8commands8validate24extract_candid_from_wasm
FN:534,_RNvNtNtCs4Q4w8IwqgUj_6icarus8commands8validate29retrieve_candid_from_canister
FN:336,_RNvNtNtCs4Q4w8IwqgUj_6icarus8commands8validate37deploy_and_verify_candid_preservation
FN:10,_RNvNtNtCs4Q4w8IwqgUj_6icarus8commands8validate7execute
FNDA:0,_RNCNCNvNtNtCs4Q4w8IwqgUj_6icarus8commands8validate7execute00B9_
FNDA:0,_RNCNvNtNtCs4Q4w8IwqgUj_6icarus8commands8validate16normalize_candid0B7_
FNDA:0,_RNCNvNtNtCs4Q4w8IwqgUj_6icarus8commands8validate16normalize_candids_0B7_
FNDA:0,_RNCNvNtNtCs4Q4w8IwqgUj_6icarus8commands8validate21cleanup_test_canister0B7_
FNDA:0,_RNCNvNtNtCs4Q4w8IwqgUj_6icarus8commands8validate21parse_candid_response0B7_
FNDA:0,_RNCNvNtNtCs4Q4w8IwqgUj_6icarus8commands8validate21parse_candid_responses_0B7_
FNDA:0,_RNCNvNtNtCs4Q4w8IwqgUj_6icarus8commands8validate22find_default_wasm_path0B7_
FNDA:0,_RNCNvNtNtCs4Q4w8IwqgUj_6icarus8commands8validate22find_default_wasm_paths0_0B7_
FNDA:0,_RNCNvNtNtCs4Q4w8IwqgUj_6icarus8commands8validate22find_default_wasm_paths1_0B7_
FNDA:0,_RNCNvNtNtCs4Q4w8IwqgUj_6icarus8commands8validate22find_default_wasm_paths_0B7_
FNDA:0,_RNCNvNtNtCs4Q4w8IwqgUj_6icarus8commands8validate29retrieve_candid_from_canister0B7_
FNDA:0,_RNCNvNtNtCs4Q4w8IwqgUj_6icarus8commands8validate37deploy_and_verify_candid_preservation0B7_
FNDA:0,_RNCNvNtNtCs4Q4w8IwqgUj_6icarus8commands8validate7execute0B7_
FNDA:0,_RNvNtNtCs4Q4w8IwqgUj_6icarus8commands8validate16normalize_candid
FNDA:0,_RNvNtNtCs4Q4w8IwqgUj_6icarus8commands8validate19check_wasm_metadata
FNDA:0,_RNvNtNtCs4Q4w8IwqgUj_6icarus8commands8validate20check_init_signature
FNDA:0,_RNvNtNtCs4Q4w8IwqgUj_6icarus8commands8validate21cleanup_test_canister
FNDA:0,_RNvNtNtCs4Q4w8IwqgUj_6icarus8commands8validate21parse_candid_response
FNDA:0,_RNvNtNtCs4Q4w8IwqgUj_6icarus8commands8validate22find_default_wasm_path
FNDA:0,_RNvNtNtCs4Q4w8IwqgUj_6icarus8commands8validate22validate_candid_syntax
FNDA:0,_RNvNtNtCs4Q4w8IwqgUj_6icarus8commands8validate24extract_candid_from_wasm
FNDA:0,_RNvNtNtCs4Q4w8IwqgUj_6icarus8commands8validate29retrieve_candid_from_canister
FNDA:0,_RNvNtNtCs4Q4w8IwqgUj_6icarus8commands8validate37deploy_and_verify_candid_preservation
FNDA:0,_RNvNtNtCs4Q4w8IwqgUj_6icarus8commands8validate7execute
FNF:24
FNH:0
DA:10,0
DA:11,0
DA:12,0
DA:13,0
DA:14,0
DA:15,0
DA:18,0
DA:19,0
DA:22,0
DA:25,0
DA:26,0
DA:27,0
DA:29,0
DA:30,0
DA:31,0
DA:32,0
DA:35,0
DA:36,0
DA:37,0
DA:39,0
DA:40,0
DA:41,0
DA:42,0
DA:43,0
DA:44,0
DA:45,0
DA:46,0
DA:47,0
DA:49,0
DA:50,0
DA:51,0
DA:52,0
DA:53,0
DA:55,0
DA:59,0
DA:60,0
DA:61,0
DA:62,0
DA:63,0
DA:64,0
DA:65,0
DA:67,0
DA:68,0
DA:69,0
DA:72,0
DA:74,0
DA:75,0
DA:76,0
DA:77,0
DA:80,0
DA:81,0
DA:82,0
DA:83,0
DA:84,0
DA:85,0
DA:86,0
DA:87,0
DA:88,0
DA:91,0
DA:92,0
DA:93,0
DA:94,0
DA:95,0
DA:96,0
DA:97,0
DA:98,0
DA:99,0
DA:100,0
DA:105,0
DA:106,0
DA:107,0
DA:108,0
DA:109,0
DA:112,0
DA:113,0
DA:114,0
DA:115,0
DA:116,0
DA:117,0
DA:119,0
DA:120,0
DA:121,0
DA:122,0
DA:126,0
DA:127,0
DA:128,0
DA:129,0
DA:130,0
DA:131,0
DA:132,0
DA:133,0
DA:134,0
DA:135,0
DA:138,0
DA:139,0
DA:140,0
DA:141,0
DA:143,0
DA:144,0
DA:145,0
DA:146,0
DA:148,0
DA:149,0
DA:150,0
DA:151,0
DA:152,0
DA:153,0
DA:154,0
DA:155,0
DA:158,0
DA:159,0
DA:160,0
DA:161,0
DA:163,0
DA:165,0
DA:166,0
DA:168,0
DA:171,0
DA:172,0
DA:173,0
DA:175,0
DA:176,0
DA:177,0
DA:178,0
DA:179,0
DA:180,0
DA:181,0
DA:182,0
DA:183,0
DA:184,0
DA:185,0
DA:188,0
DA:190,0
DA:191,0
DA:193,0
DA:194,0
DA:195,0
DA:196,0
DA:197,0
DA:198,0
DA:199,0
DA:200,0
DA:201,0
DA:202,0
DA:203,0
DA:204,0
DA:205,0
DA:206,0
DA:207,0
DA:208,0
DA:211,0
DA:212,0
DA:213,0
DA:214,0
DA:215,0
DA:216,0
DA:218,0
DA:219,0
DA:220,0
DA:221,0
DA:222,0
DA:223,0
DA:224,0
DA:225,0
DA:226,0
DA:228,0
DA:229,0
DA:232,0
DA:234,0
DA:236,0
DA:237,0
DA:240,0
DA:241,0
DA:242,0
DA:243,0
DA:244,0
DA:245,0
DA:248,0
DA:249,0
DA:252,0
DA:254,0
DA:255,0
DA:256,0
DA:258,0
DA:259,0
DA:260,0
DA:261,0
DA:262,0
DA:263,0
DA:265,0
DA:266,0
DA:267,0
DA:269,0
DA:270,0
DA:273,0
DA:277,0
DA:278,0
DA:281,0
DA:282,0
DA:285,0
DA:286,0
DA:288,0
DA:289,0
DA:291,0
DA:293,0
DA:294,0
DA:295,0
DA:298,0
DA:299,0
DA:302,0
DA:303,0
DA:304,0
DA:305,0
DA:308,0
DA:309,0
DA:310,0
DA:313,0
DA:315,0
DA:316,0
DA:318,0
DA:319,0
DA:320,0
DA:321,0
DA:322,0
DA:324,0
DA:326,0
DA:327,0
DA:328,0
DA:329,0
DA:330,0
DA:332,0
DA:333,0
DA:336,0
DA:337,0
DA:338,0
DA:339,0
DA:340,0
DA:342,0
DA:343,0
DA:344,0
DA:345,0
DA:346,0
DA:349,0
DA:352,0
DA:353,0
DA:357,0
DA:358,0
DA:359,0
DA:360,0
DA:361,0
DA:362,0
DA:363,0
DA:364,0
DA:365,0
DA:366,0
DA:367,0
DA:368,0
DA:369,0
DA:370,0
DA:371,0
DA:372,0
DA:375,0
DA:378,0
DA:379,0
DA:380,0
DA:381,0
DA:382,0
DA:384,0
DA:386,0
DA:387,0
DA:388,0
DA:389,0
DA:390,0
DA:391,0
DA:394,0
DA:395,0
DA:396,0
DA:397,0
DA:398,0
DA:400,0
DA:401,0
DA:402,0
DA:403,0
DA:406,0
DA:407,0
DA:408,0
DA:409,0
DA:410,0
DA:412,0
DA:413,0
DA:414,0
DA:415,0
DA:417,0
DA:418,0
DA:419,0
DA:421,0
DA:422,0
DA:423,0
DA:426,0
DA:427,0
DA:428,0
DA:429,0
DA:431,0
DA:432,0
DA:433,0
DA:436,0
DA:437,0
DA:438,0
DA:439,0
DA:441,0
DA:442,0
DA:443,0
DA:445,0
DA:446,0
DA:447,0
DA:448,0
DA:449,0
DA:450,0
DA:454,0
DA:455,0
DA:456,0
DA:457,0
DA:458,0
DA:459,0
DA:460,0
DA:461,0
DA:462,0
DA:463,0
DA:464,0
DA:465,0
DA:466,0
DA:467,0
DA:468,0
DA:469,0
DA:471,0
DA:472,0
DA:473,0
DA:474,0
DA:479,0
DA:480,0
DA:481,0
DA:482,0
DA:483,0
DA:484,0
DA:485,0
DA:486,0
DA:487,0
DA:488,0
DA:491,0
DA:496,0
DA:497,0
DA:499,0
DA:501,0
DA:502,0
DA:503,0
DA:504,0
DA:505,0
DA:506,0
DA:507,0
DA:508,0
DA:509,0
DA:510,0
DA:511,0
DA:512,0
DA:513,0
DA:514,0
DA:515,0
DA:516,0
DA:517,0
DA:518,0
DA:519,0
DA:520,0
DA:521,0
DA:522,0
DA:523,0
DA:524,0
DA:525,0
DA:528,0
DA:530,0
DA:531,0
DA:534,0
DA:536,0
DA:537,0
DA:538,0
DA:539,0
DA:540,0
DA:541,0
DA:542,0
DA:543,0
DA:544,0
DA:545,0
DA:546,0
DA:548,0
DA:549,0
DA:550,0
DA:551,0
DA:552,0
DA:553,0
DA:557,0
DA:559,0
DA:560,0
DA:561,0
DA:562,0
DA:566,0
DA:569,0
DA:570,0
DA:571,0
DA:572,0
DA:573,0
DA:574,0
DA:575,0
DA:576,0
DA:577,0
DA:578,0
DA:579,0
DA:580,0
DA:581,0
DA:583,0
DA:584,0
DA:585,0
DA:587,0
DA:588,0
DA:589,0
DA:592,0
DA:593,0
DA:594,0
DA:595,0
DA:596,0
DA:597,0
DA:598,0
DA:599,0
DA:600,0
DA:601,0
DA:602,0
DA:603,0
DA:604,0
DA:606,0
DA:607,0
DA:608,0
DA:609,0
DA:610,0
DA:611,0
DA:614,0
DA:615,0
DA:616,0
DA:617,0
DA:618,0
DA:622,0
DA:625,0
DA:626,0
DA:627,0
DA:628,0
DA:629,0
DA:630,0
DA:631,0
DA:632,0
DA:633,0
DA:634,0
DA:637,0
DA:638,0
DA:639,0
DA:640,0
DA:641,0
DA:642,0
DA:643,0
DA:644,0
DA:647,0
DA:648,0
DA:650,0
DA:651,0
DA:652,0
DA:653,0
DA:654,0
DA:655,0
DA:656,0
DA:657,0
DA:658,0
DA:659,0
DA:660,0
DA:662,0
DA:663,0
DA:664,0
DA:665,0
DA:666,0
DA:668,0
DA:669,0
DA:672,0
DA:673,0
DA:676,0
DA:677,0
DA:678,0
DA:679,0
DA:682,0
DA:685,0
DA:687,0
DA:688,0
DA:689,0
DA:691,0
DA:692,0
DA:693,0
DA:694,0
DA:695,0
DA:696,0
DA:697,0
DA:699,0
DA:700,0
DA:701,0
DA:702,0
DA:703,0
DA:704,0
DA:705,0
DA:707,0
DA:708,0
DA:709,0
DA:712,0
DA:713,0
DA:714,0
DA:715,0
DA:716,0
DA:717,0
DA:718,0
DA:720,0
DA:721,0
DA:722,0
DA:723,0
DA:726,0
DA:727,0
DA:730,0
DA:731,0
DA:732,0
DA:733,0
DA:735,0
DA:736,0
DA:737,0
DA:738,0
DA:741,0
DA:742,0
DA:743,0
DA:744,0
DA:745,0
DA:746,0
DA:748,0
DA:749,0
DA:750,0
DA:753,0
DA:754,0
DA:755,0
DA:756,0
DA:757,0
DA:758,0
DA:759,0
DA:761,0
DA:762,0
DA:763,0
DA:764,0
DA:767,0
DA:768,0
DA:770,0
DA:771,0
DA:773,0
BRF:0
BRH:0
LF:573
LH:0
end_of_record
SF:/Users/goshea/projects/icarus/icarus-sdk/cli/src/config/cargo_config.rs
FN:60,_RNCNvNtNtCs4Q4w8IwqgUj_6icarus6config12cargo_config20load_from_cargo_toml0B7_
FN:61,_RNCNvNtNtCs4Q4w8IwqgUj_6icarus6config12cargo_config20load_from_cargo_tomls_0B7_
FN:47,_RNvNtNtCs4Q4w8IwqgUj_6icarus6config12cargo_config20load_from_cargo_toml
FN:73,_RNvNtNtCs4Q4w8IwqgUj_6icarus6config12cargo_config22get_claude_config_path
FN:30,_RNvXNtNtCs4Q4w8IwqgUj_6icarus6config12cargo_configNtB2_19ClaudeDesktopConfigNtNtCsaNl6UpbT7bw_4core7default7Default7default
FN:39,_RNvXs_NtNtCs4Q4w8IwqgUj_6icarus6config12cargo_configNtB4_14IcarusMetadataNtNtCsaNl6UpbT7bw_4core7default7Default7default
FNDA:0,_RNCNvNtNtCs4Q4w8IwqgUj_6icarus6config12cargo_config20load_from_cargo_toml0B7_
FNDA:0,_RNCNvNtNtCs4Q4w8IwqgUj_6icarus6config12cargo_config20load_from_cargo_tomls_0B7_
FNDA:0,_RNvNtNtCs4Q4w8IwqgUj_6icarus6config12cargo_config20load_from_cargo_toml
FNDA:0,_RNvNtNtCs4Q4w8IwqgUj_6icarus6config12cargo_config22get_claude_config_path
FNDA:0,_RNvXNtNtCs4Q4w8IwqgUj_6icarus6config12cargo_configNtB2_19ClaudeDesktopConfigNtNtCsaNl6UpbT7bw_4core7default7Default7default
FNDA:0,_RNvXs_NtNtCs4Q4w8IwqgUj_6icarus6config12cargo_configNtB4_14IcarusMetadataNtNtCsaNl6UpbT7bw_4core7default7Default7default
FNF:6
FNH:0
DA:30,0
DA:31,0
DA:32,0
DA:33,0
DA:34,0
DA:35,0
DA:39,0
DA:40,0
DA:41,0
DA:42,0
DA:43,0
DA:47,0
DA:48,0
DA:50,0
DA:51,0
DA:52,0
DA:54,0
DA:55,0
DA:58,0
DA:59,0
DA:60,0
DA:61,0
DA:63,0
DA:64,0
DA:65,0
DA:66,0
DA:68,0
DA:70,0
DA:73,0
DA:74,0
DA:75,0
DA:77,0
DA:78,0
DA:79,0
DA:82,0
DA:85,0
BRF:0
BRH:0
LF:38
LH:0
end_of_record
SF:/Users/goshea/projects/icarus/icarus-sdk/cli/src/config/marketplace.rs
FN:50,_RNvMs_NtNtCs4Q4w8IwqgUj_6icarus6config11marketplaceNtB4_19MarketplaceMetadata4load
FN:55,_RNvMs_NtNtCs4Q4w8IwqgUj_6icarus6config11marketplaceNtB4_19MarketplaceMetadata4save
FN:61,_RNvMs_NtNtCs4Q4w8IwqgUj_6icarus6config11marketplaceNtB4_19MarketplaceMetadata8validate
FN:27,_RNvXNtNtCs4Q4w8IwqgUj_6icarus6config11marketplaceNtB2_19MarketplaceMetadataNtNtCsaNl6UpbT7bw_4core7default7Default7default
FNDA:0,_RNvMs_NtNtCs4Q4w8IwqgUj_6icarus6config11marketplaceNtB4_19MarketplaceMetadata4load
FNDA:0,_RNvMs_NtNtCs4Q4w8IwqgUj_6icarus6config11marketplaceNtB4_19MarketplaceMetadata4save
FNDA:0,_RNvMs_NtNtCs4Q4w8IwqgUj_6icarus6config11marketplaceNtB4_19MarketplaceMetadata8validate
FNDA:0,_RNvXNtNtCs4Q4w8IwqgUj_6icarus6config11marketplaceNtB2_19MarketplaceMetadataNtNtCsaNl6UpbT7bw_4core7default7Default7default
FNF:4
FNH:0
DA:27,0
DA:28,0
DA:29,0
DA:30,0
DA:31,0
DA:32,0
DA:33,0
DA:34,0
DA:35,0
DA:36,0
DA:37,0
DA:38,0
DA:39,0
DA:40,0
DA:41,0
DA:42,0
DA:43,0
DA:44,0
DA:45,0
DA:46,0
DA:50,0
DA:51,0
DA:52,0
DA:53,0
DA:55,0
DA:56,0
DA:57,0
DA:58,0
DA:59,0
DA:61,0
DA:62,0
DA:63,0
DA:64,0
DA:65,0
DA:66,0
DA:67,0
DA:68,0
DA:69,0
DA:70,0
DA:71,0
DA:72,0
DA:73,0
DA:74,0
DA:75,0
DA:76,0
DA:77,0
DA:78,0
DA:79,0
DA:80,0
DA:81,0
DA:82,0
DA:83,0
DA:84,0
BRF:0
BRH:0
LF:53
LH:0
end_of_record
SF:/Users/goshea/projects/icarus/icarus-sdk/cli/src/config/mod.rs
FN:69,_RNCNvMs_NtCs4Q4w8IwqgUj_6icarus6configNtB6_12IcarusConfig10config_dir0B8_
FN:64,_RNCNvMs_NtCs4Q4w8IwqgUj_6icarus6configNtB6_12IcarusConfig11config_path0B8_
FN:68,_RNvMs_NtCs4Q4w8IwqgUj_6icarus6configNtB4_12IcarusConfig10config_dir
FN:63,_RNvMs_NtCs4Q4w8IwqgUj_6icarus6configNtB4_12IcarusConfig11config_path
FN:43,_RNvMs_NtCs4Q4w8IwqgUj_6icarus6configNtB4_12IcarusConfig4load
FN:53,_RNvMs_NtCs4Q4w8IwqgUj_6icarus6configNtB4_12IcarusConfig4save
FN:74,_RNvNtCs4Q4w8IwqgUj_6icarus6config19get_marketplace_url
FN:82,_RNvNtCs4Q4w8IwqgUj_6icarus6config27get_marketplace_canister_id
FN:32,_RNvXNtCs4Q4w8IwqgUj_6icarus6configNtB2_12IcarusConfigNtNtCsaNl6UpbT7bw_4core7default7Default7default
FNDA:0,_RNCNvMs_NtCs4Q4w8IwqgUj_6icarus6configNtB6_12IcarusConfig10config_dir0B8_
FNDA:0,_RNCNvMs_NtCs4Q4w8IwqgUj_6icarus6configNtB6_12IcarusConfig11config_path0B8_
FNDA:0,_RNvMs_NtCs4Q4w8IwqgUj_6icarus6configNtB4_12IcarusConfig10config_dir
FNDA:0,_RNvMs_NtCs4Q4w8IwqgUj_6icarus6configNtB4_12IcarusConfig11config_path
FNDA:0,_RNvMs_NtCs4Q4w8IwqgUj_6icarus6configNtB4_12IcarusConfig4load
FNDA:0,_RNvMs_NtCs4Q4w8IwqgUj_6icarus6configNtB4_12IcarusConfig4save
FNDA:0,_RNvNtCs4Q4w8IwqgUj_6icarus6config19get_marketplace_url
FNDA:0,_RNvNtCs4Q4w8IwqgUj_6icarus6config27get_marketplace_canister_id
FNDA:0,_RNvXNtCs4Q4w8IwqgUj_6icarus6configNtB2_12IcarusConfigNtNtCsaNl6UpbT7bw_4core7default7Default7default
FNF:9
FNH:0
DA:32,0
DA:33,0
DA:34,0
DA:35,0
DA:36,0
DA:37,0
DA:38,0
DA:39,0
DA:43,0
DA:44,0
DA:45,0
DA:46,0
DA:47,0
DA:49,0
DA:51,0
DA:53,0
DA:54,0
DA:55,0
DA:56,0
DA:57,0
DA:58,0
DA:59,0
DA:60,0
DA:61,0
DA:63,0
DA:64,0
DA:65,0
DA:66,0
DA:68,0
DA:69,0
DA:70,0
DA:71,0
DA:74,0
DA:75,0
DA:76,0
DA:77,0
DA:78,0
DA:80,0
DA:82,0
DA:83,0
DA:84,0
DA:85,0
DA:86,0
DA:88,0
BRF:0
BRH:0
LF:46
LH:0
end_of_record
SF:/Users/goshea/projects/icarus/icarus-sdk/cli/src/main.rs
FN:221,_RNCNvCs4Q4w8IwqgUj_6icarus4main0B3_
FN:221,_RNvCs4Q4w8IwqgUj_6icarus4main
FNDA:0,_RNCNvCs4Q4w8IwqgUj_6icarus4main0B3_
FNDA:0,_RNvCs4Q4w8IwqgUj_6icarus4main
FNF:2
FNH:0
DA:221,0
DA:222,0
DA:225,0
DA:226,0
DA:227,0
DA:228,0
DA:229,0
DA:231,0
DA:235,0
DA:238,0
DA:240,0
DA:241,0
DA:243,0
DA:246,0
DA:247,0
DA:248,0
DA:249,0
DA:250,0
DA:251,0
DA:252,0
DA:255,0
DA:256,0
DA:257,0
DA:260,0
DA:262,0
DA:263,0
DA:264,0
DA:265,0
DA:266,0
DA:267,0
DA:268,0
DA:269,0
DA:270,0
DA:271,0
DA:272,0
DA:273,0
DA:274,0
DA:275,0
DA:276,0
DA:277,0
DA:278,0
DA:279,0
DA:280,0
DA:281,0
DA:282,0
DA:283,0
DA:284,0
DA:285,0
DA:286,0
DA:287,0
DA:288,0
DA:289,0
DA:290,0
DA:291,0
DA:292,0
DA:293,0
DA:294,0
DA:295,0
DA:296,0
DA:297,0
DA:298,0
DA:299,0
DA:300,0
DA:301,0
DA:302,0
DA:303,0
DA:304,0
DA:305,0
DA:306,0
DA:307,0
DA:308,0
DA:309,0
DA:310,0
DA:311,0
DA:312,0
DA:313,0
DA:314,0
DA:315,0
DA:316,0
DA:317,0
DA:318,0
DA:319,0
DA:320,0
DA:321,0
DA:322,0
DA:323,0
DA:324,0
DA:325,0
DA:326,0
DA:327,0
DA:328,0
DA:329,0
DA:330,0
DA:331,0
DA:332,0
DA:333,0
DA:334,0
DA:335,0
DA:336,0
DA:337,0
DA:338,0
DA:339,0
DA:340,0
DA:341,0
DA:342,0
DA:343,0
DA:344,0
DA:345,0
DA:346,0
DA:347,0
DA:348,0
DA:349,0
DA:350,0
DA:351,0
DA:352,0
DA:353,0
DA:354,0
DA:355,0
DA:356,0
DA:357,0
DA:358,0
DA:359,0
DA:360,0
DA:361,0
DA:362,0
DA:363,0
DA:364,0
DA:365,0
DA:366,0
DA:367,0
DA:368,0
DA:369,0
DA:370,0
DA:371,0
DA:372,0
DA:373,0
DA:374,0
DA:375,0
DA:376,0
DA:377,0
DA:378,0
DA:379,0
DA:380,0
DA:381,0
DA:382,0
DA:383,0
DA:384,0
DA:385,0
BRF:0
BRH:0
LF:234
LH:0
end_of_record
SF:/Users/goshea/projects/icarus/icarus-sdk/cli/src/utils/claude_desktop.rs
FN:105,_RNCNvNtNtCs4Q4w8IwqgUj_6icarus5utils14claude_desktop20update_claude_config0B7_
FN:114,_RNCNvNtNtCs4Q4w8IwqgUj_6icarus5utils14claude_desktop20update_claude_configs_0B7_
FN:42,_RNCNvNtNtCs4Q4w8IwqgUj_6icarus5utils14claude_desktop21find_claude_directory0B7_
FN:80,_RNvNtNtCs4Q4w8IwqgUj_6icarus5utils14claude_desktop20update_claude_config
FN:41,_RNvNtNtCs4Q4w8IwqgUj_6icarus5utils14claude_desktop21find_claude_directory
FN:10,_RNvNtNtCs4Q4w8IwqgUj_6icarus5utils14claude_desktop23find_claude_config_path
FN:69,_RNvNtNtCs4Q4w8IwqgUj_6icarus5utils14claude_desktop29generate_claude_server_config
FNDA:0,_RNCNvNtNtCs4Q4w8IwqgUj_6icarus5utils14claude_desktop20update_claude_config0B7_
FNDA:0,_RNCNvNtNtCs4Q4w8IwqgUj_6icarus5utils14claude_desktop20update_claude_configs_0B7_
FNDA:0,_RNCNvNtNtCs4Q4w8IwqgUj_6icarus5utils14claude_desktop21find_claude_directory0B7_
FNDA:0,_RNvNtNtCs4Q4w8IwqgUj_6icarus5utils14claude_desktop20update_claude_config
FNDA:0,_RNvNtNtCs4Q4w8IwqgUj_6icarus5utils14claude_desktop21find_claude_directory
FNDA:0,_RNvNtNtCs4Q4w8IwqgUj_6icarus5utils14claude_desktop23find_claude_config_path
FNDA:0,_RNvNtNtCs4Q4w8IwqgUj_6icarus5utils14claude_desktop29generate_claude_server_config
FNF:7
FNH:0
DA:10,0
DA:12,0
DA:13,0
DA:15,0
DA:17,0
DA:18,0
DA:19,0
DA:20,0
DA:21,0
DA:22,0
DA:23,0
DA:24,0
DA:26,0
DA:29,0
DA:32,0
DA:33,0
DA:34,0
DA:35,0
DA:37,0
DA:38,0
DA:41,0
DA:42,0
DA:45,0
DA:46,0
DA:47,0
DA:48,0
DA:51,0
DA:52,0
DA:53,0
DA:54,0
DA:59,0
DA:66,0
DA:69,0
DA:70,0
DA:71,0
DA:72,0
DA:73,0
DA:74,0
DA:77,0
DA:80,0
DA:81,0
DA:82,0
DA:83,0
DA:84,0
DA:85,0
DA:86,0
DA:87,0
DA:88,0
DA:91,0
DA:92,0
DA:93,0
DA:96,0
DA:97,0
DA:98,0
DA:99,0
DA:100,0
DA:105,0
DA:106,0
DA:107,0
DA:108,0
DA:109,0
DA:110,0
DA:113,0
DA:114,0
DA:115,0
DA:116,0
DA:117,0
DA:118,0
DA:119,0
DA:120,0
DA:124,0
DA:125,0
DA:127,0
DA:128,0
BRF:0
BRH:0
LF:77
LH:0
end_of_record
SF:/Users/goshea/projects/icarus/icarus-sdk/cli/src/utils/mcp_clients/chatgpt_desktop.rs
FN:128,_RNvMNtNtNtCs4Q4w8IwqgUj_6icarus5utils11mcp_clients15chatgpt_desktopNtB2_20ChatGptDesktopClient20list_chatgpt_servers
FN:109,_RNvMNtNtNtCs4Q4w8IwqgUj_6icarus5utils11mcp_clients15chatgpt_desktopNtB2_20ChatGptDesktopClient21remove_chatgpt_config
FN:63,_RNvMNtNtNtCs4Q4w8IwqgUj_6icarus5utils11mcp_clients15chatgpt_desktopNtB2_20ChatGptDesktopClient21update_chatgpt_config
FN:17,_RNvMNtNtNtCs4Q4w8IwqgUj_6icarus5utils11mcp_clients15chatgpt_desktopNtB2_20ChatGptDesktopClient22find_chatgpt_directory
FN:35,_RNvMNtNtNtCs4Q4w8IwqgUj_6icarus5utils11mcp_clients15chatgpt_desktopNtB2_20ChatGptDesktopClient24find_chatgpt_config_path
FN:46,_RNvMNtNtNtCs4Q4w8IwqgUj_6icarus5utils11mcp_clients15chatgpt_desktopNtB2_20ChatGptDesktopClient30generate_chatgpt_server_config
FN:12,_RNvMNtNtNtCs4Q4w8IwqgUj_6icarus5utils11mcp_clients15chatgpt_desktopNtB2_20ChatGptDesktopClient3new
FN:147,_RNvXs_NtNtNtCs4Q4w8IwqgUj_6icarus5utils11mcp_clients15chatgpt_desktopNtB4_20ChatGptDesktopClientNtB6_9McpClient11client_type
FN:192,_RNvXs_NtNtNtCs4Q4w8IwqgUj_6icarus5utils11mcp_clients15chatgpt_desktopNtB4_20ChatGptDesktopClientNtB6_9McpClient12list_servers
FN:188,_RNvXs_NtNtNtCs4Q4w8IwqgUj_6icarus5utils11mcp_clients15chatgpt_desktopNtB4_20ChatGptDesktopClientNtB6_9McpClient13remove_config
FN:184,_RNvXs_NtNtNtCs4Q4w8IwqgUj_6icarus5utils11mcp_clients15chatgpt_desktopNtB4_20ChatGptDesktopClientNtB6_9McpClient13update_config
FN:196,_RNvXs_NtNtNtCs4Q4w8IwqgUj_6icarus5utils11mcp_clients15chatgpt_desktopNtB4_20ChatGptDesktopClientNtB6_9McpClient15validate_config
FN:176,_RNvXs_NtNtNtCs4Q4w8IwqgUj_6icarus5utils11mcp_clients15chatgpt_desktopNtB4_20ChatGptDesktopClientNtB6_9McpClient16find_config_path
FN:151,_RNvXs_NtNtNtCs4Q4w8IwqgUj_6icarus5utils11mcp_clients15chatgpt_desktopNtB4_20ChatGptDesktopClientNtB6_9McpClient19detect_installation
FN:180,_RNvXs_NtNtNtCs4Q4w8IwqgUj_6icarus5utils11mcp_clients15chatgpt_desktopNtB4_20ChatGptDesktopClientNtB6_9McpClient22generate_server_config
FN:138,_RNCNvMNtNtNtCs4Q4w8IwqgUj_6icarus5utils11mcp_clients15chatgpt_desktopNtB4_20ChatGptDesktopClient20list_chatgpt_servers0Ba_
FN:139,_RNCNvMNtNtNtCs4Q4w8IwqgUj_6icarus5utils11mcp_clients15chatgpt_desktopNtB4_20ChatGptDesktopClient20list_chatgpt_serverss_0Ba_
FN:117,_RNCNvMNtNtNtCs4Q4w8IwqgUj_6icarus5utils11mcp_clients15chatgpt_desktopNtB4_20ChatGptDesktopClient21remove_chatgpt_config0Ba_
FN:83,_RNCNvMNtNtNtCs4Q4w8IwqgUj_6icarus5utils11mcp_clients15chatgpt_desktopNtB4_20ChatGptDesktopClient21update_chatgpt_config0Ba_
FN:92,_RNCNvMNtNtNtCs4Q4w8IwqgUj_6icarus5utils11mcp_clients15chatgpt_desktopNtB4_20ChatGptDesktopClient21update_chatgpt_configs_0Ba_
FN:49,_RNCNvMNtNtNtCs4Q4w8IwqgUj_6icarus5utils11mcp_clients15chatgpt_desktopNtB4_20ChatGptDesktopClient30generate_chatgpt_server_config0Ba_
FN:50,_RNCNvMNtNtNtCs4Q4w8IwqgUj_6icarus5utils11mcp_clients15chatgpt_desktopNtB4_20ChatGptDesktopClient30generate_chatgpt_server_configs_0Ba_
FN:161,_RNCNvXs_NtNtNtCs4Q4w8IwqgUj_6icarus5utils11mcp_clients15chatgpt_desktopNtB6_20ChatGptDesktopClientNtB8_9McpClient19detect_installation0Bc_
FNDA:0,_RNvMNtNtNtCs4Q4w8IwqgUj_6icarus5utils11mcp_clients15chatgpt_desktopNtB2_20ChatGptDesktopClient20list_chatgpt_servers
FNDA:0,_RNvMNtNtNtCs4Q4w8IwqgUj_6icarus5utils11mcp_clients15chatgpt_desktopNtB2_20ChatGptDesktopClient21remove_chatgpt_config
FNDA:0,_RNvMNtNtNtCs4Q4w8IwqgUj_6icarus5utils11mcp_clients15chatgpt_desktopNtB2_20ChatGptDesktopClient21update_chatgpt_config
FNDA:2,_RNvMNtNtNtCs4Q4w8IwqgUj_6icarus5utils11mcp_clients15chatgpt_desktopNtB2_20ChatGptDesktopClient22find_chatgpt_directory
FNDA:2,_RNvMNtNtNtCs4Q4w8IwqgUj_6icarus5utils11mcp_clients15chatgpt_desktopNtB2_20ChatGptDesktopClient24find_chatgpt_config_path
FNDA:0,_RNvMNtNtNtCs4Q4w8IwqgUj_6icarus5utils11mcp_clients15chatgpt_desktopNtB2_20ChatGptDesktopClient30generate_chatgpt_server_config
FNDA:4,_RNvMNtNtNtCs4Q4w8IwqgUj_6icarus5utils11mcp_clients15chatgpt_desktopNtB2_20ChatGptDesktopClient3new
FNDA:3,_RNvXs_NtNtNtCs4Q4w8IwqgUj_6icarus5utils11mcp_clients15chatgpt_desktopNtB4_20ChatGptDesktopClientNtB6_9McpClient11client_type
FNDA:0,_RNvXs_NtNtNtCs4Q4w8IwqgUj_6icarus5utils11mcp_clients15chatgpt_desktopNtB4_20ChatGptDesktopClientNtB6_9McpClient12list_servers
FNDA:0,_RNvXs_NtNtNtCs4Q4w8IwqgUj_6icarus5utils11mcp_clients15chatgpt_desktopNtB4_20ChatGptDesktopClientNtB6_9McpClient13remove_config
FNDA:0,_RNvXs_NtNtNtCs4Q4w8IwqgUj_6icarus5utils11mcp_clients15chatgpt_desktopNtB4_20ChatGptDesktopClientNtB6_9McpClient13update_config
FNDA:0,_RNvXs_NtNtNtCs4Q4w8IwqgUj_6icarus5utils11mcp_clients15chatgpt_desktopNtB4_20ChatGptDesktopClientNtB6_9McpClient15validate_config
FNDA:0,_RNvXs_NtNtNtCs4Q4w8IwqgUj_6icarus5utils11mcp_clients15chatgpt_desktopNtB4_20ChatGptDesktopClientNtB6_9McpClient16find_config_path
FNDA:2,_RNvXs_NtNtNtCs4Q4w8IwqgUj_6icarus5utils11mcp_clients15chatgpt_desktopNtB4_20ChatGptDesktopClientNtB6_9McpClient19detect_installation
FNDA:0,_RNvXs_NtNtNtCs4Q4w8IwqgUj_6icarus5utils11mcp_clients15chatgpt_desktopNtB4_20ChatGptDesktopClientNtB6_9McpClient22generate_server_config
FNDA:0,_RNCNvMNtNtNtCs4Q4w8IwqgUj_6icarus5utils11mcp_clients15chatgpt_desktopNtB4_20ChatGptDesktopClient20list_chatgpt_servers0Ba_
FNDA:0,_RNCNvMNtNtNtCs4Q4w8IwqgUj_6icarus5utils11mcp_clients15chatgpt_desktopNtB4_20ChatGptDesktopClient20list_chatgpt_serverss_0Ba_
FNDA:0,_RNCNvMNtNtNtCs4Q4w8IwqgUj_6icarus5utils11mcp_clients15chatgpt_desktopNtB4_20ChatGptDesktopClient21remove_chatgpt_config0Ba_
FNDA:0,_RNCNvMNtNtNtCs4Q4w8IwqgUj_6icarus5utils11mcp_clients15chatgpt_desktopNtB4_20ChatGptDesktopClient21update_chatgpt_config0Ba_
FNDA:0,_RNCNvMNtNtNtCs4Q4w8IwqgUj_6icarus5utils11mcp_clients15chatgpt_desktopNtB4_20ChatGptDesktopClient21update_chatgpt_configs_0Ba_
FNDA:0,_RNCNvMNtNtNtCs4Q4w8IwqgUj_6icarus5utils11mcp_clients15chatgpt_desktopNtB4_20ChatGptDesktopClient30generate_chatgpt_server_config0Ba_
FNDA:0,_RNCNvMNtNtNtCs4Q4w8IwqgUj_6icarus5utils11mcp_clients15chatgpt_desktopNtB4_20ChatGptDesktopClient30generate_chatgpt_server_configs_0Ba_
FNDA:0,_RNCNvXs_NtNtNtCs4Q4w8IwqgUj_6icarus5utils11mcp_clients15chatgpt_desktopNtB6_20ChatGptDesktopClientNtB8_9McpClient19detect_installation0Bc_
FNF:23
FNH:5
DA:12,4
DA:13,4
DA:14,4
DA:17,2
DA:18,2
DA:23,2
DA:24,2
DA:32,2
DA:35,2
DA:36,2
DA:40,2
DA:42,2
DA:43,2
DA:46,0
DA:48,0
DA:49,0
DA:50,0
DA:52,0
DA:53,0
DA:54,0
DA:55,0
DA:56,0
DA:57,0
DA:60,0
DA:63,0
DA:64,0
DA:65,0
DA:66,0
DA:67,0
DA:69,0
DA:70,0
DA:71,0
DA:74,0
DA:75,0
DA:76,0
DA:77,0
DA:78,0
DA:83,0
DA:84,0
DA:85,0
DA:86,0
DA:87,0
DA:88,0
DA:91,0
DA:92,0
DA:93,0
DA:94,0
DA:95,0
DA:96,0
DA:97,0
DA:98,0
DA:102,0
DA:103,0
DA:105,0
DA:106,0
DA:109,0
DA:110,0
DA:111,0
DA:112,0
DA:114,0
DA:115,0
DA:117,0
DA:118,0
DA:119,0
DA:121,0
DA:122,0
DA:124,0
DA:125,0
DA:128,0
DA:129,0
DA:130,0
DA:131,0
DA:133,0
DA:134,0
DA:136,0
DA:137,0
DA:138,0
DA:139,0
DA:140,0
DA:142,0
DA:143,0
DA:147,3
DA:148,3
DA:149,3
DA:151,2
DA:154,2
DA:160,2
DA:161,2
DA:162,0
DA:163,0
DA:165,0
DA:169,2
DA:170,2
DA:171,2
DA:172,2
DA:173,2
DA:174,2
DA:176,0
DA:177,0
DA:178,0
DA:180,0
DA:181,0
DA:182,0
DA:184,0
DA:185,0
DA:186,0
DA:188,0
DA:189,0
DA:190,0
DA:192,0
DA:193,0
DA:194,0
DA:196,0
DA:197,0
DA:198,0
DA:199,0
DA:201,0
DA:202,0
DA:205,0
DA:206,0
BRF:0
BRH:0
LF:128
LH:26
end_of_record
SF:/Users/goshea/projects/icarus/icarus-sdk/cli/src/utils/mcp_clients/claude_code.rs
FN:135,_RNvMNtNtNtCs4Q4w8IwqgUj_6icarus5utils11mcp_clients11claude_codeNtB2_16ClaudeCodeClient19is_vscode_installed
FN:117,_RNvMNtNtNtCs4Q4w8IwqgUj_6icarus5utils11mcp_clients11claude_codeNtB2_16ClaudeCodeClient24list_claude_code_servers
FN:98,_RNvMNtNtNtCs4Q4w8IwqgUj_6icarus5utils11mcp_clients11claude_codeNtB2_16ClaudeCodeClient25remove_claude_code_config
FN:52,_RNvMNtNtNtCs4Q4w8IwqgUj_6icarus5utils11mcp_clients11claude_codeNtB2_16ClaudeCodeClient25update_claude_code_config
FN:17,_RNvMNtNtNtCs4Q4w8IwqgUj_6icarus5utils11mcp_clients11claude_codeNtB2_16ClaudeCodeClient26find_claude_code_directory
FN:27,_RNvMNtNtNtCs4Q4w8IwqgUj_6icarus5utils11mcp_clients11claude_codeNtB2_16ClaudeCodeClient28find_claude_code_config_path
FN:35,_RNvMNtNtNtCs4Q4w8IwqgUj_6icarus5utils11mcp_clients11claude_codeNtB2_16ClaudeCodeClient34generate_claude_code_server_config
FN:141,_RNvMNtNtNtCs4Q4w8IwqgUj_6icarus5utils11mcp_clients11claude_codeNtB2_16ClaudeCodeClient34is_claude_code_extension_installed
FN:12,_RNvMNtNtNtCs4Q4w8IwqgUj_6icarus5utils11mcp_clients11claude_codeNtB2_16ClaudeCodeClient3new
FN:151,_RNvXs_NtNtNtCs4Q4w8IwqgUj_6icarus5utils11mcp_clients11claude_codeNtB4_16ClaudeCodeClientNtB6_9McpClient11client_type
FN:193,_RNvXs_NtNtNtCs4Q4w8IwqgUj_6icarus5utils11mcp_clients11claude_codeNtB4_16ClaudeCodeClientNtB6_9McpClient12list_servers
FN:189,_RNvXs_NtNtNtCs4Q4w8IwqgUj_6icarus5utils11mcp_clients11claude_codeNtB4_16ClaudeCodeClientNtB6_9McpClient13remove_config
FN:185,_RNvXs_NtNtNtCs4Q4w8IwqgUj_6icarus5utils11mcp_clients11claude_codeNtB4_16ClaudeCodeClientNtB6_9McpClient13update_config
FN:197,_RNvXs_NtNtNtCs4Q4w8IwqgUj_6icarus5utils11mcp_clients11claude_codeNtB4_16ClaudeCodeClientNtB6_9McpClient15validate_config
FN:177,_RNvXs_NtNtNtCs4Q4w8IwqgUj_6icarus5utils11mcp_clients11claude_codeNtB4_16ClaudeCodeClientNtB6_9McpClient16find_config_path
FN:155,_RNvXs_NtNtNtCs4Q4w8IwqgUj_6icarus5utils11mcp_clients11claude_codeNtB4_16ClaudeCodeClientNtB6_9McpClient19detect_installation
FN:181,_RNvXs_NtNtNtCs4Q4w8IwqgUj_6icarus5utils11mcp_clients11claude_codeNtB4_16ClaudeCodeClientNtB6_9McpClient22generate_server_config
FN:127,_RNCNvMNtNtNtCs4Q4w8IwqgUj_6icarus5utils11mcp_clients11claude_codeNtB4_16ClaudeCodeClient24list_claude_code_servers0Ba_
FN:128,_RNCNvMNtNtNtCs4Q4w8IwqgUj_6icarus5utils11mcp_clients11claude_codeNtB4_16ClaudeCodeClient24list_claude_code_serverss_0Ba_
FN:106,_RNCNvMNtNtNtCs4Q4w8IwqgUj_6icarus5utils11mcp_clients11claude_codeNtB4_16ClaudeCodeClient25remove_claude_code_config0Ba_
FN:72,_RNCNvMNtNtNtCs4Q4w8IwqgUj_6icarus5utils11mcp_clients11claude_codeNtB4_16ClaudeCodeClient25update_claude_code_config0Ba_
FN:81,_RNCNvMNtNtNtCs4Q4w8IwqgUj_6icarus5utils11mcp_clients11claude_codeNtB4_16ClaudeCodeClient25update_claude_code_configs_0Ba_
FN:38,_RNCNvMNtNtNtCs4Q4w8IwqgUj_6icarus5utils11mcp_clients11claude_codeNtB4_16ClaudeCodeClient34generate_claude_code_server_config0Ba_
FN:39,_RNCNvMNtNtNtCs4Q4w8IwqgUj_6icarus5utils11mcp_clients11claude_codeNtB4_16ClaudeCodeClient34generate_claude_code_server_configs_0Ba_
FN:163,_RNCNvXs_NtNtNtCs4Q4w8IwqgUj_6icarus5utils11mcp_clients11claude_codeNtB6_16ClaudeCodeClientNtB8_9McpClient19detect_installation0Bc_
FNDA:2,_RNvMNtNtNtCs4Q4w8IwqgUj_6icarus5utils11mcp_clients11claude_codeNtB2_16ClaudeCodeClient19is_vscode_installed
FNDA:0,_RNvMNtNtNtCs4Q4w8IwqgUj_6icarus5utils11mcp_clients11claude_codeNtB2_16ClaudeCodeClient24list_claude_code_servers
FNDA:0,_RNvMNtNtNtCs4Q4w8IwqgUj_6icarus5utils11mcp_clients11claude_codeNtB2_16ClaudeCodeClient25remove_claude_code_config
FNDA:0,_RNvMNtNtNtCs4Q4w8IwqgUj_6icarus5utils11mcp_clients11claude_codeNtB2_16ClaudeCodeClient25update_claude_code_config
FNDA:2,_RNvMNtNtNtCs4Q4w8IwqgUj_6icarus5utils11mcp_clients11claude_codeNtB2_16ClaudeCodeClient26find_claude_code_directory
FNDA:0,_RNvMNtNtNtCs4Q4w8IwqgUj_6icarus5utils11mcp_clients11claude_codeNtB2_16ClaudeCodeClient28find_claude_code_config_path
FNDA:0,_RNvMNtNtNtCs4Q4w8IwqgUj_6icarus5utils11mcp_clients11claude_codeNtB2_16ClaudeCodeClient34generate_claude_code_server_config
FNDA:2,_RNvMNtNtNtCs4Q4w8IwqgUj_6icarus5utils11mcp_clients11claude_codeNtB2_16ClaudeCodeClient34is_claude_code_extension_installed
FNDA:4,_RNvMNtNtNtCs4Q4w8IwqgUj_6icarus5utils11mcp_clients11claude_codeNtB2_16ClaudeCodeClient3new
FNDA:2,_RNvXs_NtNtNtCs4Q4w8IwqgUj_6icarus5utils11mcp_clients11claude_codeNtB4_16ClaudeCodeClientNtB6_9McpClient11client_type
FNDA:0,_RNvXs_NtNtNtCs4Q4w8IwqgUj_6icarus5utils11mcp_clients11claude_codeNtB4_16ClaudeCodeClientNtB6_9McpClient12list_servers
FNDA:0,_RNvXs_NtNtNtCs4Q4w8IwqgUj_6icarus5utils11mcp_clients11claude_codeNtB4_16ClaudeCodeClientNtB6_9McpClient13remove_config
FNDA:0,_RNvXs_NtNtNtCs4Q4w8IwqgUj_6icarus5utils11mcp_clients11claude_codeNtB4_16ClaudeCodeClientNtB6_9McpClient13update_config
FNDA:0,_RNvXs_NtNtNtCs4Q4w8IwqgUj_6icarus5utils11mcp_clients11claude_codeNtB4_16ClaudeCodeClientNtB6_9McpClient15validate_config
FNDA:0,_RNvXs_NtNtNtCs4Q4w8IwqgUj_6icarus5utils11mcp_clients11claude_codeNtB4_16ClaudeCodeClientNtB6_9McpClient16find_config_path
FNDA:2,_RNvXs_NtNtNtCs4Q4w8IwqgUj_6icarus5utils11mcp_clients11claude_codeNtB4_16ClaudeCodeClientNtB6_9McpClient19detect_installation
FNDA:0,_RNvXs_NtNtNtCs4Q4w8IwqgUj_6icarus5utils11mcp_clients11claude_codeNtB4_16ClaudeCodeClientNtB6_9McpClient22generate_server_config
FNDA:0,_RNCNvMNtNtNtCs4Q4w8IwqgUj_6icarus5utils11mcp_clients11claude_codeNtB4_16ClaudeCodeClient24list_claude_code_servers0Ba_
FNDA:0,_RNCNvMNtNtNtCs4Q4w8IwqgUj_6icarus5utils11mcp_clients11claude_codeNtB4_16ClaudeCodeClient24list_claude_code_serverss_0Ba_
FNDA:0,_RNCNvMNtNtNtCs4Q4w8IwqgUj_6icarus5utils11mcp_clients11claude_codeNtB4_16ClaudeCodeClient25remove_claude_code_config0Ba_
FNDA:0,_RNCNvMNtNtNtCs4Q4w8IwqgUj_6icarus5utils11mcp_clients11claude_codeNtB4_16ClaudeCodeClient25update_claude_code_config0Ba_
FNDA:0,_RNCNvMNtNtNtCs4Q4w8IwqgUj_6icarus5utils11mcp_clients11claude_codeNtB4_16ClaudeCodeClient25update_claude_code_configs_0Ba_
FNDA:0,_RNCNvMNtNtNtCs4Q4w8IwqgUj_6icarus5utils11mcp_clients11claude_codeNtB4_16ClaudeCodeClient34generate_claude_code_server_config0Ba_
FNDA:0,_RNCNvMNtNtNtCs4Q4w8IwqgUj_6icarus5utils11mcp_clients11claude_codeNtB4_16ClaudeCodeClient34generate_claude_code_server_configs_0Ba_
FNDA:0,_RNCNvXs_NtNtNtCs4Q4w8IwqgUj_6icarus5utils11mcp_clients11claude_codeNtB6_16ClaudeCodeClientNtB8_9McpClient19detect_installation0Bc_
FNF:25
FNH:6
DA:12,4
DA:13,4
DA:14,4
DA:17,2
DA:18,2
DA:21,2
DA:23,2
DA:24,2
DA:27,0
DA:28,0
DA:29,0
DA:31,0
DA:32,0
DA:35,0
DA:37,0
DA:38,0
DA:39,0
DA:41,0
DA:42,0
DA:43,0
DA:44,0
DA:45,0
DA:46,0
DA:49,0
DA:52,0
DA:53,0
DA:54,0
DA:55,0
DA:56,0
DA:58,0
DA:59,0
DA:60,0
DA:63,0
DA:64,0
DA:65,0
DA:66,0
DA:67,0
DA:72,0
DA:73,0
DA:74,0
DA:75,0
DA:76,0
DA:77,0
DA:80,0
DA:81,0
DA:82,0
DA:83,0
DA:84,0
DA:85,0
DA:86,0
DA:87,0
DA:91,0
DA:92,0
DA:94,0
DA:95,0
DA:98,0
DA:99,0
DA:100,0
DA:101,0
DA:103,0
DA:104,0
DA:106,0
DA:107,0
DA:108,0
DA:110,0
DA:111,0
DA:113,0
DA:114,0
DA:117,0
DA:118,0
DA:119,0
DA:120,0
DA:122,0
DA:123,0
DA:125,0
DA:126,0
DA:127,0
DA:128,0
DA:129,0
DA:131,0
DA:132,0
DA:135,2
DA:136,2
DA:137,0
DA:138,2
DA:141,2
DA:142,2
DA:143,2
DA:145,0
DA:147,2
DA:151,2
DA:152,2
DA:153,2
DA:155,2
DA:157,2
DA:158,2
DA:159,2
DA:162,2
DA:163,0
DA:164,0
DA:165,0
DA:167,2
DA:170,2
DA:171,2
DA:172,2
DA:173,2
DA:174,2
DA:175,2
DA:177,0
DA:178,0
DA:179,0
DA:181,0
DA:182,0
DA:183,0
DA:185,0
DA:186,0
DA:187,0
DA:189,0
DA:190,0
DA:191,0
DA:193,0
DA:194,0
DA:195,0
DA:197,0
DA:198,0
DA:199,0
DA:200,0
DA:202,0
DA:203,0
DA:206,0
DA:207,0
BRF:0
BRH:0
LF:139
LH:30
end_of_record
SF:/Users/goshea/projects/icarus/icarus-sdk/cli/src/utils/mcp_clients/claude_desktop.rs
FN:157,_RNvMNtNtNtCs4Q4w8IwqgUj_6icarus5utils11mcp_clients14claude_desktopNtB2_19ClaudeDesktopClient19list_claude_servers
FN:138,_RNvMNtNtNtCs4Q4w8IwqgUj_6icarus5utils11mcp_clients14claude_desktopNtB2_19ClaudeDesktopClient20remove_claude_config
FN:92,_RNvMNtNtNtCs4Q4w8IwqgUj_6icarus5utils11mcp_clients14claude_desktopNtB2_19ClaudeDesktopClient20update_claude_config
FN:48,_RNvMNtNtNtCs4Q4w8IwqgUj_6icarus5utils11mcp_clients14claude_desktopNtB2_19ClaudeDesktopClient21find_claude_directory
FN:17,_RNvMNtNtNtCs4Q4w8IwqgUj_6icarus5utils11mcp_clients14claude_desktopNtB2_19ClaudeDesktopClient23find_claude_config_path
FN:76,_RNvMNtNtNtCs4Q4w8IwqgUj_6icarus5utils11mcp_clients14claude_desktopNtB2_19ClaudeDesktopClient29generate_claude_server_config
FN:12,_RNvMNtNtNtCs4Q4w8IwqgUj_6icarus5utils11mcp_clients14claude_desktopNtB2_19ClaudeDesktopClient3new
FN:176,_RNvXs_NtNtNtCs4Q4w8IwqgUj_6icarus5utils11mcp_clients14claude_desktopNtB4_19ClaudeDesktopClientNtB6_9McpClient11client_type
FN:221,_RNvXs_NtNtNtCs4Q4w8IwqgUj_6icarus5utils11mcp_clients14claude_desktopNtB4_19ClaudeDesktopClientNtB6_9McpClient12list_servers
FN:217,_RNvXs_NtNtNtCs4Q4w8IwqgUj_6icarus5utils11mcp_clients14claude_desktopNtB4_19ClaudeDesktopClientNtB6_9McpClient13remove_config
FN:213,_RNvXs_NtNtNtCs4Q4w8IwqgUj_6icarus5utils11mcp_clients14claude_desktopNtB4_19ClaudeDesktopClientNtB6_9McpClient13update_config
FN:225,_RNvXs_NtNtNtCs4Q4w8IwqgUj_6icarus5utils11mcp_clients14claude_desktopNtB4_19ClaudeDesktopClientNtB6_9McpClient15validate_config
FN:205,_RNvXs_NtNtNtCs4Q4w8IwqgUj_6icarus5utils11mcp_clients14claude_desktopNtB4_19ClaudeDesktopClientNtB6_9McpClient16find_config_path
FN:180,_RNvXs_NtNtNtCs4Q4w8IwqgUj_6icarus5utils11mcp_clients14claude_desktopNtB4_19ClaudeDesktopClientNtB6_9McpClient19detect_installation
FN:209,_RNvXs_NtNtNtCs4Q4w8IwqgUj_6icarus5utils11mcp_clients14claude_desktopNtB4_19ClaudeDesktopClientNtB6_9McpClient22generate_server_config
FN:411,_RNvNtNtNtNtCs4Q4w8IwqgUj_6icarus5utils11mcp_clients14claude_desktop5testss_20test_validate_config
FN:372,_RNvNtNtNtNtCs4Q4w8IwqgUj_6icarus5utils11mcp_clients14claude_desktop5testss_24test_list_claude_servers
FN:344,_RNvNtNtNtNtCs4Q4w8IwqgUj_6icarus5utils11mcp_clients14claude_desktop5testss_25test_remove_claude_config
FN:429,_RNvNtNtNtNtCs4Q4w8IwqgUj_6icarus5utils11mcp_clients14claude_desktop5testss_28test_validate_config_invalid
FN:251,_RNvNtNtNtNtCs4Q4w8IwqgUj_6icarus5utils11mcp_clients14claude_desktop5testss_34test_generate_claude_server_config
FN:277,_RNvNtNtNtNtCs4Q4w8IwqgUj_6icarus5utils11mcp_clients14claude_desktop5testss_34test_update_claude_config_new_file
FN:245,_RNvNtNtNtNtCs4Q4w8IwqgUj_6icarus5utils11mcp_clients14claude_desktop5testss_35test_claude_desktop_client_creation
FN:395,_RNvNtNtNtNtCs4Q4w8IwqgUj_6icarus5utils11mcp_clients14claude_desktop5testss_35test_list_claude_servers_empty_file
FN:306,_RNvNtNtNtNtCs4Q4w8IwqgUj_6icarus5utils11mcp_clients14claude_desktop5testss_39test_update_claude_config_existing_file
FN:189,_RNCNCNvXs_NtNtNtCs4Q4w8IwqgUj_6icarus5utils11mcp_clients14claude_desktopNtB8_19ClaudeDesktopClientNtBa_9McpClient19detect_installation00Be_
FN:167,_RNCNvMNtNtNtCs4Q4w8IwqgUj_6icarus5utils11mcp_clients14claude_desktopNtB4_19ClaudeDesktopClient19list_claude_servers0Ba_
FN:168,_RNCNvMNtNtNtCs4Q4w8IwqgUj_6icarus5utils11mcp_clients14claude_desktopNtB4_19ClaudeDesktopClient19list_claude_serverss_0Ba_
FN:146,_RNCNvMNtNtNtCs4Q4w8IwqgUj_6icarus5utils11mcp_clients14claude_desktopNtB4_19ClaudeDesktopClient20remove_claude_config0Ba_
FN:112,_RNCNvMNtNtNtCs4Q4w8IwqgUj_6icarus5utils11mcp_clients14claude_desktopNtB4_19ClaudeDesktopClient20update_claude_config0Ba_
FN:121,_RNCNvMNtNtNtCs4Q4w8IwqgUj_6icarus5utils11mcp_clients14claude_desktopNtB4_19ClaudeDesktopClient20update_claude_configs_0Ba_
FN:49,_RNCNvMNtNtNtCs4Q4w8IwqgUj_6icarus5utils11mcp_clients14claude_desktopNtB4_19ClaudeDesktopClient21find_claude_directory0Ba_
FN:79,_RNCNvMNtNtNtCs4Q4w8IwqgUj_6icarus5utils11mcp_clients14claude_desktopNtB4_19ClaudeDesktopClient29generate_claude_server_config0Ba_
FN:80,_RNCNvMNtNtNtCs4Q4w8IwqgUj_6icarus5utils11mcp_clients14claude_desktopNtB4_19ClaudeDesktopClient29generate_claude_server_configs_0Ba_
FN:187,_RNCNvXs_NtNtNtCs4Q4w8IwqgUj_6icarus5utils11mcp_clients14claude_desktopNtB6_19ClaudeDesktopClientNtB8_9McpClient19detect_installation0Bc_
FN:194,_RNCNvXs_NtNtNtCs4Q4w8IwqgUj_6icarus5utils11mcp_clients14claude_desktopNtB6_19ClaudeDesktopClientNtB8_9McpClient19detect_installations_0Bc_
FNDA:2,_RNvMNtNtNtCs4Q4w8IwqgUj_6icarus5utils11mcp_clients14claude_desktopNtB2_19ClaudeDesktopClient19list_claude_servers
FNDA:1,_RNvMNtNtNtCs4Q4w8IwqgUj_6icarus5utils11mcp_clients14claude_desktopNtB2_19ClaudeDesktopClient20remove_claude_config
FNDA:2,_RNvMNtNtNtCs4Q4w8IwqgUj_6icarus5utils11mcp_clients14claude_desktopNtB2_19ClaudeDesktopClient20update_claude_config
FNDA:2,_RNvMNtNtNtCs4Q4w8IwqgUj_6icarus5utils11mcp_clients14claude_desktopNtB2_19ClaudeDesktopClient21find_claude_directory
FNDA:2,_RNvMNtNtNtCs4Q4w8IwqgUj_6icarus5utils11mcp_clients14claude_desktopNtB2_19ClaudeDesktopClient23find_claude_config_path
FNDA:1,_RNvMNtNtNtCs4Q4w8IwqgUj_6icarus5utils11mcp_clients14claude_desktopNtB2_19ClaudeDesktopClient29generate_claude_server_config
FNDA:7,_RNvMNtNtNtCs4Q4w8IwqgUj_6icarus5utils11mcp_clients14claude_desktopNtB2_19ClaudeDesktopClient3new
FNDA:5,_RNvXs_NtNtNtCs4Q4w8IwqgUj_6icarus5utils11mcp_clients14claude_desktopNtB4_19ClaudeDesktopClientNtB6_9McpClient11client_type
FNDA:0,_RNvXs_NtNtNtCs4Q4w8IwqgUj_6icarus5utils11mcp_clients14claude_desktopNtB4_19ClaudeDesktopClientNtB6_9McpClient12list_servers
FNDA:0,_RNvXs_NtNtNtCs4Q4w8IwqgUj_6icarus5utils11mcp_clients14claude_desktopNtB4_19ClaudeDesktopClientNtB6_9McpClient13remove_config
FNDA:0,_RNvXs_NtNtNtCs4Q4w8IwqgUj_6icarus5utils11mcp_clients14claude_desktopNtB4_19ClaudeDesktopClientNtB6_9McpClient13update_config
FNDA:2,_RNvXs_NtNtNtCs4Q4w8IwqgUj_6icarus5utils11mcp_clients14claude_desktopNtB4_19ClaudeDesktopClientNtB6_9McpClient15validate_config
FNDA:0,_RNvXs_NtNtNtCs4Q4w8IwqgUj_6icarus5utils11mcp_clients14claude_desktopNtB4_19ClaudeDesktopClientNtB6_9McpClient16find_config_path
FNDA:2,_RNvXs_NtNtNtCs4Q4w8IwqgUj_6icarus5utils11mcp_clients14claude_desktopNtB4_19ClaudeDesktopClientNtB6_9McpClient19detect_installation
FNDA:0,_RNvXs_NtNtNtCs4Q4w8IwqgUj_6icarus5utils11mcp_clients14claude_desktopNtB4_19ClaudeDesktopClientNtB6_9McpClient22generate_server_config
FNDA:1,_RNvNtNtNtNtCs4Q4w8IwqgUj_6icarus5utils11mcp_clients14claude_desktop5testss_20test_validate_config
FNDA:1,_RNvNtNtNtNtCs4Q4w8IwqgUj_6icarus5utils11mcp_clients14claude_desktop5testss_24test_list_claude_servers
FNDA:1,_RNvNtNtNtNtCs4Q4w8IwqgUj_6icarus5utils11mcp_clients14claude_desktop5testss_25test_remove_claude_config
FNDA:1,_RNvNtNtNtNtCs4Q4w8IwqgUj_6icarus5utils11mcp_clients14claude_desktop5testss_28test_validate_config_invalid
FNDA:1,_RNvNtNtNtNtCs4Q4w8IwqgUj_6icarus5utils11mcp_clients14claude_desktop5testss_34test_generate_claude_server_config
FNDA:1,_RNvNtNtNtNtCs4Q4w8IwqgUj_6icarus5utils11mcp_clients14claude_desktop5testss_34test_update_claude_config_new_file
FNDA:1,_RNvNtNtNtNtCs4Q4w8IwqgUj_6icarus5utils11mcp_clients14claude_desktop5testss_35test_claude_desktop_client_creation
FNDA:1,_RNvNtNtNtNtCs4Q4w8IwqgUj_6icarus5utils11mcp_clients14claude_desktop5testss_35test_list_claude_servers_empty_file
FNDA:1,_RNvNtNtNtNtCs4Q4w8IwqgUj_6icarus5utils11mcp_clients14claude_desktop5testss_39test_update_claude_config_existing_file
FNDA:0,_RNCNCNvXs_NtNtNtCs4Q4w8IwqgUj_6icarus5utils11mcp_clients14claude_desktopNtB8_19ClaudeDesktopClientNtBa_9McpClient19detect_installation00Be_
FNDA:2,_RNCNvMNtNtNtCs4Q4w8IwqgUj_6icarus5utils11mcp_clients14claude_desktopNtB4_19ClaudeDesktopClient19list_claude_servers0Ba_
FNDA:2,_RNCNvMNtNtNtCs4Q4w8IwqgUj_6icarus5utils11mcp_clients14claude_desktopNtB4_19ClaudeDesktopClient19list_claude_serverss_0Ba_
FNDA:1,_RNCNvMNtNtNtCs4Q4w8IwqgUj_6icarus5utils11mcp_clients14claude_desktopNtB4_19ClaudeDesktopClient20remove_claude_config0Ba_
FNDA:2,_RNCNvMNtNtNtCs4Q4w8IwqgUj_6icarus5utils11mcp_clients14claude_desktopNtB4_19ClaudeDesktopClient20update_claude_config0Ba_
FNDA:0,_RNCNvMNtNtNtCs4Q4w8IwqgUj_6icarus5utils11mcp_clients14claude_desktopNtB4_19ClaudeDesktopClient20update_claude_configs_0Ba_
FNDA:0,_RNCNvMNtNtNtCs4Q4w8IwqgUj_6icarus5utils11mcp_clients14claude_desktopNtB4_19ClaudeDesktopClient21find_claude_directory0Ba_
FNDA:1,_RNCNvMNtNtNtCs4Q4w8IwqgUj_6icarus5utils11mcp_clients14claude_desktopNtB4_19ClaudeDesktopClient29generate_claude_server_config0Ba_
FNDA:0,_RNCNvMNtNtNtCs4Q4w8IwqgUj_6icarus5utils11mcp_clients14claude_desktopNtB4_19ClaudeDesktopClient29generate_claude_server_configs_0Ba_
FNDA:0,_RNCNvXs_NtNtNtCs4Q4w8IwqgUj_6icarus5utils11mcp_clients14claude_desktopNtB6_19ClaudeDesktopClientNtB8_9McpClient19detect_installation0Bc_
FNDA:0,_RNCNvXs_NtNtNtCs4Q4w8IwqgUj_6icarus5utils11mcp_clients14claude_desktopNtB6_19ClaudeDesktopClientNtB8_9McpClient19detect_installations_0Bc_
FNF:35
FNH:24
DA:12,7
DA:13,7
DA:14,7
DA:17,2
DA:19,2
DA:20,2
DA:22,2
DA:24,2
DA:25,2
DA:26,2
DA:27,2
DA:28,2
DA:29,2
DA:30,0
DA:31,0
DA:33,0
DA:36,0
DA:39,0
DA:40,0
DA:41,0
DA:42,0
DA:44,0
DA:45,2
DA:48,2
DA:49,2
DA:52,2
DA:53,2
DA:54,2
DA:55,2
DA:58,2
DA:59,2
DA:60,2
DA:61,0
DA:66,0
DA:73,2
DA:76,1
DA:78,1
DA:79,1
DA:80,1
DA:82,1
DA:83,1
DA:84,1
DA:85,1
DA:86,1
DA:89,1
DA:92,2
DA:93,2
DA:94,2
DA:95,2
DA:96,2
DA:98,2
DA:99,1
DA:100,1
DA:103,1
DA:104,1
DA:105,0
DA:106,1
DA:107,1
DA:112,2
DA:113,2
DA:114,4
DA:115,2
DA:116,2
DA:117,0
DA:120,0
DA:121,0
DA:122,0
DA:123,0
DA:124,0
DA:125,0
DA:126,0
DA:127,0
DA:131,2
DA:132,2
DA:134,2
DA:135,2
DA:138,1
DA:139,1
DA:140,0
DA:141,1
DA:143,1
DA:144,1
DA:146,1
DA:147,1
DA:148,1
DA:150,1
DA:151,1
DA:153,1
DA:154,1
DA:157,2
DA:158,2
DA:159,0
DA:160,2
DA:162,2
DA:163,2
DA:165,2
DA:166,2
DA:167,2
DA:168,2
DA:169,2
DA:171,2
DA:172,2
DA:176,5
DA:177,5
DA:178,5
DA:180,2
DA:182,2
DA:183,0
DA:186,2
DA:187,2
DA:188,0
DA:189,0
DA:190,0
DA:191,0
DA:193,0
DA:194,0
DA:195,0
DA:198,2
DA:199,2
DA:200,2
DA:201,2
DA:202,2
DA:203,2
DA:205,0
DA:206,0
DA:207,0
DA:209,0
DA:210,0
DA:211,0
DA:213,0
DA:214,0
DA:215,0
DA:217,0
DA:218,0
DA:219,0
DA:221,0
DA:222,0
DA:223,0
DA:225,2
DA:226,2
DA:227,0
DA:228,2
DA:230,2
DA:231,2
DA:234,2
DA:235,2
DA:245,1
DA:246,1
DA:247,1
DA:248,1
DA:251,1
DA:252,1
DA:255,1
DA:256,1
DA:257,1
DA:259,1
DA:260,1
DA:262,1
DA:263,1
DA:264,1
DA:265,1
DA:268,1
DA:269,1
DA:270,1
DA:271,1
DA:272,1
DA:273,1
DA:274,1
DA:277,1
DA:278,1
DA:279,1
DA:282,1
DA:284,1
DA:285,1
DA:286,1
DA:287,1
DA:288,1
DA:292,1
DA:293,1
DA:296,1
DA:297,1
DA:298,1
DA:300,1
DA:301,1
DA:302,1
DA:303,1
DA:306,1
DA:307,1
DA:310,1
DA:311,1
DA:312,1
DA:313,1
DA:314,1
DA:318,1
DA:319,1
DA:321,1
DA:323,1
DA:324,1
DA:325,1
DA:326,1
DA:327,1
DA:331,1
DA:332,1
DA:335,1
DA:336,1
DA:338,1
DA:339,1
DA:340,1
DA:341,1
DA:344,1
DA:345,1
DA:348,1
DA:349,1
DA:350,1
DA:351,1
DA:354,1
DA:355,1
DA:357,1
DA:359,1
DA:360,1
DA:363,1
DA:364,1
DA:366,1
DA:367,1
DA:368,1
DA:369,1
DA:372,1
DA:373,1
DA:375,1
DA:376,1
DA:377,1
DA:378,1
DA:379,1
DA:382,1
DA:383,1
DA:385,1
DA:386,1
DA:388,1
DA:389,1
DA:390,1
DA:391,1
DA:392,1
DA:395,1
DA:396,1
DA:398,1
DA:399,1
DA:401,1
DA:402,1
DA:404,1
DA:405,1
DA:407,1
DA:408,1
DA:411,1
DA:412,1
DA:414,1
DA:415,1
DA:416,1
DA:419,1
DA:420,1
DA:422,1
DA:423,1
DA:425,1
DA:426,1
DA:429,1
DA:430,1
DA:432,1
DA:433,1
DA:435,1
DA:436,1
DA:438,1
DA:439,1
DA:441,1
DA:442,1
BRF:0
BRH:0
LF:284
LH:231
end_of_record
SF:/Users/goshea/projects/icarus/icarus-sdk/cli/src/utils/mcp_clients/client_detector.rs
FN:12,_RNCNvNtNtNtCs4Q4w8IwqgUj_6icarus5utils11mcp_clients15client_detector19get_app_support_dir0B9_
FN:13,_RNCNvNtNtNtCs4Q4w8IwqgUj_6icarus5utils11mcp_clients15client_detector19get_app_support_dirs_0B9_
FN:33,_RNCNvNtNtNtCs4Q4w8IwqgUj_6icarus5utils11mcp_clients15client_detector25get_vscode_extensions_dir0B9_
FN:34,_RNCNvNtNtNtCs4Q4w8IwqgUj_6icarus5utils11mcp_clients15client_detector25get_vscode_extensions_dirs_0B9_
FN:52,_RNvNtNtNtCs4Q4w8IwqgUj_6icarus5utils11mcp_clients15client_detector19check_app_installed
FN:8,_RNvNtNtNtCs4Q4w8IwqgUj_6icarus5utils11mcp_clients15client_detector19get_app_support_dir
FN:29,_RNvNtNtNtCs4Q4w8IwqgUj_6icarus5utils11mcp_clients15client_detector25get_vscode_extensions_dir
FN:112,_RNvNtNtNtNtCs4Q4w8IwqgUj_6icarus5utils11mcp_clients15client_detector5testss_24test_get_app_support_dir
FNDA:3,_RNCNvNtNtNtCs4Q4w8IwqgUj_6icarus5utils11mcp_clients15client_detector19get_app_support_dir0B9_
FNDA:0,_RNCNvNtNtNtCs4Q4w8IwqgUj_6icarus5utils11mcp_clients15client_detector19get_app_support_dirs_0B9_
FNDA:2,_RNCNvNtNtNtCs4Q4w8IwqgUj_6icarus5utils11mcp_clients15client_detector25get_vscode_extensions_dir0B9_
FNDA:0,_RNCNvNtNtNtCs4Q4w8IwqgUj_6icarus5utils11mcp_clients15client_detector25get_vscode_extensions_dirs_0B9_
FNDA:6,_RNvNtNtNtCs4Q4w8IwqgUj_6icarus5utils11mcp_clients15client_detector19check_app_installed
FNDA:3,_RNvNtNtNtCs4Q4w8IwqgUj_6icarus5utils11mcp_clients15client_detector19get_app_support_dir
FNDA:2,_RNvNtNtNtCs4Q4w8IwqgUj_6icarus5utils11mcp_clients15client_detector25get_vscode_extensions_dir
FNDA:1,_RNvNtNtNtNtCs4Q4w8IwqgUj_6icarus5utils11mcp_clients15client_detector5testss_24test_get_app_support_dir
FNF:8
FNH:6
DA:8,3
DA:11,3
DA:12,3
DA:13,3
DA:26,3
DA:29,2
DA:32,2
DA:33,2
DA:34,2
DA:48,2
DA:52,6
DA:54,6
DA:55,4
DA:56,2
DA:61,2
DA:62,2
DA:63,2
DA:64,0
DA:103,0
DA:104,6
DA:112,1
DA:113,1
DA:114,1
DA:115,1
BRF:0
BRH:0
LF:28
LH:24
end_of_record
SF:/Users/goshea/projects/icarus/icarus-sdk/cli/src/utils/mcp_clients/mod.rs
FN:25,_RNvMNtNtCs4Q4w8IwqgUj_6icarus5utils11mcp_clientsNtB2_10ClientType12display_name
FN:44,_RNvMNtNtCs4Q4w8IwqgUj_6icarus5utils11mcp_clientsNtB2_10ClientType3all
FN:34,_RNvMNtNtCs4Q4w8IwqgUj_6icarus5utils11mcp_clientsNtB2_10ClientType5emoji
FN:108,_RNvMs_NtNtCs4Q4w8IwqgUj_6icarus5utils11mcp_clientsNtB4_14ClientRegistry10get_client
FN:116,_RNvMs_NtNtCs4Q4w8IwqgUj_6icarus5utils11mcp_clientsNtB4_14ClientRegistry19get_all_client_info
FN:96,_RNvMs_NtNtCs4Q4w8IwqgUj_6icarus5utils11mcp_clientsNtB4_14ClientRegistry3new
FN:149,_RNvNtNtNtCs4Q4w8IwqgUj_6icarus5utils11mcp_clients5testss_20test_client_type_all
FN:142,_RNvNtNtNtCs4Q4w8IwqgUj_6icarus5utils11mcp_clients5testss_22test_client_type_emoji
FN:196,_RNvNtNtNtCs4Q4w8IwqgUj_6icarus5utils11mcp_clients5testss_26test_client_info_structure
FN:158,_RNvNtNtNtCs4Q4w8IwqgUj_6icarus5utils11mcp_clients5testss_29test_client_registry_creation
FN:135,_RNvNtNtNtCs4Q4w8IwqgUj_6icarus5utils11mcp_clients5testss_29test_client_type_display_name
FN:164,_RNvNtNtNtCs4Q4w8IwqgUj_6icarus5utils11mcp_clients5testss_31test_client_registry_get_client
FN:181,_RNvNtNtNtCs4Q4w8IwqgUj_6icarus5utils11mcp_clients5testss_40test_client_registry_get_all_client_info
FN:125,_RNvXs0_NtNtCs4Q4w8IwqgUj_6icarus5utils11mcp_clientsNtB5_14ClientRegistryNtNtCsaNl6UpbT7bw_4core7default7Default7default
FN:189,_RNCNvNtNtNtCs4Q4w8IwqgUj_6icarus5utils11mcp_clients5testss_40test_client_registry_get_all_client_info0B9_
FN:111,_RNCNvMs_NtNtCs4Q4w8IwqgUj_6icarus5utils11mcp_clientsNtB6_14ClientRegistry10get_client0Ba_
FN:119,_RNCNvMs_NtNtCs4Q4w8IwqgUj_6icarus5utils11mcp_clientsNtB6_14ClientRegistry19get_all_client_info0Ba_
FNDA:3,_RNvMNtNtCs4Q4w8IwqgUj_6icarus5utils11mcp_clientsNtB2_10ClientType12display_name
FNDA:1,_RNvMNtNtCs4Q4w8IwqgUj_6icarus5utils11mcp_clientsNtB2_10ClientType3all
FNDA:3,_RNvMNtNtCs4Q4w8IwqgUj_6icarus5utils11mcp_clientsNtB2_10ClientType5emoji
FNDA:3,_RNvMs_NtNtCs4Q4w8IwqgUj_6icarus5utils11mcp_clientsNtB4_14ClientRegistry10get_client
FNDA:2,_RNvMs_NtNtCs4Q4w8IwqgUj_6icarus5utils11mcp_clientsNtB4_14ClientRegistry19get_all_client_info
FNDA:4,_RNvMs_NtNtCs4Q4w8IwqgUj_6icarus5utils11mcp_clientsNtB4_14ClientRegistry3new
FNDA:1,_RNvNtNtNtCs4Q4w8IwqgUj_6icarus5utils11mcp_clients5testss_20test_client_type_all
FNDA:1,_RNvNtNtNtCs4Q4w8IwqgUj_6icarus5utils11mcp_clients5testss_22test_client_type_emoji
FNDA:1,_RNvNtNtNtCs4Q4w8IwqgUj_6icarus5utils11mcp_clients5testss_26test_client_info_structure
FNDA:1,_RNvNtNtNtCs4Q4w8IwqgUj_6icarus5utils11mcp_clients5testss_29test_client_registry_creation
FNDA:1,_RNvNtNtNtCs4Q4w8IwqgUj_6icarus5utils11mcp_clients5testss_29test_client_type_display_name
FNDA:1,_RNvNtNtNtCs4Q4w8IwqgUj_6icarus5utils11mcp_clients5testss_31test_client_registry_get_client
FNDA:1,_RNvNtNtNtCs4Q4w8IwqgUj_6icarus5utils11mcp_clients5testss_40test_client_registry_get_all_client_info
FNDA:0,_RNvXs0_NtNtCs4Q4w8IwqgUj_6icarus5utils11mcp_clientsNtB5_14ClientRegistryNtNtCsaNl6UpbT7bw_4core7default7Default7default
FNDA:3,_RNCNvNtNtNtCs4Q4w8IwqgUj_6icarus5utils11mcp_clients5testss_40test_client_registry_get_all_client_info0B9_
FNDA:6,_RNCNvMs_NtNtCs4Q4w8IwqgUj_6icarus5utils11mcp_clientsNtB6_14ClientRegistry10get_client0Ba_
FNDA:6,_RNCNvMs_NtNtCs4Q4w8IwqgUj_6icarus5utils11mcp_clientsNtB6_14ClientRegistry19get_all_client_info0Ba_
FNF:17
FNH:16
DA:25,3
DA:26,3
DA:27,1
DA:28,1
DA:29,1
DA:31,3
DA:34,3
DA:35,3
DA:36,1
DA:37,1
DA:38,1
DA:40,3
DA:44,1
DA:45,1
DA:46,1
DA:47,1
DA:48,1
DA:50,1
DA:96,4
DA:97,4
DA:98,4
DA:99,4
DA:100,4
DA:101,4
DA:102,4
DA:103,4
DA:104,4
DA:108,3
DA:109,3
DA:110,3
DA:111,6
DA:112,3
DA:116,2
DA:117,2
DA:118,2
DA:119,6
DA:120,2
DA:121,2
DA:125,0
DA:126,0
DA:127,0
DA:135,1
DA:136,1
DA:137,1
DA:138,1
DA:139,1
DA:142,1
DA:143,1
DA:144,1
DA:145,1
DA:146,1
DA:149,1
DA:150,1
DA:151,1
DA:152,1
DA:153,1
DA:154,1
DA:155,1
DA:158,1
DA:159,1
DA:160,1
DA:161,1
DA:164,1
DA:165,1
DA:167,1
DA:168,1
DA:169,1
DA:171,1
DA:172,1
DA:173,1
DA:175,1
DA:176,1
DA:177,1
DA:178,1
DA:181,1
DA:182,1
DA:183,1
DA:186,1
DA:189,3
DA:190,1
DA:191,1
DA:192,1
DA:193,1
DA:196,1
DA:197,1
DA:198,1
DA:200,4
DA:202,3
DA:205,1
BRF:0
BRH:0
LF:92
LH:89
end_of_record
SF:/Users/goshea/projects/icarus/icarus-sdk/cli/src/utils/mod.rs
FN:44,_RNCNvNtCs4Q4w8IwqgUj_6icarus5utils11run_command0B5_
FN:75,_RNCNvNtCs4Q4w8IwqgUj_6icarus5utils23run_command_interactive0B5_
FN:36,_RNvNtCs4Q4w8IwqgUj_6icarus5utils10print_info
FN:28,_RNvNtCs4Q4w8IwqgUj_6icarus5utils11print_error
FN:40,_RNvNtCs4Q4w8IwqgUj_6icarus5utils11run_command
FN:24,_RNvNtCs4Q4w8IwqgUj_6icarus5utils13print_success
FN:32,_RNvNtCs4Q4w8IwqgUj_6icarus5utils13print_warning
FN:12,_RNvNtCs4Q4w8IwqgUj_6icarus5utils14create_spinner
FN:102,_RNvNtCs4Q4w8IwqgUj_6icarus5utils23ensure_directory_exists
FN:71,_RNvNtCs4Q4w8IwqgUj_6icarus5utils23run_command_interactive
FNDA:0,_RNCNvNtCs4Q4w8IwqgUj_6icarus5utils11run_command0B5_
FNDA:0,_RNCNvNtCs4Q4w8IwqgUj_6icarus5utils23run_command_interactive0B5_
FNDA:0,_RNvNtCs4Q4w8IwqgUj_6icarus5utils10print_info
FNDA:0,_RNvNtCs4Q4w8IwqgUj_6icarus5utils11print_error
FNDA:0,_RNvNtCs4Q4w8IwqgUj_6icarus5utils11run_command
FNDA:0,_RNvNtCs4Q4w8IwqgUj_6icarus5utils13print_success
FNDA:0,_RNvNtCs4Q4w8IwqgUj_6icarus5utils13print_warning
FNDA:0,_RNvNtCs4Q4w8IwqgUj_6icarus5utils14create_spinner
FNDA:0,_RNvNtCs4Q4w8IwqgUj_6icarus5utils23ensure_directory_exists
FNDA:0,_RNvNtCs4Q4w8IwqgUj_6icarus5utils23run_command_interactive
FNF:10
FNH:0
DA:12,0
DA:13,0
DA:14,0
DA:15,0
DA:16,0
DA:17,0
DA:19,0
DA:20,0
DA:21,0
DA:22,0
DA:24,0
DA:25,0
DA:26,0
DA:28,0
DA:29,0
DA:30,0
DA:32,0
DA:33,0
DA:34,0
DA:36,0
DA:37,0
DA:38,0
DA:40,0
DA:41,0
DA:42,0
DA:43,0
DA:44,0
DA:47,0
DA:48,0
DA:50,0
DA:51,0
DA:52,0
DA:54,0
DA:56,0
DA:57,0
DA:58,0
DA:59,0
DA:61,0
DA:64,0
DA:66,0
DA:67,0
DA:71,0
DA:72,0
DA:73,0
DA:74,0
DA:75,0
DA:78,0
DA:79,0
DA:80,0
DA:81,0
DA:82,0
DA:84,0
DA:85,0
DA:86,0
DA:88,0
DA:90,0
DA:91,0
DA:92,0
DA:94,0
DA:95,0
DA:97,0
DA:99,0
DA:100,0
DA:102,0
DA:103,0
DA:104,0
DA:105,0
DA:106,0
DA:107,0
BRF:0
BRH:0
LF:71
LH:0
end_of_record
SF:/Users/goshea/projects/icarus/icarus-sdk/cli/src/utils/platform.rs
FN:48,_RNvMNtNtCs4Q4w8IwqgUj_6icarus5utils8platformNtB2_8Platform17archive_extension
FN:41,_RNvMNtNtCs4Q4w8IwqgUj_6icarus5utils8platformNtB2_8Platform18bridge_binary_name
FN:31,_RNvMNtNtCs4Q4w8IwqgUj_6icarus5utils8platformNtB2_8Platform6as_str
FN:17,_RNvMNtNtCs4Q4w8IwqgUj_6icarus5utils8platformNtB2_8Platform6detect
FN:61,_RNvNtNtCs4Q4w8IwqgUj_6icarus5utils8platform22get_bridge_binary_path
FN:67,_RNvNtNtCs4Q4w8IwqgUj_6icarus5utils8platform23get_bridge_download_url
FN:56,_RNvNtNtCs4Q4w8IwqgUj_6icarus5utils8platform23get_bridge_install_path
FNDA:0,_RNvMNtNtCs4Q4w8IwqgUj_6icarus5utils8platformNtB2_8Platform17archive_extension
FNDA:0,_RNvMNtNtCs4Q4w8IwqgUj_6icarus5utils8platformNtB2_8Platform18bridge_binary_name
FNDA:0,_RNvMNtNtCs4Q4w8IwqgUj_6icarus5utils8platformNtB2_8Platform6as_str
FNDA:0,_RNvMNtNtCs4Q4w8IwqgUj_6icarus5utils8platformNtB2_8Platform6detect
FNDA:0,_RNvNtNtCs4Q4w8IwqgUj_6icarus5utils8platform22get_bridge_binary_path
FNDA:0,_RNvNtNtCs4Q4w8IwqgUj_6icarus5utils8platform23get_bridge_download_url
FNDA:0,_RNvNtNtCs4Q4w8IwqgUj_6icarus5utils8platform23get_bridge_install_path
FNF:7
FNH:0
DA:17,0
DA:18,0
DA:19,0
DA:21,0
DA:22,0
DA:23,0
DA:24,0
DA:25,0
DA:26,0
DA:27,0
DA:29,0
DA:31,0
DA:32,0
DA:33,0
DA:34,0
DA:35,0
DA:36,0
DA:37,0
DA:39,0
DA:41,0
DA:42,0
DA:43,0
DA:44,0
DA:46,0
DA:48,0
DA:49,0
DA:50,0
DA:51,0
DA:53,0
DA:56,0
DA:57,0
DA:58,0
DA:59,0
DA:61,0
DA:62,0
DA:63,0
DA:64,0
DA:65,0
DA:67,0
DA:68,0
DA:69,0
DA:71,0
DA:72,0
DA:73,0
DA:74,0
DA:75,0
DA:76,0
DA:77,0
DA:78,0
BRF:0
BRH:0
LF:49
LH:0
end_of_record
SF:/Users/goshea/projects/icarus/icarus-sdk/cli/src/utils/ui.rs
FN:34,_RNCNvNtNtCs4Q4w8IwqgUj_6icarus5utils2ui14display_header0B7_
FN:72,_RNCNvNtNtCs4Q4w8IwqgUj_6icarus5utils2ui36select_clients_interactive_beautiful0B7_
FN:14,_RNvNtNtCs4Q4w8IwqgUj_6icarus5utils2ui12create_theme
FN:33,_RNvNtNtCs4Q4w8IwqgUj_6icarus5utils2ui14display_header
FN:52,_RNvNtNtCs4Q4w8IwqgUj_6icarus5utils2ui15display_section
FN:140,_RNvNtNtCs4Q4w8IwqgUj_6icarus5utils2ui17confirm_beautiful
FN:183,_RNvNtNtCs4Q4w8IwqgUj_6icarus5utils2ui19create_progress_bar
FN:196,_RNvNtNtCs4Q4w8IwqgUj_6icarus5utils2ui19display_config_tree
FN:177,_RNvNtNtCs4Q4w8IwqgUj_6icarus5utils2ui19display_info_styled
FN:167,_RNvNtNtCs4Q4w8IwqgUj_6icarus5utils2ui20display_error_styled
FN:172,_RNvNtNtCs4Q4w8IwqgUj_6icarus5utils2ui22display_warning_styled
FN:19,_RNvNtNtCs4Q4w8IwqgUj_6icarus5utils2ui24create_beautiful_spinner
FN:153,_RNvNtNtCs4Q4w8IwqgUj_6icarus5utils2ui24display_success_animated
FN:59,_RNvNtNtCs4Q4w8IwqgUj_6icarus5utils2ui36select_clients_interactive_beautiful
FNDA:0,_RNCNvNtNtCs4Q4w8IwqgUj_6icarus5utils2ui14display_header0B7_
FNDA:0,_RNCNvNtNtCs4Q4w8IwqgUj_6icarus5utils2ui36select_clients_interactive_beautiful0B7_
FNDA:0,_RNvNtNtCs4Q4w8IwqgUj_6icarus5utils2ui12create_theme
FNDA:0,_RNvNtNtCs4Q4w8IwqgUj_6icarus5utils2ui14display_header
FNDA:0,_RNvNtNtCs4Q4w8IwqgUj_6icarus5utils2ui15display_section
FNDA:0,_RNvNtNtCs4Q4w8IwqgUj_6icarus5utils2ui17confirm_beautiful
FNDA:0,_RNvNtNtCs4Q4w8IwqgUj_6icarus5utils2ui19create_progress_bar
FNDA:0,_RNvNtNtCs4Q4w8IwqgUj_6icarus5utils2ui19display_config_tree
FNDA:0,_RNvNtNtCs4Q4w8IwqgUj_6icarus5utils2ui19display_info_styled
FNDA:0,_RNvNtNtCs4Q4w8IwqgUj_6icarus5utils2ui20display_error_styled
FNDA:0,_RNvNtNtCs4Q4w8IwqgUj_6icarus5utils2ui22display_warning_styled
FNDA:0,_RNvNtNtCs4Q4w8IwqgUj_6icarus5utils2ui24create_beautiful_spinner
FNDA:0,_RNvNtNtCs4Q4w8IwqgUj_6icarus5utils2ui24display_success_animated
FNDA:0,_RNvNtNtCs4Q4w8IwqgUj_6icarus5utils2ui36select_clients_interactive_beautiful
FNF:14
FNH:0
DA:14,0
DA:15,0
DA:16,0
DA:19,0
DA:20,0
DA:21,0
DA:22,0
DA:23,0
DA:24,0
DA:25,0
DA:27,0
DA:28,0
DA:29,0
DA:30,0
DA:33,0
DA:34,0
DA:35,0
DA:36,0
DA:37,0
DA:39,0
DA:40,0
DA:41,0
DA:42,0
DA:43,0
DA:44,0
DA:45,0
DA:47,0
DA:48,0
DA:49,0
DA:52,0
DA:53,0
DA:54,0
DA:55,0
DA:56,0
DA:59,0
DA:60,0
DA:61,0
DA:62,0
DA:63,0
DA:64,0
DA:65,0
DA:67,0
DA:70,0
DA:71,0
DA:72,0
DA:73,0
DA:74,0
DA:75,0
DA:76,0
DA:78,0
DA:81,0
DA:84,0
DA:85,0
DA:86,0
DA:88,0
DA:91,0
DA:94,0
DA:95,0
DA:96,0
DA:97,0
DA:98,0
DA:99,0
DA:100,0
DA:101,0
DA:102,0
DA:105,0
DA:106,0
DA:108,0
DA:110,0
DA:111,0
DA:112,0
DA:113,0
DA:115,0
DA:116,0
DA:117,0
DA:118,0
DA:120,0
DA:121,0
DA:123,0
DA:126,0
DA:127,0
DA:128,0
DA:130,0
DA:131,0
DA:132,0
DA:134,0
DA:136,0
DA:140,0
DA:141,0
DA:143,0
DA:144,0
DA:145,0
DA:146,0
DA:147,0
DA:148,0
DA:149,0
DA:153,0
DA:154,0
DA:155,0
DA:156,0
DA:158,0
DA:159,0
DA:160,0
DA:161,0
DA:162,0
DA:163,0
DA:164,0
DA:167,0
DA:168,0
DA:169,0
DA:172,0
DA:173,0
DA:174,0
DA:177,0
DA:178,0
DA:179,0
DA:183,0
DA:184,0
DA:185,0
DA:186,0
DA:187,0
DA:188,0
DA:189,0
DA:191,0
DA:192,0
DA:193,0
DA:196,0
DA:197,0
DA:199,0
DA:200,0
DA:201,0
DA:203,0
DA:204,0
DA:205,0
DA:206,0
DA:207,0
DA:208,0
DA:210,0
DA:214,0
DA:215,0
DA:216,0
DA:217,0
DA:219,0
DA:220,0
DA:222,0
DA:223,0
DA:224,0
DA:228,0
DA:229,0
DA:230,0
DA:231,0
DA:233,0
DA:234,0
DA:235,0
DA:238,0
DA:239,0
BRF:0
BRH:0
LF:158
LH:0
end_of_record
SF:/Users/goshea/projects/icarus/icarus-sdk/crates/icarus-canister/src/auth.rs
FN:472,_RNvNtCsjQImORMhHZ8_15icarus_canister4auth10list_users
FN:291,_RNvNtCsjQImORMhHZ8_15icarus_canister4auth11remove_user
FN:112,_RNvNtCsjQImORMhHZ8_15icarus_canister4auth12authenticate
FN:405,_RNvNtCsjQImORMhHZ8_15icarus_canister4auth14get_auth_audit
FN:467,_RNvNtCsjQImORMhHZ8_15icarus_canister4auth15get_auth_status
FN:435,_RNvNtCsjQImORMhHZ8_15icarus_canister4auth15log_auth_action
FN:342,_RNvNtCsjQImORMhHZ8_15icarus_canister4auth16update_user_role
FN:205,_RNvNtCsjQImORMhHZ8_15icarus_canister4auth18require_exact_role
FN:382,_RNvNtCsjQImORMhHZ8_15icarus_canister4auth20get_authorized_users
FN:218,_RNvNtCsjQImORMhHZ8_15icarus_canister4auth20require_any_of_roles
FN:231,_RNvNtCsjQImORMhHZ8_15icarus_canister4auth21require_none_of_roles
FN:180,_RNvNtCsjQImORMhHZ8_15icarus_canister4auth22require_role_or_higher
FN:241,_RNvNtCsjQImORMhHZ8_15icarus_canister4auth8add_user
FN:477,_RNvNtCsjQImORMhHZ8_15icarus_canister4auth8get_user
FN:82,_RNvNtCsjQImORMhHZ8_15icarus_canister4auth9init_auth
FN:15,_RINvXs0_NtCsjQImORMhHZ8_15icarus_canister4authNtB6_4UserNtNtCs8Ixg1ZPW7af_6candid5types10CandidType13idl_serializeQNtNtBW_3ser15ValueSerializerEB8_
FN:28,_RINvXs6_NtCsjQImORMhHZ8_15icarus_canister4authNtB6_8AuthRoleNtNtCs8Ixg1ZPW7af_6candid5types10CandidType13idl_serializeQNtNtB10_3ser15ValueSerializerEB8_
FN:48,_RINvXsc_NtCsjQImORMhHZ8_15icarus_canister4authNtB6_14AuthAuditEntryNtNtCs8Ixg1ZPW7af_6candid5types10CandidType13idl_serializeQNtNtB17_3ser15ValueSerializerEB8_
FN:62,_RINvXsi_NtCsjQImORMhHZ8_15icarus_canister4authNtB6_10AuthActionNtNtCs8Ixg1ZPW7af_6candid5types10CandidType13idl_serializeQNtNtB13_3ser15ValueSerializerEB8_
FN:423,_RNCNCNvNtCsjQImORMhHZ8_15icarus_canister4auth14get_auth_audit00B7_
FN:427,_RNCNCNvNtCsjQImORMhHZ8_15icarus_canister4auth14get_auth_audit0s_0B7_
FN:399,_RNCNCNvNtCsjQImORMhHZ8_15icarus_canister4auth20get_authorized_users00B7_
FN:295,_RNCNvNtCsjQImORMhHZ8_15icarus_canister4auth11remove_user0B5_
FN:120,_RNCNvNtCsjQImORMhHZ8_15icarus_canister4auth12authenticate0B5_
FN:419,_RNCNvNtCsjQImORMhHZ8_15icarus_canister4auth14get_auth_audit0B5_
FN:443,_RNCNvNtCsjQImORMhHZ8_15icarus_canister4auth15log_auth_action0B5_
FN:461,_RNCNvNtCsjQImORMhHZ8_15icarus_canister4auth15log_auth_actions_0B5_
FN:351,_RNCNvNtCsjQImORMhHZ8_15icarus_canister4auth16update_user_role0B5_
FN:395,_RNCNvNtCsjQImORMhHZ8_15icarus_canister4auth20get_authorized_users0B5_
FN:255,_RNCNvNtCsjQImORMhHZ8_15icarus_canister4auth8add_user0B5_
FN:478,_RNCNvNtCsjQImORMhHZ8_15icarus_canister4auth8get_user0B5_
FN:88,_RNCNvNtCsjQImORMhHZ8_15icarus_canister4auth9init_auth0B5_
FN:535,_RNvNtNtCsdI2lQqL7LKT_15icarus_canister4auth5tests21create_test_principal
FN:547,_RNvNtNtCsdI2lQqL7LKT_15icarus_canister4auth5testss_18test_user_creation
FN:581,_RNvNtNtCsdI2lQqL7LKT_15icarus_canister4auth5testss_23test_auth_info_creation
FN:651,_RNvNtNtCsdI2lQqL7LKT_15icarus_canister4auth5testss_23test_user_serialization
FN:567,_RNvNtNtCsdI2lQqL7LKT_15icarus_canister4auth5testss_24test_auth_role_hierarchy
FN:626,_RNvNtNtCsdI2lQqL7LKT_15icarus_canister4auth5testss_25test_auth_action_variants
FN:728,_RNvNtNtCsdI2lQqL7LKT_15icarus_canister4auth5testss_25test_role_clone_and_debug
FN:739,_RNvNtNtCsdI2lQqL7LKT_15icarus_canister4auth5testss_25test_user_clone_and_debug
FN:678,_RNvNtNtCsdI2lQqL7LKT_15icarus_canister4auth5testss_28test_auth_info_serialization
FN:601,_RNvNtNtCsdI2lQqL7LKT_15icarus_canister4auth5testss_30test_auth_audit_entry_creation
FN:763,_RNvNtNtCsdI2lQqL7LKT_15icarus_canister4auth5testss_30test_auth_info_clone_and_debug
FN:885,_RNvNtNtCsdI2lQqL7LKT_15icarus_canister4auth5testss_30test_edge_cases_and_boundaries
FN:785,_RNvNtNtCsdI2lQqL7LKT_15icarus_canister4auth5testss_32test_audit_entry_clone_and_debug
FN:809,_RNvNtNtCsdI2lQqL7LKT_15icarus_canister4auth5testss_32test_comprehensive_type_coverage
FN:701,_RNvNtNtCsdI2lQqL7LKT_15icarus_canister4auth5testss_35test_auth_audit_entry_serialization
FN:536,_RNCNvNtNtCsdI2lQqL7LKT_15icarus_canister4auth5tests21create_test_principal0B7_
FN:15,_RINvXs0_NtCsdI2lQqL7LKT_15icarus_canister4authNtB6_4UserNtNtCs8Ixg1ZPW7af_6candid5types10CandidType13idl_serializepEB8_
FN:28,_RINvXs6_NtCsdI2lQqL7LKT_15icarus_canister4authNtB6_8AuthRoleNtNtCs8Ixg1ZPW7af_6candid5types10CandidType13idl_serializepEB8_
FN:37,_RINvXs9_NtCsdI2lQqL7LKT_15icarus_canister4authNtB6_8AuthInfoNtNtCs8Ixg1ZPW7af_6candid5types10CandidType13idl_serializepEB8_
FN:48,_RINvXsc_NtCsdI2lQqL7LKT_15icarus_canister4authNtB6_14AuthAuditEntryNtNtCs8Ixg1ZPW7af_6candid5types10CandidType13idl_serializepEB8_
FN:62,_RINvXsi_NtCsdI2lQqL7LKT_15icarus_canister4authNtB6_10AuthActionNtNtCs8Ixg1ZPW7af_6candid5types10CandidType13idl_serializepEB8_
FN:423,_RNCNCNvNtCsdI2lQqL7LKT_15icarus_canister4auth14get_auth_audit00B7_
FN:427,_RNCNCNvNtCsdI2lQqL7LKT_15icarus_canister4auth14get_auth_audit0s_0B7_
FN:399,_RNCNCNvNtCsdI2lQqL7LKT_15icarus_canister4auth20get_authorized_users00B7_
FN:295,_RNCNvNtCsdI2lQqL7LKT_15icarus_canister4auth11remove_user0B5_
FN:120,_RNCNvNtCsdI2lQqL7LKT_15icarus_canister4auth12authenticate0B5_
FN:419,_RNCNvNtCsdI2lQqL7LKT_15icarus_canister4auth14get_auth_audit0B5_
FN:443,_RNCNvNtCsdI2lQqL7LKT_15icarus_canister4auth15log_auth_action0B5_
FN:461,_RNCNvNtCsdI2lQqL7LKT_15icarus_canister4auth15log_auth_actions_0B5_
FN:351,_RNCNvNtCsdI2lQqL7LKT_15icarus_canister4auth16update_user_role0B5_
FN:395,_RNCNvNtCsdI2lQqL7LKT_15icarus_canister4auth20get_authorized_users0B5_
FN:255,_RNCNvNtCsdI2lQqL7LKT_15icarus_canister4auth8add_user0B5_
FN:478,_RNCNvNtCsdI2lQqL7LKT_15icarus_canister4auth8get_user0B5_
FN:88,_RNCNvNtCsdI2lQqL7LKT_15icarus_canister4auth9init_auth0B5_
FN:524,_RNCNvNtNtCsdI2lQqL7LKT_15icarus_canister4auth5tests13set_mock_time0B7_
FN:520,_RNCNvNtNtCsdI2lQqL7LKT_15icarus_canister4auth5tests15set_mock_caller0B7_
FN:528,_RNCNvNtNtCsdI2lQqL7LKT_15icarus_canister4auth5tests18clear_mock_storage0B7_
FN:530,_RNCNvNtNtCsdI2lQqL7LKT_15icarus_canister4auth5tests18clear_mock_storages0_0B7_
FN:531,_RNCNvNtNtCsdI2lQqL7LKT_15icarus_canister4auth5tests18clear_mock_storages1_0B7_
FN:532,_RNCNvNtNtCsdI2lQqL7LKT_15icarus_canister4auth5tests18clear_mock_storages2_0B7_
FN:529,_RNCNvNtNtCsdI2lQqL7LKT_15icarus_canister4auth5tests18clear_mock_storages_0B7_
FN:472,_RNvNtCsdI2lQqL7LKT_15icarus_canister4auth10list_users
FN:291,_RNvNtCsdI2lQqL7LKT_15icarus_canister4auth11remove_user
FN:112,_RNvNtCsdI2lQqL7LKT_15icarus_canister4auth12authenticate
FN:405,_RNvNtCsdI2lQqL7LKT_15icarus_canister4auth14get_auth_audit
FN:467,_RNvNtCsdI2lQqL7LKT_15icarus_canister4auth15get_auth_status
FN:435,_RNvNtCsdI2lQqL7LKT_15icarus_canister4auth15log_auth_action
FN:342,_RNvNtCsdI2lQqL7LKT_15icarus_canister4auth16update_user_role
FN:205,_RNvNtCsdI2lQqL7LKT_15icarus_canister4auth18require_exact_role
FN:382,_RNvNtCsdI2lQqL7LKT_15icarus_canister4auth20get_authorized_users
FN:218,_RNvNtCsdI2lQqL7LKT_15icarus_canister4auth20require_any_of_roles
FN:231,_RNvNtCsdI2lQqL7LKT_15icarus_canister4auth21require_none_of_roles
FN:180,_RNvNtCsdI2lQqL7LKT_15icarus_canister4auth22require_role_or_higher
FN:241,_RNvNtCsdI2lQqL7LKT_15icarus_canister4auth8add_user
FN:477,_RNvNtCsdI2lQqL7LKT_15icarus_canister4auth8get_user
FN:82,_RNvNtCsdI2lQqL7LKT_15icarus_canister4auth9init_auth
FN:523,_RNvNtNtCsdI2lQqL7LKT_15icarus_canister4auth5tests13set_mock_time
FN:519,_RNvNtNtCsdI2lQqL7LKT_15icarus_canister4auth5tests15set_mock_caller
FN:527,_RNvNtNtCsdI2lQqL7LKT_15icarus_canister4auth5tests18clear_mock_storage
FNDA:0,_RNvNtCsjQImORMhHZ8_15icarus_canister4auth10list_users
FNDA:0,_RNvNtCsjQImORMhHZ8_15icarus_canister4auth11remove_user
FNDA:0,_RNvNtCsjQImORMhHZ8_15icarus_canister4auth12authenticate
FNDA:0,_RNvNtCsjQImORMhHZ8_15icarus_canister4auth14get_auth_audit
FNDA:0,_RNvNtCsjQImORMhHZ8_15icarus_canister4auth15get_auth_status
FNDA:0,_RNvNtCsjQImORMhHZ8_15icarus_canister4auth15log_auth_action
FNDA:0,_RNvNtCsjQImORMhHZ8_15icarus_canister4auth16update_user_role
FNDA:0,_RNvNtCsjQImORMhHZ8_15icarus_canister4auth18require_exact_role
FNDA:0,_RNvNtCsjQImORMhHZ8_15icarus_canister4auth20get_authorized_users
FNDA:0,_RNvNtCsjQImORMhHZ8_15icarus_canister4auth20require_any_of_roles
FNDA:0,_RNvNtCsjQImORMhHZ8_15icarus_canister4auth21require_none_of_roles
FNDA:0,_RNvNtCsjQImORMhHZ8_15icarus_canister4auth22require_role_or_higher
FNDA:0,_RNvNtCsjQImORMhHZ8_15icarus_canister4auth8add_user
FNDA:0,_RNvNtCsjQImORMhHZ8_15icarus_canister4auth8get_user
FNDA:0,_RNvNtCsjQImORMhHZ8_15icarus_canister4auth9init_auth
FNDA:0,_RINvXs0_NtCsjQImORMhHZ8_15icarus_canister4authNtB6_4UserNtNtCs8Ixg1ZPW7af_6candid5types10CandidType13idl_serializeQNtNtBW_3ser15ValueSerializerEB8_
FNDA:0,_RINvXs6_NtCsjQImORMhHZ8_15icarus_canister4authNtB6_8AuthRoleNtNtCs8Ixg1ZPW7af_6candid5types10CandidType13idl_serializeQNtNtB10_3ser15ValueSerializerEB8_
FNDA:0,_RINvXsc_NtCsjQImORMhHZ8_15icarus_canister4authNtB6_14AuthAuditEntryNtNtCs8Ixg1ZPW7af_6candid5types10CandidType13idl_serializeQNtNtB17_3ser15ValueSerializerEB8_
FNDA:0,_RINvXsi_NtCsjQImORMhHZ8_15icarus_canister4authNtB6_10AuthActionNtNtCs8Ixg1ZPW7af_6candid5types10CandidType13idl_serializeQNtNtB13_3ser15ValueSerializerEB8_
FNDA:0,_RNCNCNvNtCsjQImORMhHZ8_15icarus_canister4auth14get_auth_audit00B7_
FNDA:0,_RNCNCNvNtCsjQImORMhHZ8_15icarus_canister4auth14get_auth_audit0s_0B7_
FNDA:0,_RNCNCNvNtCsjQImORMhHZ8_15icarus_canister4auth20get_authorized_users00B7_
FNDA:0,_RNCNvNtCsjQImORMhHZ8_15icarus_canister4auth11remove_user0B5_
FNDA:0,_RNCNvNtCsjQImORMhHZ8_15icarus_canister4auth12authenticate0B5_
FNDA:0,_RNCNvNtCsjQImORMhHZ8_15icarus_canister4auth14get_auth_audit0B5_
FNDA:0,_RNCNvNtCsjQImORMhHZ8_15icarus_canister4auth15log_auth_action0B5_
FNDA:0,_RNCNvNtCsjQImORMhHZ8_15icarus_canister4auth15log_auth_actions_0B5_
FNDA:0,_RNCNvNtCsjQImORMhHZ8_15icarus_canister4auth16update_user_role0B5_
FNDA:0,_RNCNvNtCsjQImORMhHZ8_15icarus_canister4auth20get_authorized_users0B5_
FNDA:0,_RNCNvNtCsjQImORMhHZ8_15icarus_canister4auth8add_user0B5_
FNDA:0,_RNCNvNtCsjQImORMhHZ8_15icarus_canister4auth8get_user0B5_
FNDA:0,_RNCNvNtCsjQImORMhHZ8_15icarus_canister4auth9init_auth0B5_
FNDA:9,_RNvNtNtCsdI2lQqL7LKT_15icarus_canister4auth5tests21create_test_principal
FNDA:1,_RNvNtNtCsdI2lQqL7LKT_15icarus_canister4auth5testss_18test_user_creation
FNDA:1,_RNvNtNtCsdI2lQqL7LKT_15icarus_canister4auth5testss_23test_auth_info_creation
FNDA:1,_RNvNtNtCsdI2lQqL7LKT_15icarus_canister4auth5testss_23test_user_serialization
FNDA:1,_RNvNtNtCsdI2lQqL7LKT_15icarus_canister4auth5testss_24test_auth_role_hierarchy
FNDA:1,_RNvNtNtCsdI2lQqL7LKT_15icarus_canister4auth5testss_25test_auth_action_variants
FNDA:1,_RNvNtNtCsdI2lQqL7LKT_15icarus_canister4auth5testss_25test_role_clone_and_debug
FNDA:1,_RNvNtNtCsdI2lQqL7LKT_15icarus_canister4auth5testss_25test_user_clone_and_debug
FNDA:1,_RNvNtNtCsdI2lQqL7LKT_15icarus_canister4auth5testss_28test_auth_info_serialization
FNDA:1,_RNvNtNtCsdI2lQqL7LKT_15icarus_canister4auth5testss_30test_auth_audit_entry_creation
FNDA:1,_RNvNtNtCsdI2lQqL7LKT_15icarus_canister4auth5testss_30test_auth_info_clone_and_debug
FNDA:1,_RNvNtNtCsdI2lQqL7LKT_15icarus_canister4auth5testss_30test_edge_cases_and_boundaries
FNDA:1,_RNvNtNtCsdI2lQqL7LKT_15icarus_canister4auth5testss_32test_audit_entry_clone_and_debug
FNDA:1,_RNvNtNtCsdI2lQqL7LKT_15icarus_canister4auth5testss_32test_comprehensive_type_coverage
FNDA:1,_RNvNtNtCsdI2lQqL7LKT_15icarus_canister4auth5testss_35test_auth_audit_entry_serialization
FNDA:9,_RNCNvNtNtCsdI2lQqL7LKT_15icarus_canister4auth5tests21create_test_principal0B7_
FNDA:0,_RINvXs0_NtCsdI2lQqL7LKT_15icarus_canister4authNtB6_4UserNtNtCs8Ixg1ZPW7af_6candid5types10CandidType13idl_serializepEB8_
FNDA:0,_RINvXs6_NtCsdI2lQqL7LKT_15icarus_canister4authNtB6_8AuthRoleNtNtCs8Ixg1ZPW7af_6candid5types10CandidType13idl_serializepEB8_
FNDA:0,_RINvXs9_NtCsdI2lQqL7LKT_15icarus_canister4authNtB6_8AuthInfoNtNtCs8Ixg1ZPW7af_6candid5types10CandidType13idl_serializepEB8_
FNDA:0,_RINvXsc_NtCsdI2lQqL7LKT_15icarus_canister4authNtB6_14AuthAuditEntryNtNtCs8Ixg1ZPW7af_6candid5types10CandidType13idl_serializepEB8_
FNDA:0,_RINvXsi_NtCsdI2lQqL7LKT_15icarus_canister4authNtB6_10AuthActionNtNtCs8Ixg1ZPW7af_6candid5types10CandidType13idl_serializepEB8_
FNDA:0,_RNCNCNvNtCsdI2lQqL7LKT_15icarus_canister4auth14get_auth_audit00B7_
FNDA:0,_RNCNCNvNtCsdI2lQqL7LKT_15icarus_canister4auth14get_auth_audit0s_0B7_
FNDA:0,_RNCNCNvNtCsdI2lQqL7LKT_15icarus_canister4auth20get_authorized_users00B7_
FNDA:0,_RNCNvNtCsdI2lQqL7LKT_15icarus_canister4auth11remove_user0B5_
FNDA:0,_RNCNvNtCsdI2lQqL7LKT_15icarus_canister4auth12authenticate0B5_
FNDA:0,_RNCNvNtCsdI2lQqL7LKT_15icarus_canister4auth14get_auth_audit0B5_
FNDA:0,_RNCNvNtCsdI2lQqL7LKT_15icarus_canister4auth15log_auth_action0B5_
FNDA:0,_RNCNvNtCsdI2lQqL7LKT_15icarus_canister4auth15log_auth_actions_0B5_
FNDA:0,_RNCNvNtCsdI2lQqL7LKT_15icarus_canister4auth16update_user_role0B5_
FNDA:0,_RNCNvNtCsdI2lQqL7LKT_15icarus_canister4auth20get_authorized_users0B5_
FNDA:0,_RNCNvNtCsdI2lQqL7LKT_15icarus_canister4auth8add_user0B5_
FNDA:0,_RNCNvNtCsdI2lQqL7LKT_15icarus_canister4auth8get_user0B5_
FNDA:0,_RNCNvNtCsdI2lQqL7LKT_15icarus_canister4auth9init_auth0B5_
FNDA:0,_RNCNvNtNtCsdI2lQqL7LKT_15icarus_canister4auth5tests13set_mock_time0B7_
FNDA:0,_RNCNvNtNtCsdI2lQqL7LKT_15icarus_canister4auth5tests15set_mock_caller0B7_
FNDA:0,_RNCNvNtNtCsdI2lQqL7LKT_15icarus_canister4auth5tests18clear_mock_storage0B7_
FNDA:0,_RNCNvNtNtCsdI2lQqL7LKT_15icarus_canister4auth5tests18clear_mock_storages0_0B7_
FNDA:0,_RNCNvNtNtCsdI2lQqL7LKT_15icarus_canister4auth5tests18clear_mock_storages1_0B7_
FNDA:0,_RNCNvNtNtCsdI2lQqL7LKT_15icarus_canister4auth5tests18clear_mock_storages2_0B7_
FNDA:0,_RNCNvNtNtCsdI2lQqL7LKT_15icarus_canister4auth5tests18clear_mock_storages_0B7_
FNDA:0,_RNvNtCsdI2lQqL7LKT_15icarus_canister4auth10list_users
FNDA:0,_RNvNtCsdI2lQqL7LKT_15icarus_canister4auth11remove_user
FNDA:0,_RNvNtCsdI2lQqL7LKT_15icarus_canister4auth12authenticate
FNDA:0,_RNvNtCsdI2lQqL7LKT_15icarus_canister4auth14get_auth_audit
FNDA:0,_RNvNtCsdI2lQqL7LKT_15icarus_canister4auth15get_auth_status
FNDA:0,_RNvNtCsdI2lQqL7LKT_15icarus_canister4auth15log_auth_action
FNDA:0,_RNvNtCsdI2lQqL7LKT_15icarus_canister4auth16update_user_role
FNDA:0,_RNvNtCsdI2lQqL7LKT_15icarus_canister4auth18require_exact_role
FNDA:0,_RNvNtCsdI2lQqL7LKT_15icarus_canister4auth20get_authorized_users
FNDA:0,_RNvNtCsdI2lQqL7LKT_15icarus_canister4auth20require_any_of_roles
FNDA:0,_RNvNtCsdI2lQqL7LKT_15icarus_canister4auth21require_none_of_roles
FNDA:0,_RNvNtCsdI2lQqL7LKT_15icarus_canister4auth22require_role_or_higher
FNDA:0,_RNvNtCsdI2lQqL7LKT_15icarus_canister4auth8add_user
FNDA:0,_RNvNtCsdI2lQqL7LKT_15icarus_canister4auth8get_user
FNDA:0,_RNvNtCsdI2lQqL7LKT_15icarus_canister4auth9init_auth
FNDA:0,_RNvNtNtCsdI2lQqL7LKT_15icarus_canister4auth5tests13set_mock_time
FNDA:0,_RNvNtNtCsdI2lQqL7LKT_15icarus_canister4auth5tests15set_mock_caller
FNDA:0,_RNvNtNtCsdI2lQqL7LKT_15icarus_canister4auth5tests18clear_mock_storage
FNF:59
FNH:16
DA:15,0
DA:28,0
DA:37,0
DA:48,0
DA:62,0
DA:82,0
DA:84,0
DA:85,0
DA:86,0
DA:88,0
DA:89,0
DA:90,0
DA:91,0
DA:92,0
DA:93,0
DA:94,0
DA:95,0
DA:96,0
DA:97,0
DA:98,0
DA:99,0
DA:101,0
DA:102,0
DA:103,0
DA:104,0
DA:105,0
DA:107,0
DA:109,0
DA:112,0
DA:113,0
DA:116,0
DA:117,0
DA:118,0
DA:120,0
DA:122,0
DA:123,0
DA:125,0
DA:126,0
DA:127,0
DA:128,0
DA:129,0
DA:131,0
DA:134,0
DA:135,0
DA:136,0
DA:140,0
DA:141,0
DA:142,0
DA:143,0
DA:144,0
DA:145,0
DA:147,0
DA:150,0
DA:151,0
DA:154,0
DA:155,0
DA:156,0
DA:158,0
DA:159,0
DA:160,0
DA:161,0
DA:162,0
DA:164,0
DA:167,0
DA:168,0
DA:169,0
DA:170,0
DA:171,0
DA:172,0
DA:173,0
DA:174,0
DA:175,0
DA:176,0
DA:180,0
DA:181,0
DA:183,0
DA:184,0
DA:194,0
DA:195,0
DA:197,0
DA:198,0
DA:202,0
DA:205,0
DA:206,0
DA:207,0
DA:208,0
DA:210,0
DA:211,0
DA:215,0
DA:218,0
DA:219,0
DA:220,0
DA:221,0
DA:223,0
DA:224,0
DA:228,0
DA:231,0
DA:232,0
DA:233,0
DA:234,0
DA:236,0
DA:238,0
DA:241,0
DA:243,0
DA:244,0
DA:245,0
DA:247,0
DA:248,0
DA:251,0
DA:252,0
DA:253,0
DA:255,0
DA:256,0
DA:257,0
DA:258,0
DA:260,0
DA:261,0
DA:262,0
DA:263,0
DA:264,0
DA:265,0
DA:266,0
DA:267,0
DA:268,0
DA:270,0
DA:272,0
DA:273,0
DA:274,0
DA:275,0
DA:276,0
DA:278,0
DA:281,0
DA:282,0
DA:283,0
DA:285,0
DA:287,0
DA:288,0
DA:291,0
DA:292,0
DA:293,0
DA:295,0
DA:297,0
DA:298,0
DA:300,0
DA:301,0
DA:303,0
DA:304,0
DA:307,0
DA:308,0
DA:309,0
DA:311,0
DA:313,0
DA:318,0
DA:319,0
DA:321,0
DA:322,0
DA:323,0
DA:324,0
DA:325,0
DA:327,0
DA:330,0
DA:331,0
DA:332,0
DA:333,0
DA:336,0
DA:338,0
DA:339,0
DA:342,0
DA:344,0
DA:345,0
DA:346,0
DA:348,0
DA:349,0
DA:351,0
DA:353,0
DA:355,0
DA:356,0
DA:357,0
DA:358,0
DA:360,0
DA:361,0
DA:362,0
DA:363,0
DA:364,0
DA:366,0
DA:369,0
DA:370,0
DA:371,0
DA:376,0
DA:378,0
DA:379,0
DA:382,0
DA:383,0
DA:384,0
DA:386,0
DA:387,0
DA:388,0
DA:389,0
DA:390,0
DA:392,0
DA:395,0
DA:396,0
DA:397,0
DA:398,0
DA:399,0
DA:400,0
DA:401,0
DA:402,0
DA:405,0
DA:406,0
DA:407,0
DA:408,0
DA:410,0
DA:411,0
DA:412,0
DA:413,0
DA:414,0
DA:416,0
DA:419,0
DA:420,0
DA:421,0
DA:422,0
DA:423,0
DA:424,0
DA:427,0
DA:428,0
DA:430,0
DA:431,0
DA:432,0
DA:435,0
DA:436,0
DA:437,0
DA:438,0
DA:439,0
DA:440,0
DA:441,0
DA:442,0
DA:443,0
DA:444,0
DA:445,0
DA:446,0
DA:447,0
DA:448,0
DA:450,0
DA:451,0
DA:452,0
DA:453,0
DA:454,0
DA:455,0
DA:456,0
DA:457,0
DA:458,0
DA:459,0
DA:461,0
DA:462,0
DA:463,0
DA:464,0
DA:467,0
DA:468,0
DA:469,0
DA:472,0
DA:473,0
DA:474,0
DA:477,0
DA:478,0
DA:479,0
DA:519,0
DA:520,0
DA:521,0
DA:523,0
DA:524,0
DA:525,0
DA:527,0
DA:528,0
DA:529,0
DA:530,0
DA:531,0
DA:532,0
DA:533,0
DA:535,9
DA:536,9
DA:538,9
DA:539,9
DA:540,9
DA:541,9
DA:542,9
DA:543,9
DA:544,9
DA:547,1
DA:548,1
DA:549,1
DA:550,1
DA:551,1
DA:552,1
DA:553,1
DA:554,1
DA:555,1
DA:556,1
DA:557,1
DA:559,1
DA:560,1
DA:561,1
DA:562,1
DA:563,1
DA:564,1
DA:567,1
DA:569,1
DA:570,1
DA:571,1
DA:572,1
DA:575,1
DA:576,1
DA:577,1
DA:578,1
DA:581,1
DA:582,1
DA:583,1
DA:584,1
DA:585,1
DA:586,1
DA:587,1
DA:588,1
DA:589,1
DA:590,1
DA:592,1
DA:593,1
DA:594,1
DA:595,1
DA:596,1
DA:597,1
DA:598,1
DA:601,1
DA:602,1
DA:603,1
DA:605,1
DA:606,1
DA:607,1
DA:608,1
DA:609,1
DA:610,1
DA:611,1
DA:612,1
DA:613,1
DA:614,1
DA:616,1
DA:617,1
DA:618,1
DA:619,1
DA:620,1
DA:621,1
DA:622,1
DA:623,1
DA:626,1
DA:628,1
DA:629,1
DA:630,1
DA:631,1
DA:632,1
DA:633,1
DA:634,1
DA:635,1
DA:636,1
DA:639,1
DA:642,9
DA:643,8
DA:644,8
DA:645,8
DA:646,8
DA:647,8
DA:648,1
DA:651,1
DA:652,1
DA:653,1
DA:654,1
DA:655,1
DA:656,1
DA:657,1
DA:658,1
DA:659,1
DA:660,1
DA:661,1
DA:664,1
DA:665,1
DA:666,1
DA:667,1
DA:670,1
DA:671,1
DA:672,1
DA:673,1
DA:674,1
DA:675,1
DA:678,1
DA:679,1
DA:680,1
DA:681,1
DA:682,1
DA:683,1
DA:684,1
DA:685,1
DA:686,1
DA:689,1
DA:690,1
DA:692,1
DA:693,1
DA:694,1
DA:695,1
DA:696,1
DA:697,1
DA:698,1
DA:701,1
DA:702,1
DA:703,1
DA:704,1
DA:705,1
DA:706,1
DA:707,1
DA:708,1
DA:709,1
DA:710,1
DA:711,1
DA:712,1
DA:715,1
DA:716,1
DA:718,1
DA:719,1
DA:720,1
DA:721,1
DA:722,1
DA:723,1
DA:724,1
DA:725,1
DA:728,1
DA:729,1
DA:730,1
DA:731,1
DA:734,1
DA:735,1
DA:736,1
DA:739,1
DA:740,1
DA:741,1
DA:742,1
DA:743,1
DA:744,1
DA:745,1
DA:746,1
DA:747,1
DA:748,1
DA:749,1
DA:751,1
DA:752,1
DA:753,1
DA:754,1
DA:757,1
DA:758,1
DA:759,1
DA:760,1
DA:763,1
DA:764,1
DA:765,1
DA:766,1
DA:767,1
DA:768,1
DA:769,1
DA:770,1
DA:771,1
DA:773,1
DA:774,1
DA:775,1
DA:776,1
DA:779,1
DA:780,1
DA:781,1
DA:782,1
DA:785,1
DA:786,1
DA:787,1
DA:788,1
DA:789,1
DA:790,1
DA:791,1
DA:792,1
DA:793,1
DA:794,1
DA:795,1
DA:796,1
DA:798,1
DA:799,1
DA:800,1
DA:803,1
DA:804,1
DA:805,1
DA:806,1
DA:809,1
DA:813,1
DA:814,5
DA:815,4
DA:816,4
DA:817,4
DA:818,4
DA:822,1
DA:823,1
DA:824,1
DA:825,1
DA:826,1
DA:827,1
DA:828,1
DA:829,1
DA:830,1
DA:831,1
DA:832,1
DA:833,1
DA:834,1
DA:837,1
DA:838,1
DA:839,1
DA:840,1
DA:841,1
DA:842,1
DA:843,1
DA:844,1
DA:845,1
DA:846,1
DA:847,1
DA:850,1
DA:851,1
DA:852,1
DA:853,1
DA:854,1
DA:855,1
DA:856,1
DA:857,1
DA:858,1
DA:859,1
DA:860,1
DA:861,1
DA:862,1
DA:865,1
DA:866,1
DA:867,1
DA:868,1
DA:869,1
DA:870,1
DA:871,1
DA:872,1
DA:873,1
DA:874,1
DA:875,9
DA:876,8
DA:877,8
DA:878,8
DA:880,8
DA:882,1
DA:885,1
DA:887,1
DA:890,1
DA:891,1
DA:892,1
DA:893,1
DA:894,1
DA:895,1
DA:896,1
DA:897,1
DA:898,1
DA:899,1
DA:902,1
DA:903,1
DA:904,1
DA:905,1
DA:906,1
DA:907,1
DA:908,1
DA:909,1
DA:910,1
DA:911,1
DA:914,1
DA:915,1
DA:916,1
DA:917,1
DA:918,1
DA:919,1
DA:920,1
DA:921,1
DA:922,1
DA:925,1
DA:926,1
DA:927,1
DA:928,1
DA:929,1
DA:930,1
DA:931,1
DA:932,1
DA:933,1
DA:934,1
DA:935,1
DA:936,1
BRF:0
BRH:0
LF:617
LH:318
end_of_record
SF:/Users/goshea/projects/icarus/icarus-sdk/crates/icarus-canister/src/easy_storage.rs
FN:239,_RNvMs0_NtCsdI2lQqL7LKT_15icarus_canister12easy_storageNtB5_11CounterCell3get
FN:233,_RNvMs0_NtCsdI2lQqL7LKT_15icarus_canister12easy_storageNtB5_11CounterCell3new
FN:243,_RNvMs0_NtCsdI2lQqL7LKT_15icarus_canister12easy_storageNtB5_11CounterCell3set
FN:255,_RNvMs0_NtCsdI2lQqL7LKT_15icarus_canister12easy_storageNtB5_11CounterCell9decrement
FN:248,_RNvMs0_NtCsdI2lQqL7LKT_15icarus_canister12easy_storageNtB5_11CounterCell9increment
FN:486,_RNCNvNtNtCsdI2lQqL7LKT_15icarus_canister12easy_storage5testss_21test_storage_map_iter0B7_
FN:491,_RNCNvNtNtCsdI2lQqL7LKT_15icarus_canister12easy_storage5testss_21test_storage_map_iters_0B7_
FN:516,_RNCNvNtNtCsdI2lQqL7LKT_15icarus_canister12easy_storage5testss_23test_storage_map_values0B7_
FN:517,_RNCNvNtNtCsdI2lQqL7LKT_15icarus_canister12easy_storage5testss_23test_storage_map_valuess_0B7_
FN:532,_RNCNvNtNtCsdI2lQqL7LKT_15icarus_canister12easy_storage5testss_30test_storage_map_get_or_insert0B7_
FN:538,_RNCNvNtNtCsdI2lQqL7LKT_15icarus_canister12easy_storage5testss_30test_storage_map_get_or_inserts_0B7_
FN:185,_RINvMNtCsdI2lQqL7LKT_15icarus_canister12easy_storageINtB3_10StorageMapNtNtB3_5tests7TestKeyNtB18_9TestValueE13get_or_insertNCNvB18_s_30test_storage_map_get_or_insert0EB5_
FN:185,_RINvMNtCsdI2lQqL7LKT_15icarus_canister12easy_storageINtB3_10StorageMapNtNtB3_5tests7TestKeyNtB18_9TestValueE13get_or_insertNCNvB18_s_30test_storage_map_get_or_inserts_0EB5_
FN:168,_RINvMNtCsdI2lQqL7LKT_15icarus_canister12easy_storageINtB3_10StorageMapNtNtB3_5tests7TestKeyNtB18_9TestValueE4iterNCNvB18_s_21test_storage_map_iter0EB5_
FN:181,_RNCNvMNtCsdI2lQqL7LKT_15icarus_canister12easy_storageINtB4_10StorageMapNtNtB4_5tests7TestKeyNtB19_9TestValueE6values0B6_
FN:144,_RNvMNtCsdI2lQqL7LKT_15icarus_canister12easy_storageINtB2_10StorageMapNtNtB2_5tests7TestKeyNtB17_9TestValueE3getB4_
FN:156,_RNvMNtCsdI2lQqL7LKT_15icarus_canister12easy_storageINtB2_10StorageMapNtNtB2_5tests7TestKeyNtB17_9TestValueE3lenB4_
FN:134,_RNvMNtCsdI2lQqL7LKT_15icarus_canister12easy_storageINtB2_10StorageMapNtNtB2_5tests7TestKeyNtB17_9TestValueE3newB4_
FN:164,_RNvMNtCsdI2lQqL7LKT_15icarus_canister12easy_storageINtB2_10StorageMapNtNtB2_5tests7TestKeyNtB17_9TestValueE5clearB4_
FN:140,_RNvMNtCsdI2lQqL7LKT_15icarus_canister12easy_storageINtB2_10StorageMapNtNtB2_5tests7TestKeyNtB17_9TestValueE6insertB4_
FN:148,_RNvMNtCsdI2lQqL7LKT_15icarus_canister12easy_storageINtB2_10StorageMapNtNtB2_5tests7TestKeyNtB17_9TestValueE6removeB4_
FN:177,_RNvMNtCsdI2lQqL7LKT_15icarus_canister12easy_storageINtB2_10StorageMapNtNtB2_5tests7TestKeyNtB17_9TestValueE6valuesB4_
FN:152,_RNvMNtCsdI2lQqL7LKT_15icarus_canister12easy_storageINtB2_10StorageMapNtNtB2_5tests7TestKeyNtB17_9TestValueE8containsB4_
FN:160,_RNvMNtCsdI2lQqL7LKT_15icarus_canister12easy_storageINtB2_10StorageMapNtNtB2_5tests7TestKeyNtB17_9TestValueE8is_emptyB4_
FN:217,_RNvMs_NtCsdI2lQqL7LKT_15icarus_canister12easy_storageINtB4_11StorageCellNtNtB4_5tests13TestCellValueE3getB6_
FN:211,_RNvMs_NtCsdI2lQqL7LKT_15icarus_canister12easy_storageINtB4_11StorageCellNtNtB4_5tests13TestCellValueE3newB6_
FN:221,_RNvMs_NtCsdI2lQqL7LKT_15icarus_canister12easy_storageINtB4_11StorageCellNtNtB4_5tests13TestCellValueE3setB6_
FN:386,_RNvNtNtCsdI2lQqL7LKT_15icarus_canister12easy_storage5testss_20test_storage_map_new
FN:589,_RNvNtNtCsdI2lQqL7LKT_15icarus_canister12easy_storage5testss_21test_counter_cell_new
FN:547,_RNvNtNtCsdI2lQqL7LKT_15icarus_canister12easy_storage5testss_21test_storage_cell_new
FN:472,_RNvNtNtCsdI2lQqL7LKT_15icarus_canister12easy_storage5testss_21test_storage_map_iter
FN:450,_RNvNtNtCsdI2lQqL7LKT_15icarus_canister12easy_storage5testss_22test_storage_map_clear
FN:429,_RNvNtNtCsdI2lQqL7LKT_15icarus_canister12easy_storage5testss_23test_storage_map_remove
FN:500,_RNvNtNtCsdI2lQqL7LKT_15icarus_canister12easy_storage5testss_23test_storage_map_values
FN:414,_RNvNtNtCsdI2lQqL7LKT_15icarus_canister12easy_storage5testss_25test_storage_map_contains
FN:622,_RNvNtNtCsdI2lQqL7LKT_15icarus_canister12easy_storage5testss_27test_counter_cell_decrement
FN:604,_RNvNtNtCsdI2lQqL7LKT_15icarus_canister12easy_storage5testss_27test_counter_cell_increment
FN:569,_RNvNtNtCsdI2lQqL7LKT_15icarus_canister12easy_storage5testss_27test_storage_cell_overwrite
FN:595,_RNvNtNtCsdI2lQqL7LKT_15icarus_canister12easy_storage5testss_29test_counter_cell_set_and_get
FN:554,_RNvNtNtCsdI2lQqL7LKT_15icarus_canister12easy_storage5testss_29test_storage_cell_set_and_get
FN:668,_RNvNtNtCsdI2lQqL7LKT_15icarus_canister12easy_storage5testss_30test_counter_cell_large_values
FN:523,_RNvNtNtCsdI2lQqL7LKT_15icarus_canister12easy_storage5testss_30test_storage_map_get_or_insert
FN:393,_RNvNtNtCsdI2lQqL7LKT_15icarus_canister12easy_storage5testss_31test_storage_map_insert_and_get
FN:638,_RNvNtNtCsdI2lQqL7LKT_15icarus_canister12easy_storage5testss_38test_counter_cell_decrement_saturating
FN:681,_RNvNtNtCsdI2lQqL7LKT_15icarus_canister12easy_storage5testss_44test_multiple_storage_instances_independence
FN:654,_RNvNtNtCsdI2lQqL7LKT_15icarus_canister12easy_storage5testss_46test_counter_cell_increment_decrement_sequence
FN:278,_RNvXNtNtCsdI2lQqL7LKT_15icarus_canister12easy_storage5testsNtB2_7TestKeyNtNtCs28SCrKVqmuK_20ic_stable_structures8storable8Storable10from_bytes
FN:274,_RNvXNtNtCsdI2lQqL7LKT_15icarus_canister12easy_storage5testsNtB2_7TestKeyNtNtCs28SCrKVqmuK_20ic_stable_structures8storable8Storable8to_bytes
FN:351,_RNvXs0_NtNtCsdI2lQqL7LKT_15icarus_canister12easy_storage5testsNtB5_13TestCellValueNtNtCs28SCrKVqmuK_20ic_stable_structures8storable8Storable10from_bytes
FN:341,_RNvXs0_NtNtCsdI2lQqL7LKT_15icarus_canister12easy_storage5testsNtB5_13TestCellValueNtNtCs28SCrKVqmuK_20ic_stable_structures8storable8Storable8to_bytes
FN:306,_RNvXs_NtNtCsdI2lQqL7LKT_15icarus_canister12easy_storage5testsNtB4_9TestValueNtNtCs28SCrKVqmuK_20ic_stable_structures8storable8Storable10from_bytes
FN:320,_RNvXs_NtNtCsdI2lQqL7LKT_15icarus_canister12easy_storage5testsNtB4_9TestValueNtNtCs28SCrKVqmuK_20ic_stable_structures8storable8Storable10into_bytes
FN:282,_RNvXNtNtCsdI2lQqL7LKT_15icarus_canister12easy_storage5testsNtB2_7TestKeyNtNtCs28SCrKVqmuK_20ic_stable_structures8storable8Storable10into_bytes
FN:371,_RNvXs0_NtNtCsdI2lQqL7LKT_15icarus_canister12easy_storage5testsNtB5_13TestCellValueNtNtCs28SCrKVqmuK_20ic_stable_structures8storable8Storable10into_bytes
FN:296,_RNvXs_NtNtCsdI2lQqL7LKT_15icarus_canister12easy_storage5testsNtB4_9TestValueNtNtCs28SCrKVqmuK_20ic_stable_structures8storable8Storable8to_bytes
FNDA:34,_RNvMs0_NtCsdI2lQqL7LKT_15icarus_canister12easy_storageNtB5_11CounterCell3get
FNDA:9,_RNvMs0_NtCsdI2lQqL7LKT_15icarus_canister12easy_storageNtB5_11CounterCell3new
FNDA:21,_RNvMs0_NtCsdI2lQqL7LKT_15icarus_canister12easy_storageNtB5_11CounterCell3set
FNDA:8,_RNvMs0_NtCsdI2lQqL7LKT_15icarus_canister12easy_storageNtB5_11CounterCell9decrement
FNDA:8,_RNvMs0_NtCsdI2lQqL7LKT_15icarus_canister12easy_storageNtB5_11CounterCell9increment
FNDA:3,_RNCNvNtNtCsdI2lQqL7LKT_15icarus_canister12easy_storage5testss_21test_storage_map_iter0B7_
FNDA:2,_RNCNvNtNtCsdI2lQqL7LKT_15icarus_canister12easy_storage5testss_21test_storage_map_iters_0B7_
FNDA:2,_RNCNvNtNtCsdI2lQqL7LKT_15icarus_canister12easy_storage5testss_23test_storage_map_values0B7_
FNDA:2,_RNCNvNtNtCsdI2lQqL7LKT_15icarus_canister12easy_storage5testss_23test_storage_map_valuess_0B7_
FNDA:1,_RNCNvNtNtCsdI2lQqL7LKT_15icarus_canister12easy_storage5testss_30test_storage_map_get_or_insert0B7_
FNDA:0,_RNCNvNtNtCsdI2lQqL7LKT_15icarus_canister12easy_storage5testss_30test_storage_map_get_or_inserts_0B7_
FNDA:1,_RINvMNtCsdI2lQqL7LKT_15icarus_canister12easy_storageINtB3_10StorageMapNtNtB3_5tests7TestKeyNtB18_9TestValueE13get_or_insertNCNvB18_s_30test_storage_map_get_or_insert0EB5_
FNDA:1,_RINvMNtCsdI2lQqL7LKT_15icarus_canister12easy_storageINtB3_10StorageMapNtNtB3_5tests7TestKeyNtB18_9TestValueE13get_or_insertNCNvB18_s_30test_storage_map_get_or_inserts_0EB5_
FNDA:1,_RINvMNtCsdI2lQqL7LKT_15icarus_canister12easy_storageINtB3_10StorageMapNtNtB3_5tests7TestKeyNtB18_9TestValueE4iterNCNvB18_s_21test_storage_map_iter0EB5_
FNDA:3,_RNCNvMNtCsdI2lQqL7LKT_15icarus_canister12easy_storageINtB4_10StorageMapNtNtB4_5tests7TestKeyNtB19_9TestValueE6values0B6_
FNDA:5,_RNvMNtCsdI2lQqL7LKT_15icarus_canister12easy_storageINtB2_10StorageMapNtNtB2_5tests7TestKeyNtB17_9TestValueE3getB4_
FNDA:8,_RNvMNtCsdI2lQqL7LKT_15icarus_canister12easy_storageINtB2_10StorageMapNtNtB2_5tests7TestKeyNtB17_9TestValueE3lenB4_
FNDA:10,_RNvMNtCsdI2lQqL7LKT_15icarus_canister12easy_storageINtB2_10StorageMapNtNtB2_5tests7TestKeyNtB17_9TestValueE3newB4_
FNDA:1,_RNvMNtCsdI2lQqL7LKT_15icarus_canister12easy_storageINtB2_10StorageMapNtNtB2_5tests7TestKeyNtB17_9TestValueE5clearB4_
FNDA:16,_RNvMNtCsdI2lQqL7LKT_15icarus_canister12easy_storageINtB2_10StorageMapNtNtB2_5tests7TestKeyNtB17_9TestValueE6insertB4_
FNDA:1,_RNvMNtCsdI2lQqL7LKT_15icarus_canister12easy_storageINtB2_10StorageMapNtNtB2_5tests7TestKeyNtB17_9TestValueE6removeB4_
FNDA:1,_RNvMNtCsdI2lQqL7LKT_15icarus_canister12easy_storageINtB2_10StorageMapNtNtB2_5tests7TestKeyNtB17_9TestValueE6valuesB4_
FNDA:3,_RNvMNtCsdI2lQqL7LKT_15icarus_canister12easy_storageINtB2_10StorageMapNtNtB2_5tests7TestKeyNtB17_9TestValueE8containsB4_
FNDA:4,_RNvMNtCsdI2lQqL7LKT_15icarus_canister12easy_storageINtB2_10StorageMapNtNtB2_5tests7TestKeyNtB17_9TestValueE8is_emptyB4_
FNDA:3,_RNvMs_NtCsdI2lQqL7LKT_15icarus_canister12easy_storageINtB4_11StorageCellNtNtB4_5tests13TestCellValueE3getB6_
FNDA:3,_RNvMs_NtCsdI2lQqL7LKT_15icarus_canister12easy_storageINtB4_11StorageCellNtNtB4_5tests13TestCellValueE3newB6_
FNDA:3,_RNvMs_NtCsdI2lQqL7LKT_15icarus_canister12easy_storageINtB4_11StorageCellNtNtB4_5tests13TestCellValueE3setB6_
FNDA:1,_RNvNtNtCsdI2lQqL7LKT_15icarus_canister12easy_storage5testss_20test_storage_map_new
FNDA:1,_RNvNtNtCsdI2lQqL7LKT_15icarus_canister12easy_storage5testss_21test_counter_cell_new
FNDA:1,_RNvNtNtCsdI2lQqL7LKT_15icarus_canister12easy_storage5testss_21test_storage_cell_new
FNDA:1,_RNvNtNtCsdI2lQqL7LKT_15icarus_canister12easy_storage5testss_21test_storage_map_iter
FNDA:1,_RNvNtNtCsdI2lQqL7LKT_15icarus_canister12easy_storage5testss_22test_storage_map_clear
FNDA:1,_RNvNtNtCsdI2lQqL7LKT_15icarus_canister12easy_storage5testss_23test_storage_map_remove
FNDA:1,_RNvNtNtCsdI2lQqL7LKT_15icarus_canister12easy_storage5testss_23test_storage_map_values
FNDA:1,_RNvNtNtCsdI2lQqL7LKT_15icarus_canister12easy_storage5testss_25test_storage_map_contains
FNDA:1,_RNvNtNtCsdI2lQqL7LKT_15icarus_canister12easy_storage5testss_27test_counter_cell_decrement
FNDA:1,_RNvNtNtCsdI2lQqL7LKT_15icarus_canister12easy_storage5testss_27test_counter_cell_increment
FNDA:1,_RNvNtNtCsdI2lQqL7LKT_15icarus_canister12easy_storage5testss_27test_storage_cell_overwrite
FNDA:1,_RNvNtNtCsdI2lQqL7LKT_15icarus_canister12easy_storage5testss_29test_counter_cell_set_and_get
FNDA:1,_RNvNtNtCsdI2lQqL7LKT_15icarus_canister12easy_storage5testss_29test_storage_cell_set_and_get
FNDA:1,_RNvNtNtCsdI2lQqL7LKT_15icarus_canister12easy_storage5testss_30test_counter_cell_large_values
FNDA:1,_RNvNtNtCsdI2lQqL7LKT_15icarus_canister12easy_storage5testss_30test_storage_map_get_or_insert
FNDA:1,_RNvNtNtCsdI2lQqL7LKT_15icarus_canister12easy_storage5testss_31test_storage_map_insert_and_get
FNDA:1,_RNvNtNtCsdI2lQqL7LKT_15icarus_canister12easy_storage5testss_38test_counter_cell_decrement_saturating
FNDA:1,_RNvNtNtCsdI2lQqL7LKT_15icarus_canister12easy_storage5testss_44test_multiple_storage_instances_independence
FNDA:1,_RNvNtNtCsdI2lQqL7LKT_15icarus_canister12easy_storage5testss_46test_counter_cell_increment_decrement_sequence
FNDA:28,_RNvXNtNtCsdI2lQqL7LKT_15icarus_canister12easy_storage5testsNtB2_7TestKeyNtNtCs28SCrKVqmuK_20ic_stable_structures8storable8Storable10from_bytes
FNDA:33,_RNvXNtNtCsdI2lQqL7LKT_15icarus_canister12easy_storage5testsNtB2_7TestKeyNtNtCs28SCrKVqmuK_20ic_stable_structures8storable8Storable8to_bytes
FNDA:0,_RNvXs0_NtNtCsdI2lQqL7LKT_15icarus_canister12easy_storage5testsNtB5_13TestCellValueNtNtCs28SCrKVqmuK_20ic_stable_structures8storable8Storable10from_bytes
FNDA:6,_RNvXs0_NtNtCsdI2lQqL7LKT_15icarus_canister12easy_storage5testsNtB5_13TestCellValueNtNtCs28SCrKVqmuK_20ic_stable_structures8storable8Storable8to_bytes
FNDA:11,_RNvXs_NtNtCsdI2lQqL7LKT_15icarus_canister12easy_storage5testsNtB4_9TestValueNtNtCs28SCrKVqmuK_20ic_stable_structures8storable8Storable10from_bytes
FNDA:17,_RNvXs_NtNtCsdI2lQqL7LKT_15icarus_canister12easy_storage5testsNtB4_9TestValueNtNtCs28SCrKVqmuK_20ic_stable_structures8storable8Storable10into_bytes
FNDA:0,_RNvXNtNtCsdI2lQqL7LKT_15icarus_canister12easy_storage5testsNtB2_7TestKeyNtNtCs28SCrKVqmuK_20ic_stable_structures8storable8Storable10into_bytes
FNDA:0,_RNvXs0_NtNtCsdI2lQqL7LKT_15icarus_canister12easy_storage5testsNtB5_13TestCellValueNtNtCs28SCrKVqmuK_20ic_stable_structures8storable8Storable10into_bytes
FNDA:0,_RNvXs_NtNtCsdI2lQqL7LKT_15icarus_canister12easy_storage5testsNtB4_9TestValueNtNtCs28SCrKVqmuK_20ic_stable_structures8storable8Storable8to_bytes
FNF:54
FNH:49
DA:134,10
DA:135,10
DA:136,10
DA:137,10
DA:138,10
DA:140,16
DA:141,16
DA:142,16
DA:144,5
DA:145,5
DA:146,5
DA:148,1
DA:149,1
DA:150,1
DA:152,3
DA:153,3
DA:154,3
DA:156,8
DA:157,8
DA:158,8
DA:160,4
DA:161,4
DA:162,4
DA:164,1
DA:165,1
DA:166,1
DA:168,1
DA:169,1
DA:170,1
DA:172,3
DA:173,3
DA:174,3
DA:175,1
DA:177,1
DA:178,1
DA:179,1
DA:180,1
DA:181,3
DA:182,1
DA:183,1
DA:185,2
DA:186,2
DA:187,2
DA:189,2
DA:190,1
DA:192,1
DA:193,1
DA:194,1
DA:196,2
DA:211,3
DA:212,3
DA:213,3
DA:214,3
DA:215,3
DA:217,3
DA:218,3
DA:219,3
DA:221,3
DA:222,3
DA:223,3
DA:224,3
DA:233,9
DA:234,9
DA:235,9
DA:236,9
DA:237,9
DA:239,34
DA:240,34
DA:241,34
DA:243,21
DA:244,21
DA:245,21
DA:246,21
DA:248,8
DA:249,8
DA:250,8
DA:251,8
DA:252,8
DA:253,8
DA:255,8
DA:256,8
DA:257,8
DA:258,8
DA:259,8
DA:260,8
DA:274,33
DA:275,33
DA:276,33
DA:278,28
DA:279,28
DA:280,28
DA:282,0
DA:283,0
DA:284,0
DA:296,0
DA:297,0
DA:298,0
DA:299,0
DA:300,0
DA:301,0
DA:302,0
DA:303,0
DA:304,0
DA:306,11
DA:307,11
DA:308,11
DA:309,11
DA:310,11
DA:311,11
DA:312,11
DA:313,11
DA:314,11
DA:315,11
DA:316,11
DA:317,11
DA:318,11
DA:320,17
DA:321,17
DA:322,17
DA:323,17
DA:324,17
DA:325,17
DA:326,17
DA:327,17
DA:328,17
DA:341,6
DA:342,6
DA:343,6
DA:344,6
DA:345,6
DA:346,6
DA:347,6
DA:348,6
DA:349,6
DA:351,0
DA:352,0
DA:353,0
DA:354,0
DA:355,0
DA:356,0
DA:357,0
DA:358,0
DA:359,0
DA:360,0
DA:361,0
DA:362,0
DA:363,0
DA:364,0
DA:365,0
DA:366,0
DA:367,0
DA:368,0
DA:369,0
DA:371,0
DA:372,0
DA:373,0
DA:374,0
DA:375,0
DA:376,0
DA:377,0
DA:378,0
DA:379,0
DA:386,1
DA:387,1
DA:388,1
DA:389,1
DA:390,1
DA:393,1
DA:394,1
DA:395,1
DA:396,1
DA:397,1
DA:398,1
DA:399,1
DA:401,1
DA:402,1
DA:403,1
DA:405,1
DA:406,1
DA:407,1
DA:409,1
DA:410,1
DA:411,1
DA:414,1
DA:415,1
DA:416,1
DA:417,1
DA:418,1
DA:419,1
DA:420,1
DA:422,1
DA:424,1
DA:425,1
DA:426,1
DA:429,1
DA:430,1
DA:431,1
DA:432,1
DA:433,1
DA:434,1
DA:435,1
DA:437,1
DA:438,1
DA:440,1
DA:441,1
DA:442,1
DA:444,1
DA:445,1
DA:446,1
DA:447,1
DA:450,1
DA:451,1
DA:454,6
DA:455,5
DA:456,5
DA:457,5
DA:458,5
DA:459,5
DA:460,5
DA:461,5
DA:463,1
DA:465,1
DA:467,1
DA:468,1
DA:469,1
DA:472,1
DA:473,1
DA:476,4
DA:477,3
DA:478,3
DA:479,3
DA:480,3
DA:481,3
DA:482,3
DA:483,3
DA:485,1
DA:486,3
DA:487,3
DA:488,3
DA:490,1
DA:491,2
DA:493,3
DA:494,3
DA:495,3
DA:497,1
DA:500,1
DA:501,1
DA:502,1
DA:505,4
DA:506,3
DA:507,3
DA:508,3
DA:509,3
DA:510,3
DA:511,3
DA:512,3
DA:513,3
DA:515,1
DA:516,2
DA:517,2
DA:519,1
DA:520,1
DA:523,1
DA:524,1
DA:525,1
DA:526,1
DA:527,1
DA:528,1
DA:529,1
DA:532,1
DA:533,1
DA:534,1
DA:537,1
DA:538,0
DA:540,0
DA:541,1
DA:542,1
DA:543,1
DA:547,1
DA:548,1
DA:549,1
DA:550,1
DA:551,1
DA:554,1
DA:555,1
DA:556,1
DA:557,1
DA:558,1
DA:559,1
DA:561,1
DA:562,1
DA:564,1
DA:565,1
DA:566,1
DA:569,1
DA:570,1
DA:571,1
DA:572,1
DA:573,1
DA:574,1
DA:575,1
DA:576,1
DA:577,1
DA:578,1
DA:580,1
DA:581,1
DA:583,1
DA:584,1
DA:585,1
DA:589,1
DA:590,1
DA:591,1
DA:592,1
DA:595,1
DA:596,1
DA:598,1
DA:599,1
DA:600,1
DA:601,1
DA:604,1
DA:605,1
DA:608,1
DA:611,1
DA:612,1
DA:614,1
DA:615,1
DA:617,1
DA:618,1
DA:619,1
DA:622,1
DA:623,1
DA:626,1
DA:627,1
DA:630,1
DA:631,1
DA:633,1
DA:634,1
DA:635,1
DA:638,1
DA:639,1
DA:642,1
DA:645,1
DA:646,1
DA:649,1
DA:650,1
DA:651,1
DA:654,1
DA:655,1
DA:658,1
DA:659,1
DA:660,1
DA:661,1
DA:662,1
DA:663,1
DA:664,1
DA:665,1
DA:668,1
DA:669,1
DA:671,1
DA:672,1
DA:673,1
DA:676,1
DA:677,1
DA:678,1
DA:681,1
DA:682,1
DA:683,1
DA:684,1
DA:685,1
DA:687,1
DA:688,1
DA:689,1
DA:690,1
DA:691,1
DA:692,1
DA:693,1
DA:694,1
DA:695,1
DA:698,1
DA:699,1
DA:701,1
DA:702,1
DA:705,1
DA:706,1
DA:708,1
DA:709,1
DA:711,1
DA:712,1
DA:713,1
DA:714,1
BRF:0
BRH:0
LF:396
LH:353
end_of_record
SF:/Users/goshea/projects/icarus/icarus-sdk/crates/icarus-canister/src/endpoints.rs
FN:21,_RNCNCNvNtCsjQImORMhHZ8_15icarus_canister9endpoints15icarus_metadata00B7_
FN:68,_RNCNvNtCsjQImORMhHZ8_15icarus_canister9endpoints12http_request0B5_
FN:12,_RNCNvNtCsjQImORMhHZ8_15icarus_canister9endpoints15icarus_metadata0B5_
FN:44,_RINvXNtCsdI2lQqL7LKT_15icarus_canister9endpointsNtB3_11HttpRequestNtNtCs8Ixg1ZPW7af_6candid5types10CandidType13idl_serializepEB5_
FN:53,_RINvXs_NtCsdI2lQqL7LKT_15icarus_canister9endpointsNtB5_12HttpResponseNtNtCs8Ixg1ZPW7af_6candid5types10CandidType13idl_serializepEB7_
FN:21,_RNCNCNvNtCsdI2lQqL7LKT_15icarus_canister9endpoints15icarus_metadata00B7_
FN:68,_RNCNvNtCsdI2lQqL7LKT_15icarus_canister9endpoints12http_request0B5_
FN:12,_RNCNvNtCsdI2lQqL7LKT_15icarus_canister9endpoints15icarus_metadata0B5_
FN:61,_RNvNtCsdI2lQqL7LKT_15icarus_canister9endpoints12http_request
FN:11,_RNvNtCsdI2lQqL7LKT_15icarus_canister9endpoints15icarus_metadata
FN:171,_RNvNtCsdI2lQqL7LKT_15icarus_canister9endpoints9get_owner
FNDA:0,_RNCNCNvNtCsjQImORMhHZ8_15icarus_canister9endpoints15icarus_metadata00B7_
FNDA:0,_RNCNvNtCsjQImORMhHZ8_15icarus_canister9endpoints12http_request0B5_
FNDA:0,_RNCNvNtCsjQImORMhHZ8_15icarus_canister9endpoints15icarus_metadata0B5_
FNDA:0,_RINvXNtCsdI2lQqL7LKT_15icarus_canister9endpointsNtB3_11HttpRequestNtNtCs8Ixg1ZPW7af_6candid5types10CandidType13idl_serializepEB5_
FNDA:0,_RINvXs_NtCsdI2lQqL7LKT_15icarus_canister9endpointsNtB5_12HttpResponseNtNtCs8Ixg1ZPW7af_6candid5types10CandidType13idl_serializepEB7_
FNDA:0,_RNCNCNvNtCsdI2lQqL7LKT_15icarus_canister9endpoints15icarus_metadata00B7_
FNDA:0,_RNCNvNtCsdI2lQqL7LKT_15icarus_canister9endpoints12http_request0B5_
FNDA:0,_RNCNvNtCsdI2lQqL7LKT_15icarus_canister9endpoints15icarus_metadata0B5_
FNDA:0,_RNvNtCsdI2lQqL7LKT_15icarus_canister9endpoints12http_request
FNDA:0,_RNvNtCsdI2lQqL7LKT_15icarus_canister9endpoints15icarus_metadata
FNDA:0,_RNvNtCsdI2lQqL7LKT_15icarus_canister9endpoints9get_owner
FNF:8
FNH:0
DA:11,0
DA:12,0
DA:13,0
DA:14,0
DA:16,0
DA:17,0
DA:18,0
DA:19,0
DA:20,0
DA:21,0
DA:22,0
DA:23,0
DA:24,0
DA:25,0
DA:26,0
DA:27,0
DA:28,0
DA:29,0
DA:30,0
DA:31,0
DA:34,0
DA:35,0
DA:36,0
DA:37,0
DA:38,0
DA:40,0
DA:41,0
DA:44,0
DA:53,0
DA:61,0
DA:62,0
DA:65,0
DA:66,0
DA:67,0
DA:68,0
DA:69,0
DA:70,0
DA:71,0
DA:72,0
DA:73,0
DA:75,0
DA:78,0
DA:79,0
DA:80,0
DA:82,0
DA:83,0
DA:84,0
DA:85,0
DA:86,0
DA:87,0
DA:88,0
DA:89,0
DA:90,0
DA:91,0
DA:92,0
DA:93,0
DA:94,0
DA:95,0
DA:96,0
DA:97,0
DA:98,0
DA:99,0
DA:100,0
DA:101,0
DA:102,0
DA:103,0
DA:104,0
DA:105,0
DA:106,0
DA:107,0
DA:108,0
DA:109,0
DA:110,0
DA:111,0
DA:112,0
DA:113,0
DA:114,0
DA:115,0
DA:116,0
DA:117,0
DA:118,0
DA:119,0
DA:120,0
DA:121,0
DA:122,0
DA:123,0
DA:124,0
DA:125,0
DA:126,0
DA:127,0
DA:128,0
DA:129,0
DA:130,0
DA:131,0
DA:132,0
DA:133,0
DA:134,0
DA:135,0
DA:136,0
DA:137,0
DA:138,0
DA:139,0
DA:140,0
DA:141,0
DA:142,0
DA:143,0
DA:144,0
DA:145,0
DA:146,0
DA:147,0
DA:148,0
DA:149,0
DA:150,0
DA:151,0
DA:154,0
DA:157,0
DA:158,0
DA:159,0
DA:160,0
DA:161,0
DA:162,0
DA:163,0
DA:164,0
DA:165,0
DA:166,0
DA:167,0
DA:168,0
DA:171,0
DA:172,0
DA:173,0
BRF:0
BRH:0
LF:133
LH:0
end_of_record
SF:/Users/goshea/projects/icarus/icarus-sdk/crates/icarus-canister/src/http.rs
FN:128,_RNvNtCsjQImORMhHZ8_15icarus_canister4http15execute_request
FN:78,_RNvNtCsjQImORMhHZ8_15icarus_canister4http15get_with_config
FN:225,_RNvNtCsjQImORMhHZ8_15icarus_canister4http18transform_response
FN:103,_RNvNtCsjQImORMhHZ8_15icarus_canister4http21post_json_with_config
FN:168,_RNvNtCsjQImORMhHZ8_15icarus_canister4http22execute_single_request
FN:73,_RNvNtCsjQImORMhHZ8_15icarus_canister4http3get
FN:118,_RNvNtCsjQImORMhHZ8_15icarus_canister4http7request
FN:98,_RNvNtCsjQImORMhHZ8_15icarus_canister4http9post_json
FN:52,_RNvXNtCsjQImORMhHZ8_15icarus_canister4httpNtB2_10HttpConfigNtNtCsaNl6UpbT7bw_4core7default7Default7default
FN:225,_RNvNtCsdI2lQqL7LKT_15icarus_canister4http18transform_response
FN:52,_RNvXNtCsdI2lQqL7LKT_15icarus_canister4httpNtB2_10HttpConfigNtNtCsaNl6UpbT7bw_4core7default7Default7default
FN:164,_RNCNCNvNtCsdI2lQqL7LKT_15icarus_canister4http15execute_request00B7_
FN:112,_RNCNCNvNtCsdI2lQqL7LKT_15icarus_canister4http21post_json_with_config00B7_
FN:177,_RNCNCNvNtCsdI2lQqL7LKT_15icarus_canister4http22execute_single_request00B7_
FN:220,_RNCNCNvNtCsdI2lQqL7LKT_15icarus_canister4http22execute_single_request0s0_0B7_
FN:197,_RNCNCNvNtCsdI2lQqL7LKT_15icarus_canister4http22execute_single_request0s_0B7_
FN:134,_RNCNvNtCsdI2lQqL7LKT_15icarus_canister4http15execute_request0B5_
FN:78,_RNCNvNtCsdI2lQqL7LKT_15icarus_canister4http15get_with_config0B5_
FN:107,_RNCNvNtCsdI2lQqL7LKT_15icarus_canister4http21post_json_with_config0B5_
FN:174,_RNCNvNtCsdI2lQqL7LKT_15icarus_canister4http22execute_single_request0B5_
FN:73,_RNCNvNtCsdI2lQqL7LKT_15icarus_canister4http3get0B5_
FN:123,_RNCNvNtCsdI2lQqL7LKT_15icarus_canister4http7request0B5_
FN:98,_RNCNvNtCsdI2lQqL7LKT_15icarus_canister4http9post_json0B5_
FN:128,_RNvNtCsdI2lQqL7LKT_15icarus_canister4http15execute_request
FN:78,_RNvNtCsdI2lQqL7LKT_15icarus_canister4http15get_with_config
FN:103,_RNvNtCsdI2lQqL7LKT_15icarus_canister4http21post_json_with_config
FN:168,_RNvNtCsdI2lQqL7LKT_15icarus_canister4http22execute_single_request
FN:73,_RNvNtCsdI2lQqL7LKT_15icarus_canister4http3get
FN:118,_RNvNtCsdI2lQqL7LKT_15icarus_canister4http7request
FN:98,_RNvNtCsdI2lQqL7LKT_15icarus_canister4http9post_json
FN:278,_RNvNtNtCsdI2lQqL7LKT_15icarus_canister4http5tests12validate_url
FN:267,_RNvNtNtCsdI2lQqL7LKT_15icarus_canister4http5testss_19test_url_validation
FN:289,_RNvNtNtCsdI2lQqL7LKT_15icarus_canister4http5testss_20test_config_defaults
FNDA:0,_RNvNtCsjQImORMhHZ8_15icarus_canister4http15execute_request
FNDA:0,_RNvNtCsjQImORMhHZ8_15icarus_canister4http15get_with_config
FNDA:0,_RNvNtCsjQImORMhHZ8_15icarus_canister4http18transform_response
FNDA:0,_RNvNtCsjQImORMhHZ8_15icarus_canister4http21post_json_with_config
FNDA:0,_RNvNtCsjQImORMhHZ8_15icarus_canister4http22execute_single_request
FNDA:0,_RNvNtCsjQImORMhHZ8_15icarus_canister4http3get
FNDA:0,_RNvNtCsjQImORMhHZ8_15icarus_canister4http7request
FNDA:0,_RNvNtCsjQImORMhHZ8_15icarus_canister4http9post_json
FNDA:0,_RNvXNtCsjQImORMhHZ8_15icarus_canister4httpNtB2_10HttpConfigNtNtCsaNl6UpbT7bw_4core7default7Default7default
FNDA:0,_RNvNtCsdI2lQqL7LKT_15icarus_canister4http18transform_response
FNDA:1,_RNvXNtCsdI2lQqL7LKT_15icarus_canister4httpNtB2_10HttpConfigNtNtCsaNl6UpbT7bw_4core7default7Default7default
FNDA:0,_RNCNCNvNtCsdI2lQqL7LKT_15icarus_canister4http15execute_request00B7_
FNDA:0,_RNCNCNvNtCsdI2lQqL7LKT_15icarus_canister4http21post_json_with_config00B7_
FNDA:0,_RNCNCNvNtCsdI2lQqL7LKT_15icarus_canister4http22execute_single_request00B7_
FNDA:0,_RNCNCNvNtCsdI2lQqL7LKT_15icarus_canister4http22execute_single_request0s0_0B7_
FNDA:0,_RNCNCNvNtCsdI2lQqL7LKT_15icarus_canister4http22execute_single_request0s_0B7_
FNDA:0,_RNCNvNtCsdI2lQqL7LKT_15icarus_canister4http15execute_request0B5_
FNDA:0,_RNCNvNtCsdI2lQqL7LKT_15icarus_canister4http15get_with_config0B5_
FNDA:0,_RNCNvNtCsdI2lQqL7LKT_15icarus_canister4http21post_json_with_config0B5_
FNDA:0,_RNCNvNtCsdI2lQqL7LKT_15icarus_canister4http22execute_single_request0B5_
FNDA:0,_RNCNvNtCsdI2lQqL7LKT_15icarus_canister4http3get0B5_
FNDA:0,_RNCNvNtCsdI2lQqL7LKT_15icarus_canister4http7request0B5_
FNDA:0,_RNCNvNtCsdI2lQqL7LKT_15icarus_canister4http9post_json0B5_
FNDA:0,_RNvNtCsdI2lQqL7LKT_15icarus_canister4http15execute_request
FNDA:0,_RNvNtCsdI2lQqL7LKT_15icarus_canister4http15get_with_config
FNDA:0,_RNvNtCsdI2lQqL7LKT_15icarus_canister4http21post_json_with_config
FNDA:0,_RNvNtCsdI2lQqL7LKT_15icarus_canister4http22execute_single_request
FNDA:0,_RNvNtCsdI2lQqL7LKT_15icarus_canister4http3get
FNDA:0,_RNvNtCsdI2lQqL7LKT_15icarus_canister4http7request
FNDA:0,_RNvNtCsdI2lQqL7LKT_15icarus_canister4http9post_json
FNDA:5,_RNvNtNtCsdI2lQqL7LKT_15icarus_canister4http5tests12validate_url
FNDA:1,_RNvNtNtCsdI2lQqL7LKT_15icarus_canister4http5testss_19test_url_validation
FNDA:1,_RNvNtNtCsdI2lQqL7LKT_15icarus_canister4http5testss_20test_config_defaults
FNF:24
FNH:4
DA:52,1
DA:53,1
DA:54,1
DA:55,1
DA:56,1
DA:57,1
DA:58,1
DA:59,1
DA:73,0
DA:74,0
DA:75,0
DA:78,0
DA:79,0
DA:80,0
DA:98,0
DA:99,0
DA:100,0
DA:103,0
DA:104,0
DA:105,0
DA:106,0
DA:107,0
DA:108,0
DA:109,0
DA:111,0
DA:112,0
DA:114,0
DA:115,0
DA:118,0
DA:119,0
DA:120,0
DA:121,0
DA:122,0
DA:123,0
DA:124,0
DA:125,0
DA:128,0
DA:129,0
DA:130,0
DA:131,0
DA:132,0
DA:133,0
DA:134,0
DA:136,0
DA:137,0
DA:138,0
DA:139,0
DA:140,0
DA:142,0
DA:143,0
DA:145,0
DA:146,0
DA:147,0
DA:148,0
DA:149,0
DA:150,0
DA:152,0
DA:153,0
DA:154,0
DA:155,0
DA:156,0
DA:157,0
DA:158,0
DA:163,0
DA:164,0
DA:165,0
DA:168,0
DA:169,0
DA:170,0
DA:171,0
DA:172,0
DA:173,0
DA:174,0
DA:175,0
DA:176,0
DA:177,0
DA:178,0
DA:180,0
DA:181,0
DA:182,0
DA:183,0
DA:184,0
DA:185,0
DA:186,0
DA:187,0
DA:188,0
DA:189,0
DA:190,0
DA:191,0
DA:192,0
DA:193,0
DA:195,0
DA:196,0
DA:197,0
DA:200,0
DA:202,0
DA:203,0
DA:205,0
DA:206,0
DA:207,0
DA:208,0
DA:209,0
DA:212,0
DA:213,0
DA:214,0
DA:215,0
DA:216,0
DA:217,0
DA:219,0
DA:220,0
DA:221,0
DA:225,0
DA:228,0
DA:229,0
DA:267,1
DA:269,1
DA:270,1
DA:273,1
DA:274,1
DA:275,1
DA:276,1
DA:278,5
DA:279,5
DA:280,3
DA:281,3
DA:282,3
DA:284,2
DA:286,5
DA:289,1
DA:290,1
DA:291,1
DA:292,1
DA:293,1
DA:294,1
DA:295,1
BRF:0
BRH:0
LF:147
LH:29
end_of_record
SF:/Users/goshea/projects/icarus/icarus-sdk/crates/icarus-canister/src/lifecycle.rs
FN:157,_RNCNvNtNtCsdI2lQqL7LKT_15icarus_canister9lifecycle5testss_21test_pre_upgrade_hook0B7_
FN:167,_RNCNvNtNtCsdI2lQqL7LKT_15icarus_canister9lifecycle5testss_21test_pre_upgrade_hooks_0B7_
FN:183,_RNCNvNtNtCsdI2lQqL7LKT_15icarus_canister9lifecycle5testss_22test_post_upgrade_hook0B7_
FN:114,_RNCNvNtNtCsdI2lQqL7LKT_15icarus_canister9lifecycle5testss_26test_init_sets_canister_id0B7_
FN:223,_RNCNvNtNtCsdI2lQqL7LKT_15icarus_canister9lifecycle5testss_26test_lifecycle_hooks_order0B7_
FN:239,_RNCNvNtNtCsdI2lQqL7LKT_15icarus_canister9lifecycle5testss_26test_lifecycle_hooks_orders0_0B7_
FN:231,_RNCNvNtNtCsdI2lQqL7LKT_15icarus_canister9lifecycle5testss_26test_lifecycle_hooks_orders_0B7_
FN:72,_RNCNvNtNtCsdI2lQqL7LKT_15icarus_canister9lifecycle5testss_31test_init_creates_server_config0B7_
FN:90,_RNCNvNtNtCsdI2lQqL7LKT_15icarus_canister9lifecycle5testss_31test_init_with_different_owners0B7_
FN:99,_RNCNvNtNtCsdI2lQqL7LKT_15icarus_canister9lifecycle5testss_31test_init_with_different_ownerss_0B7_
FN:252,_RNCNvNtNtCsdI2lQqL7LKT_15icarus_canister9lifecycle5testss_34test_init_with_anonymous_principal0B7_
FN:208,_RNCNvNtNtCsdI2lQqL7LKT_15icarus_canister9lifecycle5testss_34test_memory_persistence_simulation0B7_
FN:271,_RNCNvNtNtCsdI2lQqL7LKT_15icarus_canister9lifecycle5testss_34test_multiple_lifecycle_operations0B7_
FN:142,_RNCNvNtNtCsdI2lQqL7LKT_15icarus_canister9lifecycle5testss_38test_init_uses_current_package_version0B7_
FN:128,_RNCNvNtNtCsdI2lQqL7LKT_15icarus_canister9lifecycle5testss_39test_init_initializes_empty_collections0B7_
FN:19,_RNvNtCsdI2lQqL7LKT_15icarus_canister9lifecycle11pre_upgrade
FN:24,_RNvNtCsdI2lQqL7LKT_15icarus_canister9lifecycle12post_upgrade
FN:39,_RNvNtNtCsdI2lQqL7LKT_15icarus_canister9lifecycle5tests14test_principal
FN:44,_RNvNtNtCsdI2lQqL7LKT_15icarus_canister9lifecycle5tests23test_canister_principal
FN:54,_RNvNtNtCsdI2lQqL7LKT_15icarus_canister9lifecycle5tests25create_test_server_config
FN:151,_RNvNtNtCsdI2lQqL7LKT_15icarus_canister9lifecycle5testss_21test_pre_upgrade_hook
FN:174,_RNvNtNtCsdI2lQqL7LKT_15icarus_canister9lifecycle5testss_22test_post_upgrade_hook
FN:108,_RNvNtNtCsdI2lQqL7LKT_15icarus_canister9lifecycle5testss_26test_init_sets_canister_id
FN:215,_RNvNtNtCsdI2lQqL7LKT_15icarus_canister9lifecycle5testss_26test_lifecycle_hooks_order
FN:64,_RNvNtNtCsdI2lQqL7LKT_15icarus_canister9lifecycle5testss_31test_init_creates_server_config
FN:81,_RNvNtNtCsdI2lQqL7LKT_15icarus_canister9lifecycle5testss_31test_init_with_different_owners
FN:245,_RNvNtNtCsdI2lQqL7LKT_15icarus_canister9lifecycle5testss_34test_init_with_anonymous_principal
FN:190,_RNvNtNtCsdI2lQqL7LKT_15icarus_canister9lifecycle5testss_34test_memory_persistence_simulation
FN:258,_RNvNtNtCsdI2lQqL7LKT_15icarus_canister9lifecycle5testss_34test_multiple_lifecycle_operations
FN:136,_RNvNtNtCsdI2lQqL7LKT_15icarus_canister9lifecycle5testss_38test_init_uses_current_package_version
FN:122,_RNvNtNtCsdI2lQqL7LKT_15icarus_canister9lifecycle5testss_39test_init_initializes_empty_collections
FN:51,_RNCNvNtNtCsdI2lQqL7LKT_15icarus_canister9lifecycle5tests17clear_test_memory0B7_
FN:7,_RNvNtCsdI2lQqL7LKT_15icarus_canister9lifecycle4init
FN:49,_RNvNtNtCsdI2lQqL7LKT_15icarus_canister9lifecycle5tests17clear_test_memory
FNDA:1,_RNCNvNtNtCsdI2lQqL7LKT_15icarus_canister9lifecycle5testss_21test_pre_upgrade_hook0B7_
FNDA:1,_RNCNvNtNtCsdI2lQqL7LKT_15icarus_canister9lifecycle5testss_21test_pre_upgrade_hooks_0B7_
FNDA:1,_RNCNvNtNtCsdI2lQqL7LKT_15icarus_canister9lifecycle5testss_22test_post_upgrade_hook0B7_
FNDA:1,_RNCNvNtNtCsdI2lQqL7LKT_15icarus_canister9lifecycle5testss_26test_init_sets_canister_id0B7_
FNDA:1,_RNCNvNtNtCsdI2lQqL7LKT_15icarus_canister9lifecycle5testss_26test_lifecycle_hooks_order0B7_
FNDA:1,_RNCNvNtNtCsdI2lQqL7LKT_15icarus_canister9lifecycle5testss_26test_lifecycle_hooks_orders0_0B7_
FNDA:1,_RNCNvNtNtCsdI2lQqL7LKT_15icarus_canister9lifecycle5testss_26test_lifecycle_hooks_orders_0B7_
FNDA:1,_RNCNvNtNtCsdI2lQqL7LKT_15icarus_canister9lifecycle5testss_31test_init_creates_server_config0B7_
FNDA:1,_RNCNvNtNtCsdI2lQqL7LKT_15icarus_canister9lifecycle5testss_31test_init_with_different_owners0B7_
FNDA:1,_RNCNvNtNtCsdI2lQqL7LKT_15icarus_canister9lifecycle5testss_31test_init_with_different_ownerss_0B7_
FNDA:1,_RNCNvNtNtCsdI2lQqL7LKT_15icarus_canister9lifecycle5testss_34test_init_with_anonymous_principal0B7_
FNDA:1,_RNCNvNtNtCsdI2lQqL7LKT_15icarus_canister9lifecycle5testss_34test_memory_persistence_simulation0B7_
FNDA:3,_RNCNvNtNtCsdI2lQqL7LKT_15icarus_canister9lifecycle5testss_34test_multiple_lifecycle_operations0B7_
FNDA:1,_RNCNvNtNtCsdI2lQqL7LKT_15icarus_canister9lifecycle5testss_38test_init_uses_current_package_version0B7_
FNDA:1,_RNCNvNtNtCsdI2lQqL7LKT_15icarus_canister9lifecycle5testss_39test_init_initializes_empty_collections0B7_
FNDA:6,_RNvNtCsdI2lQqL7LKT_15icarus_canister9lifecycle11pre_upgrade
FNDA:6,_RNvNtCsdI2lQqL7LKT_15icarus_canister9lifecycle12post_upgrade
FNDA:11,_RNvNtNtCsdI2lQqL7LKT_15icarus_canister9lifecycle5tests14test_principal
FNDA:12,_RNvNtNtCsdI2lQqL7LKT_15icarus_canister9lifecycle5tests23test_canister_principal
FNDA:12,_RNvNtNtCsdI2lQqL7LKT_15icarus_canister9lifecycle5tests25create_test_server_config
FNDA:1,_RNvNtNtCsdI2lQqL7LKT_15icarus_canister9lifecycle5testss_21test_pre_upgrade_hook
FNDA:1,_RNvNtNtCsdI2lQqL7LKT_15icarus_canister9lifecycle5testss_22test_post_upgrade_hook
FNDA:1,_RNvNtNtCsdI2lQqL7LKT_15icarus_canister9lifecycle5testss_26test_init_sets_canister_id
FNDA:1,_RNvNtNtCsdI2lQqL7LKT_15icarus_canister9lifecycle5testss_26test_lifecycle_hooks_order
FNDA:1,_RNvNtNtCsdI2lQqL7LKT_15icarus_canister9lifecycle5testss_31test_init_creates_server_config
FNDA:1,_RNvNtNtCsdI2lQqL7LKT_15icarus_canister9lifecycle5testss_31test_init_with_different_owners
FNDA:1,_RNvNtNtCsdI2lQqL7LKT_15icarus_canister9lifecycle5testss_34test_init_with_anonymous_principal
FNDA:1,_RNvNtNtCsdI2lQqL7LKT_15icarus_canister9lifecycle5testss_34test_memory_persistence_simulation
FNDA:1,_RNvNtNtCsdI2lQqL7LKT_15icarus_canister9lifecycle5testss_34test_multiple_lifecycle_operations
FNDA:1,_RNvNtNtCsdI2lQqL7LKT_15icarus_canister9lifecycle5testss_38test_init_uses_current_package_version
FNDA:1,_RNvNtNtCsdI2lQqL7LKT_15icarus_canister9lifecycle5testss_39test_init_initializes_empty_collections
FNDA:0,_RNCNvNtNtCsdI2lQqL7LKT_15icarus_canister9lifecycle5tests17clear_test_memory0B7_
FNDA:0,_RNvNtCsdI2lQqL7LKT_15icarus_canister9lifecycle4init
FNDA:0,_RNvNtNtCsdI2lQqL7LKT_15icarus_canister9lifecycle5tests17clear_test_memory
FNF:34
FNH:31
DA:7,0
DA:8,0
DA:9,0
DA:10,0
DA:11,0
DA:12,0
DA:13,0
DA:15,0
DA:16,0
DA:19,6
DA:21,6
DA:24,6
DA:28,6
DA:39,11
DA:40,11
DA:41,11
DA:44,12
DA:45,12
DA:46,12
DA:49,0
DA:51,0
DA:52,0
DA:54,12
DA:55,12
DA:56,12
DA:57,12
DA:58,12
DA:59,12
DA:60,12
DA:61,12
DA:64,1
DA:65,1
DA:66,1
DA:69,1
DA:72,1
DA:73,1
DA:74,1
DA:75,1
DA:76,1
DA:77,1
DA:78,1
DA:81,1
DA:84,1
DA:85,1
DA:88,1
DA:89,1
DA:90,1
DA:91,1
DA:92,1
DA:95,1
DA:96,1
DA:99,1
DA:101,1
DA:103,1
DA:104,1
DA:105,1
DA:108,1
DA:109,1
DA:110,1
DA:112,1
DA:114,1
DA:115,1
DA:117,1
DA:118,1
DA:119,1
DA:122,1
DA:123,1
DA:124,1
DA:126,1
DA:128,1
DA:130,1
DA:131,1
DA:132,1
DA:133,1
DA:136,1
DA:137,1
DA:138,1
DA:140,1
DA:142,1
DA:143,1
DA:145,1
DA:146,1
DA:147,1
DA:148,1
DA:151,1
DA:152,1
DA:153,1
DA:154,1
DA:157,1
DA:158,1
DA:161,1
DA:164,1
DA:167,1
DA:168,1
DA:169,1
DA:170,1
DA:171,1
DA:174,1
DA:175,1
DA:176,1
DA:177,1
DA:180,1
DA:183,1
DA:184,1
DA:185,1
DA:186,1
DA:187,1
DA:190,1
DA:191,1
DA:192,1
DA:195,1
DA:198,1
DA:199,1
DA:202,1
DA:205,1
DA:208,1
DA:209,1
DA:210,1
DA:211,1
DA:212,1
DA:215,1
DA:216,1
DA:217,1
DA:220,1
DA:223,1
DA:224,1
DA:225,1
DA:228,1
DA:231,1
DA:232,1
DA:233,1
DA:236,1
DA:239,1
DA:240,1
DA:241,1
DA:242,1
DA:245,1
DA:246,1
DA:247,1
DA:250,1
DA:252,1
DA:253,1
DA:254,1
DA:255,1
DA:258,1
DA:259,1
DA:260,1
DA:263,1
DA:266,4
DA:267,3
DA:268,3
DA:271,3
DA:272,3
DA:273,3
DA:274,3
DA:275,3
DA:277,1
BRF:0
BRH:0
LF:173
LH:160
end_of_record
SF:/Users/goshea/projects/icarus/icarus-sdk/crates/icarus-canister/src/macros.rs
FN:36,_RNCNvNvNtCsjQImORMhHZ8_15icarus_canister4auth10AUTH_AUDIT6___init0B7_
FN:36,_RNCNvNvNtCsjQImORMhHZ8_15icarus_canister4auth10AUTH_USERS6___init0B7_
FN:36,_RNCNvNvNtCsdI2lQqL7LKT_15icarus_canister4auth10AUTH_AUDIT6___init0B7_
FN:36,_RNCNvNvNtCsdI2lQqL7LKT_15icarus_canister4auth10AUTH_USERS6___init0B7_
FNDA:0,_RNCNvNvNtCsjQImORMhHZ8_15icarus_canister4auth10AUTH_AUDIT6___init0B7_
FNDA:0,_RNCNvNvNtCsjQImORMhHZ8_15icarus_canister4auth10AUTH_USERS6___init0B7_
FNDA:0,_RNCNvNvNtCsdI2lQqL7LKT_15icarus_canister4auth10AUTH_AUDIT6___init0B7_
FNDA:0,_RNCNvNvNtCsdI2lQqL7LKT_15icarus_canister4auth10AUTH_USERS6___init0B7_
FNF:1
FNH:0
DA:36,0
DA:37,0
DA:38,0
DA:39,0
BRF:0
BRH:0
LF:4
LH:0
end_of_record
SF:/Users/goshea/projects/icarus/icarus-sdk/crates/icarus-canister/src/memory.rs
FN:26,_RNvNtCsjQImORMhHZ8_15icarus_canister6memory10get_memory
FN:27,_RNCNvNtCsjQImORMhHZ8_15icarus_canister6memory10get_memory0B5_
FN:26,_RNvNtCsdI2lQqL7LKT_15icarus_canister6memory10get_memory
FN:27,_RNCNvNtCsdI2lQqL7LKT_15icarus_canister6memory10get_memory0B5_
FN:45,_RNvNtNtCsdI2lQqL7LKT_15icarus_canister6memory5testss_21test_get_memory_basic
FN:36,_RNvNtNtCsdI2lQqL7LKT_15icarus_canister6memory5testss_21test_memory_constants
FN:106,_RNvNtNtCsdI2lQqL7LKT_15icarus_canister6memory5testss_21test_memory_id_ranges
FN:147,_RNvNtNtCsdI2lQqL7LKT_15icarus_canister6memory5testss_21test_memory_isolation
FN:129,_RNvNtNtCsdI2lQqL7LKT_15icarus_canister6memory5testss_22test_memory_type_alias
FN:86,_RNvNtNtCsdI2lQqL7LKT_15icarus_canister6memory5testss_28test_all_memory_id_constants
FN:53,_RNvNtNtCsdI2lQqL7LKT_15icarus_canister6memory5testss_29test_get_memory_different_ids
FN:116,_RNvNtNtCsdI2lQqL7LKT_15icarus_canister6memory5testss_31test_get_memory_with_custom_ids
FN:74,_RNvNtNtCsdI2lQqL7LKT_15icarus_canister6memory5testss_31test_memory_manager_persistence
FN:136,_RNvNtNtCsdI2lQqL7LKT_15icarus_canister6memory5testss_32test_memory_manager_thread_local
FN:65,_RNvNtNtCsdI2lQqL7LKT_15icarus_canister6memory5testss_43test_get_memory_same_id_returns_same_memory
FN:138,_RNCNvNtNtCsdI2lQqL7LKT_15icarus_canister6memory5testss_32test_memory_manager_thread_local0B7_
FNDA:0,_RNvNtCsjQImORMhHZ8_15icarus_canister6memory10get_memory
FNDA:0,_RNCNvNtCsjQImORMhHZ8_15icarus_canister6memory10get_memory0B5_
FNDA:128,_RNvNtCsdI2lQqL7LKT_15icarus_canister6memory10get_memory
FNDA:128,_RNCNvNtCsdI2lQqL7LKT_15icarus_canister6memory10get_memory0B5_
FNDA:1,_RNvNtNtCsdI2lQqL7LKT_15icarus_canister6memory5testss_21test_get_memory_basic
FNDA:1,_RNvNtNtCsdI2lQqL7LKT_15icarus_canister6memory5testss_21test_memory_constants
FNDA:1,_RNvNtNtCsdI2lQqL7LKT_15icarus_canister6memory5testss_21test_memory_id_ranges
FNDA:1,_RNvNtNtCsdI2lQqL7LKT_15icarus_canister6memory5testss_21test_memory_isolation
FNDA:1,_RNvNtNtCsdI2lQqL7LKT_15icarus_canister6memory5testss_22test_memory_type_alias
FNDA:1,_RNvNtNtCsdI2lQqL7LKT_15icarus_canister6memory5testss_28test_all_memory_id_constants
FNDA:1,_RNvNtNtCsdI2lQqL7LKT_15icarus_canister6memory5testss_29test_get_memory_different_ids
FNDA:1,_RNvNtNtCsdI2lQqL7LKT_15icarus_canister6memory5testss_31test_get_memory_with_custom_ids
FNDA:1,_RNvNtNtCsdI2lQqL7LKT_15icarus_canister6memory5testss_31test_memory_manager_persistence
FNDA:1,_RNvNtNtCsdI2lQqL7LKT_15icarus_canister6memory5testss_32test_memory_manager_thread_local
FNDA:1,_RNvNtNtCsdI2lQqL7LKT_15icarus_canister6memory5testss_43test_get_memory_same_id_returns_same_memory
FNDA:1,_RNCNvNtNtCsdI2lQqL7LKT_15icarus_canister6memory5testss_32test_memory_manager_thread_local0B7_
FNF:14
FNH:14
DA:26,128
DA:27,128
DA:28,128
DA:36,1
DA:37,1
DA:38,1
DA:39,1
DA:40,1
DA:41,1
DA:42,1
DA:45,1
DA:46,1
DA:49,1
DA:50,1
DA:53,1
DA:54,1
DA:55,1
DA:56,1
DA:59,1
DA:60,1
DA:61,1
DA:62,1
DA:65,1
DA:66,1
DA:67,1
DA:70,1
DA:71,1
DA:74,1
DA:76,1
DA:79,1
DA:83,1
DA:86,1
DA:88,1
DA:96,5
DA:97,25
DA:98,25
DA:99,20
DA:100,5
DA:103,1
DA:106,1
DA:108,1
DA:109,1
DA:110,1
DA:111,1
DA:112,1
DA:113,1
DA:116,1
DA:118,1
DA:119,1
DA:120,1
DA:123,1
DA:124,1
DA:125,1
DA:126,1
DA:129,1
DA:131,1
DA:132,1
DA:133,1
DA:136,1
DA:138,1
DA:139,1
DA:141,1
DA:142,1
DA:143,1
DA:144,1
DA:147,1
DA:149,1
DA:150,1
DA:153,1
DA:154,1
DA:158,1
BRF:0
BRH:0
LF:73
LH:73
end_of_record
SF:/Users/goshea/projects/icarus/icarus-sdk/crates/icarus-canister/src/result.rs
FN:33,_RINvMNtCsdI2lQqL7LKT_15icarus_canister6resultNtB3_11IcarusError10validationppEB5_
FN:46,_RINvMNtCsdI2lQqL7LKT_15icarus_canister6resultNtB3_11IcarusError14already_existspEB5_
FN:51,_RINvMNtCsdI2lQqL7LKT_15icarus_canister6resultNtB3_11IcarusError7storagepEB5_
FN:41,_RINvMNtCsdI2lQqL7LKT_15icarus_canister6resultNtB3_11IcarusError9not_foundpEB5_
FN:10,_RINvXs6_NtCsdI2lQqL7LKT_15icarus_canister6resultNtB6_11IcarusErrorNtNtCs8Ixg1ZPW7af_6candid5types10CandidType13idl_serializepEB8_
FN:28,_RNvMNtCsdI2lQqL7LKT_15icarus_canister6resultNtB2_11IcarusError12unauthorized
FN:56,_RNvMNtCsdI2lQqL7LKT_15icarus_canister6resultNtB2_11IcarusError4trap
FN:97,_RNvXININtCsdI2lQqL7LKT_15icarus_canister6results3_0pEINtNtCsaNl6UpbT7bw_4core6result6ResultpNtB5_11IcarusErrorEINtB5_7TrapExtpE14unwrap_or_trapB7_
FN:79,_RNvXs1_NtCsdI2lQqL7LKT_15icarus_canister6resultNtB5_11IcarusErrorINtNtCsaNl6UpbT7bw_4core7convert4FromNtNtCsiTraAjBDcu4_5alloc6string6StringE4from
FN:85,_RNvXs2_NtCsdI2lQqL7LKT_15icarus_canister6resultNtB5_11IcarusErrorINtNtCsaNl6UpbT7bw_4core7convert4FromReE4from
FN:62,_RNvXs_NtCsdI2lQqL7LKT_15icarus_canister6resultNtB4_11IcarusErrorNtNtCsaNl6UpbT7bw_4core3fmt7Display3fmt
FNDA:0,_RINvMNtCsdI2lQqL7LKT_15icarus_canister6resultNtB3_11IcarusError10validationppEB5_
FNDA:0,_RINvMNtCsdI2lQqL7LKT_15icarus_canister6resultNtB3_11IcarusError14already_existspEB5_
FNDA:0,_RINvMNtCsdI2lQqL7LKT_15icarus_canister6resultNtB3_11IcarusError7storagepEB5_
FNDA:0,_RINvMNtCsdI2lQqL7LKT_15icarus_canister6resultNtB3_11IcarusError9not_foundpEB5_
FNDA:0,_RINvXs6_NtCsdI2lQqL7LKT_15icarus_canister6resultNtB6_11IcarusErrorNtNtCs8Ixg1ZPW7af_6candid5types10CandidType13idl_serializepEB8_
FNDA:0,_RNvMNtCsdI2lQqL7LKT_15icarus_canister6resultNtB2_11IcarusError12unauthorized
FNDA:0,_RNvMNtCsdI2lQqL7LKT_15icarus_canister6resultNtB2_11IcarusError4trap
FNDA:0,_RNvXININtCsdI2lQqL7LKT_15icarus_canister6results3_0pEINtNtCsaNl6UpbT7bw_4core6result6ResultpNtB5_11IcarusErrorEINtB5_7TrapExtpE14unwrap_or_trapB7_
FNDA:0,_RNvXs1_NtCsdI2lQqL7LKT_15icarus_canister6resultNtB5_11IcarusErrorINtNtCsaNl6UpbT7bw_4core7convert4FromNtNtCsiTraAjBDcu4_5alloc6string6StringE4from
FNDA:0,_RNvXs2_NtCsdI2lQqL7LKT_15icarus_canister6resultNtB5_11IcarusErrorINtNtCsaNl6UpbT7bw_4core7convert4FromReE4from
FNDA:0,_RNvXs_NtCsdI2lQqL7LKT_15icarus_canister6resultNtB4_11IcarusErrorNtNtCsaNl6UpbT7bw_4core3fmt7Display3fmt
FNF:11
FNH:0
DA:10,0
DA:28,0
DA:29,0
DA:30,0
DA:33,0
DA:34,0
DA:35,0
DA:36,0
DA:37,0
DA:38,0
DA:41,0
DA:42,0
DA:43,0
DA:46,0
DA:47,0
DA:48,0
DA:51,0
DA:52,0
DA:53,0
DA:56,0
DA:57,0
DA:62,0
DA:63,0
DA:64,0
DA:65,0
DA:66,0
DA:68,0
DA:69,0
DA:70,0
DA:71,0
DA:73,0
DA:79,0
DA:80,0
DA:81,0
DA:85,0
DA:86,0
DA:87,0
DA:97,0
DA:98,0
DA:99,0
DA:100,0
DA:102,0
BRF:0
BRH:0
LF:42
LH:0
end_of_record
SF:/Users/goshea/projects/icarus/icarus-sdk/crates/icarus-canister/src/stable_ext.rs
FN:83,_RNCNvXNtCsdI2lQqL7LKT_15icarus_canister10stable_extINtNtCsaNl6UpbT7bw_4core4cell7RefCellINtNtCs28SCrKVqmuK_20ic_stable_structures8btreemap8BTreeMapNtNtB4_5tests7TestKeyNtB2n_9TestValueINtNtB1t_14memory_manager13VirtualMemoryINtNtCsiTraAjBDcu4_5alloc2rc2RcIBO_INtNtB3F_3vec3VechEEEEEEINtB4_17StableBTreeMapExtB2l_B2G_E4iter0B6_
FN:91,_RNCNvXNtCsdI2lQqL7LKT_15icarus_canister10stable_extINtNtCsaNl6UpbT7bw_4core4cell7RefCellINtNtCs28SCrKVqmuK_20ic_stable_structures8btreemap8BTreeMapNtNtB4_5tests7TestKeyNtB2n_9TestValueINtNtB1t_14memory_manager13VirtualMemoryINtNtCsiTraAjBDcu4_5alloc2rc2RcIBO_INtNtB3F_3vec3VechEEEEEEINtB4_17StableBTreeMapExtB2l_B2G_E5clear0B6_
FN:113,_RINvXs_NtCsdI2lQqL7LKT_15icarus_canister10stable_extINtNtCsaNl6UpbT7bw_4core4cell7RefCellINtNtCs28SCrKVqmuK_20ic_stable_structures4cell4CellNtNtB5_5tests13TestCellValueINtNtB1u_14memory_manager13VirtualMemoryINtNtCsiTraAjBDcu4_5alloc2rc2RcIBP_INtNtB3p_3vec3VechEEEEEEINtB5_13StableCellExtB2e_E6updateNCNvB2g_s_27test_stable_cell_ext_update0EB7_
FN:113,_RINvXs_NtCsdI2lQqL7LKT_15icarus_canister10stable_extINtNtCsaNl6UpbT7bw_4core4cell7RefCellINtNtCs28SCrKVqmuK_20ic_stable_structures4cell4CellNtNtB5_5tests13TestCellValueINtNtB1u_14memory_manager13VirtualMemoryINtNtCsiTraAjBDcu4_5alloc2rc2RcIBP_INtNtB3p_3vec3VechEEEEEEINtB5_13StableCellExtB2e_E6updateNCNvB2g_s_42test_stable_cell_ext_update_multiple_times0EB7_
FN:113,_RINvXs_NtCsdI2lQqL7LKT_15icarus_canister10stable_extINtNtCsaNl6UpbT7bw_4core4cell7RefCellINtNtCs28SCrKVqmuK_20ic_stable_structures4cell4CellNtNtB5_5tests13TestCellValueINtNtB1u_14memory_manager13VirtualMemoryINtNtCsiTraAjBDcu4_5alloc2rc2RcIBP_INtNtB3p_3vec3VechEEEEEEINtB5_13StableCellExtB2e_E6updateNCNvB2g_s_42test_stable_cell_ext_update_multiple_timess_0EB7_
FN:72,_RNvXNtCsdI2lQqL7LKT_15icarus_canister10stable_extINtNtCsaNl6UpbT7bw_4core4cell7RefCellINtNtCs28SCrKVqmuK_20ic_stable_structures8btreemap8BTreeMapNtNtB2_5tests7TestKeyNtB2l_9TestValueINtNtB1r_14memory_manager13VirtualMemoryINtNtCsiTraAjBDcu4_5alloc2rc2RcIBM_INtNtB3D_3vec3VechEEEEEEINtB2_17StableBTreeMapExtB2j_B2E_E12contains_keyB4_
FN:64,_RNvXNtCsdI2lQqL7LKT_15icarus_canister10stable_extINtNtCsaNl6UpbT7bw_4core4cell7RefCellINtNtCs28SCrKVqmuK_20ic_stable_structures8btreemap8BTreeMapNtNtB2_5tests7TestKeyNtB2l_9TestValueINtNtB1r_14memory_manager13VirtualMemoryINtNtCsiTraAjBDcu4_5alloc2rc2RcIBM_INtNtB3D_3vec3VechEEEEEEINtB2_17StableBTreeMapExtB2j_B2E_E3getB4_
FN:76,_RNvXNtCsdI2lQqL7LKT_15icarus_canister10stable_extINtNtCsaNl6UpbT7bw_4core4cell7RefCellINtNtCs28SCrKVqmuK_20ic_stable_structures8btreemap8BTreeMapNtNtB2_5tests7TestKeyNtB2l_9TestValueINtNtB1r_14memory_manager13VirtualMemoryINtNtCsiTraAjBDcu4_5alloc2rc2RcIBM_INtNtB3D_3vec3VechEEEEEEINtB2_17StableBTreeMapExtB2j_B2E_E3lenB4_
FN:80,_RNvXNtCsdI2lQqL7LKT_15icarus_canister10stable_extINtNtCsaNl6UpbT7bw_4core4cell7RefCellINtNtCs28SCrKVqmuK_20ic_stable_structures8btreemap8BTreeMapNtNtB2_5tests7TestKeyNtB2l_9TestValueINtNtB1r_14memory_manager13VirtualMemoryINtNtCsiTraAjBDcu4_5alloc2rc2RcIBM_INtNtB3D_3vec3VechEEEEEEINtB2_17StableBTreeMapExtB2j_B2E_E4iterB4_
FN:87,_RNvXNtCsdI2lQqL7LKT_15icarus_canister10stable_extINtNtCsaNl6UpbT7bw_4core4cell7RefCellINtNtCs28SCrKVqmuK_20ic_stable_structures8btreemap8BTreeMapNtNtB2_5tests7TestKeyNtB2l_9TestValueINtNtB1r_14memory_manager13VirtualMemoryINtNtCsiTraAjBDcu4_5alloc2rc2RcIBM_INtNtB3D_3vec3VechEEEEEEINtB2_17StableBTreeMapExtB2j_B2E_E5clearB4_
FN:60,_RNvXNtCsdI2lQqL7LKT_15icarus_canister10stable_extINtNtCsaNl6UpbT7bw_4core4cell7RefCellINtNtCs28SCrKVqmuK_20ic_stable_structures8btreemap8BTreeMapNtNtB2_5tests7TestKeyNtB2l_9TestValueINtNtB1r_14memory_manager13VirtualMemoryINtNtCsiTraAjBDcu4_5alloc2rc2RcIBM_INtNtB3D_3vec3VechEEEEEEINtB2_17StableBTreeMapExtB2j_B2E_E6insertB4_
FN:68,_RNvXNtCsdI2lQqL7LKT_15icarus_canister10stable_extINtNtCsaNl6UpbT7bw_4core4cell7RefCellINtNtCs28SCrKVqmuK_20ic_stable_structures8btreemap8BTreeMapNtNtB2_5tests7TestKeyNtB2l_9TestValueINtNtB1r_14memory_manager13VirtualMemoryINtNtCsiTraAjBDcu4_5alloc2rc2RcIBM_INtNtB3D_3vec3VechEEEEEEINtB2_17StableBTreeMapExtB2j_B2E_E6removeB4_
FN:105,_RNvXs_NtCsdI2lQqL7LKT_15icarus_canister10stable_extINtNtCsaNl6UpbT7bw_4core4cell7RefCellINtNtCs28SCrKVqmuK_20ic_stable_structures4cell4CellNtNtB4_5tests13TestCellValueINtNtB1t_14memory_manager13VirtualMemoryINtNtCsiTraAjBDcu4_5alloc2rc2RcIBO_INtNtB3o_3vec3VechEEEEEEINtB4_13StableCellExtB2d_E3getB6_
FN:109,_RNvXs_NtCsdI2lQqL7LKT_15icarus_canister10stable_extINtNtCsaNl6UpbT7bw_4core4cell7RefCellINtNtCs28SCrKVqmuK_20ic_stable_structures4cell4CellNtNtB4_5tests13TestCellValueINtNtB1t_14memory_manager13VirtualMemoryINtNtCsiTraAjBDcu4_5alloc2rc2RcIBO_INtNtB3o_3vec3VechEEEEEEINtB4_13StableCellExtB2d_E3setB6_
FN:28,_RNvYINtNtCsaNl6UpbT7bw_4core4cell7RefCellINtNtCs28SCrKVqmuK_20ic_stable_structures8btreemap8BTreeMapNtNtNtCsdI2lQqL7LKT_15icarus_canister10stable_ext5tests7TestKeyNtB1C_9TestValueINtNtBI_14memory_manager13VirtualMemoryINtNtCsiTraAjBDcu4_5alloc2rc2RcIB3_INtNtB3z_3vec3VechEEEEEEINtB1E_17StableBTreeMapExtB1A_B2B_E8is_emptyB1G_
FN:439,_RNCNvNtNtCsdI2lQqL7LKT_15icarus_canister10stable_ext5testss_27test_stable_cell_ext_update0B7_
FN:460,_RNCNvNtNtCsdI2lQqL7LKT_15icarus_canister10stable_ext5testss_42test_stable_cell_ext_update_multiple_times0B7_
FN:465,_RNCNvNtNtCsdI2lQqL7LKT_15icarus_canister10stable_ext5testss_42test_stable_cell_ext_update_multiple_timess_0B7_
FN:170,_RNvXNtNtCsdI2lQqL7LKT_15icarus_canister10stable_ext5testsNtB2_7TestKeyNtNtCs28SCrKVqmuK_20ic_stable_structures8storable8Storable10into_bytes
FN:258,_RNvXs0_NtNtCsdI2lQqL7LKT_15icarus_canister10stable_ext5testsNtB5_13TestCellValueNtNtCs28SCrKVqmuK_20ic_stable_structures8storable8Storable10into_bytes
FN:184,_RNvXs_NtNtCsdI2lQqL7LKT_15icarus_canister10stable_ext5testsNtB4_9TestValueNtNtCs28SCrKVqmuK_20ic_stable_structures8storable8Storable8to_bytes
FN:432,_RNvNtNtCsdI2lQqL7LKT_15icarus_canister10stable_ext5testss_27test_stable_cell_ext_update
FN:352,_RNvNtNtCsdI2lQqL7LKT_15icarus_canister10stable_ext5testss_30test_stable_btree_map_ext_iter
FN:381,_RNvNtNtCsdI2lQqL7LKT_15icarus_canister10stable_ext5testss_31test_stable_btree_map_ext_clear
FN:309,_RNvNtNtCsdI2lQqL7LKT_15icarus_canister10stable_ext5testss_32test_stable_btree_map_ext_remove
FN:410,_RNvNtNtCsdI2lQqL7LKT_15icarus_canister10stable_ext5testss_32test_stable_cell_ext_get_and_set
FN:501,_RNvNtNtCsdI2lQqL7LKT_15icarus_canister10stable_ext5testss_33test_extension_trait_independence
FN:556,_RNvNtNtCsdI2lQqL7LKT_15icarus_canister10stable_ext5testss_34test_extension_trait_large_dataset
FN:292,_RNvNtNtCsdI2lQqL7LKT_15icarus_canister10stable_ext5testss_38test_stable_btree_map_ext_contains_key
FN:534,_RNvNtNtCsdI2lQqL7LKT_15icarus_canister10stable_ext5testss_39test_extension_trait_overwrite_behavior
FN:273,_RNvNtNtCsdI2lQqL7LKT_15icarus_canister10stable_ext5testss_40test_stable_btree_map_ext_insert_and_get
FN:330,_RNvNtNtCsdI2lQqL7LKT_15icarus_canister10stable_ext5testss_42test_stable_btree_map_ext_len_and_is_empty
FN:479,_RNvNtNtCsdI2lQqL7LKT_15icarus_canister10stable_ext5testss_42test_stable_cell_ext_set_returns_old_value
FN:453,_RNvNtNtCsdI2lQqL7LKT_15icarus_canister10stable_ext5testss_42test_stable_cell_ext_update_multiple_times
FN:166,_RNvXNtNtCsdI2lQqL7LKT_15icarus_canister10stable_ext5testsNtB2_7TestKeyNtNtCs28SCrKVqmuK_20ic_stable_structures8storable8Storable10from_bytes
FN:162,_RNvXNtNtCsdI2lQqL7LKT_15icarus_canister10stable_ext5testsNtB2_7TestKeyNtNtCs28SCrKVqmuK_20ic_stable_structures8storable8Storable8to_bytes
FN:238,_RNvXs0_NtNtCsdI2lQqL7LKT_15icarus_canister10stable_ext5testsNtB5_13TestCellValueNtNtCs28SCrKVqmuK_20ic_stable_structures8storable8Storable10from_bytes
FN:228,_RNvXs0_NtNtCsdI2lQqL7LKT_15icarus_canister10stable_ext5testsNtB5_13TestCellValueNtNtCs28SCrKVqmuK_20ic_stable_structures8storable8Storable8to_bytes
FN:194,_RNvXs_NtNtCsdI2lQqL7LKT_15icarus_canister10stable_ext5testsNtB4_9TestValueNtNtCs28SCrKVqmuK_20ic_stable_structures8storable8Storable10from_bytes
FN:208,_RNvXs_NtNtCsdI2lQqL7LKT_15icarus_canister10stable_ext5testsNtB4_9TestValueNtNtCs28SCrKVqmuK_20ic_stable_structures8storable8Storable10into_bytes
FNDA:103,_RNCNvXNtCsdI2lQqL7LKT_15icarus_canister10stable_extINtNtCsaNl6UpbT7bw_4core4cell7RefCellINtNtCs28SCrKVqmuK_20ic_stable_structures8btreemap8BTreeMapNtNtB4_5tests7TestKeyNtB2n_9TestValueINtNtB1t_14memory_manager13VirtualMemoryINtNtCsiTraAjBDcu4_5alloc2rc2RcIBO_INtNtB3F_3vec3VechEEEEEEINtB4_17StableBTreeMapExtB2l_B2G_E4iter0B6_
FNDA:5,_RNCNvXNtCsdI2lQqL7LKT_15icarus_canister10stable_extINtNtCsaNl6UpbT7bw_4core4cell7RefCellINtNtCs28SCrKVqmuK_20ic_stable_structures8btreemap8BTreeMapNtNtB4_5tests7TestKeyNtB2n_9TestValueINtNtB1t_14memory_manager13VirtualMemoryINtNtCsiTraAjBDcu4_5alloc2rc2RcIBO_INtNtB3F_3vec3VechEEEEEEINtB4_17StableBTreeMapExtB2l_B2G_E5clear0B6_
FNDA:1,_RINvXs_NtCsdI2lQqL7LKT_15icarus_canister10stable_extINtNtCsaNl6UpbT7bw_4core4cell7RefCellINtNtCs28SCrKVqmuK_20ic_stable_structures4cell4CellNtNtB5_5tests13TestCellValueINtNtB1u_14memory_manager13VirtualMemoryINtNtCsiTraAjBDcu4_5alloc2rc2RcIBP_INtNtB3p_3vec3VechEEEEEEINtB5_13StableCellExtB2e_E6updateNCNvB2g_s_27test_stable_cell_ext_update0EB7_
FNDA:1,_RINvXs_NtCsdI2lQqL7LKT_15icarus_canister10stable_extINtNtCsaNl6UpbT7bw_4core4cell7RefCellINtNtCs28SCrKVqmuK_20ic_stable_structures4cell4CellNtNtB5_5tests13TestCellValueINtNtB1u_14memory_manager13VirtualMemoryINtNtCsiTraAjBDcu4_5alloc2rc2RcIBP_INtNtB3p_3vec3VechEEEEEEINtB5_13StableCellExtB2e_E6updateNCNvB2g_s_42test_stable_cell_ext_update_multiple_times0EB7_
FNDA:1,_RINvXs_NtCsdI2lQqL7LKT_15icarus_canister10stable_extINtNtCsaNl6UpbT7bw_4core4cell7RefCellINtNtCs28SCrKVqmuK_20ic_stable_structures4cell4CellNtNtB5_5tests13TestCellValueINtNtB1u_14memory_manager13VirtualMemoryINtNtCsiTraAjBDcu4_5alloc2rc2RcIBP_INtNtB3p_3vec3VechEEEEEEINtB5_13StableCellExtB2e_E6updateNCNvB2g_s_42test_stable_cell_ext_update_multiple_timess_0EB7_
FNDA:8,_RNvXNtCsdI2lQqL7LKT_15icarus_canister10stable_extINtNtCsaNl6UpbT7bw_4core4cell7RefCellINtNtCs28SCrKVqmuK_20ic_stable_structures8btreemap8BTreeMapNtNtB2_5tests7TestKeyNtB2l_9TestValueINtNtB1r_14memory_manager13VirtualMemoryINtNtCsiTraAjBDcu4_5alloc2rc2RcIBM_INtNtB3D_3vec3VechEEEEEEINtB2_17StableBTreeMapExtB2j_B2E_E12contains_keyB4_
FNDA:5,_RNvXNtCsdI2lQqL7LKT_15icarus_canister10stable_extINtNtCsaNl6UpbT7bw_4core4cell7RefCellINtNtCs28SCrKVqmuK_20ic_stable_structures8btreemap8BTreeMapNtNtB2_5tests7TestKeyNtB2l_9TestValueINtNtB1r_14memory_manager13VirtualMemoryINtNtCsiTraAjBDcu4_5alloc2rc2RcIBM_INtNtB3D_3vec3VechEEEEEEINtB2_17StableBTreeMapExtB2j_B2E_E3getB4_
FNDA:14,_RNvXNtCsdI2lQqL7LKT_15icarus_canister10stable_extINtNtCsaNl6UpbT7bw_4core4cell7RefCellINtNtCs28SCrKVqmuK_20ic_stable_structures8btreemap8BTreeMapNtNtB2_5tests7TestKeyNtB2l_9TestValueINtNtB1r_14memory_manager13VirtualMemoryINtNtCsiTraAjBDcu4_5alloc2rc2RcIBM_INtNtB3D_3vec3VechEEEEEEINtB2_17StableBTreeMapExtB2j_B2E_E3lenB4_
FNDA:2,_RNvXNtCsdI2lQqL7LKT_15icarus_canister10stable_extINtNtCsaNl6UpbT7bw_4core4cell7RefCellINtNtCs28SCrKVqmuK_20ic_stable_structures8btreemap8BTreeMapNtNtB2_5tests7TestKeyNtB2l_9TestValueINtNtB1r_14memory_manager13VirtualMemoryINtNtCsiTraAjBDcu4_5alloc2rc2RcIBM_INtNtB3D_3vec3VechEEEEEEINtB2_17StableBTreeMapExtB2j_B2E_E4iterB4_
FNDA:1,_RNvXNtCsdI2lQqL7LKT_15icarus_canister10stable_extINtNtCsaNl6UpbT7bw_4core4cell7RefCellINtNtCs28SCrKVqmuK_20ic_stable_structures8btreemap8BTreeMapNtNtB2_5tests7TestKeyNtB2l_9TestValueINtNtB1r_14memory_manager13VirtualMemoryINtNtCsiTraAjBDcu4_5alloc2rc2RcIBM_INtNtB3D_3vec3VechEEEEEEINtB2_17StableBTreeMapExtB2j_B2E_E5clearB4_
FNDA:118,_RNvXNtCsdI2lQqL7LKT_15icarus_canister10stable_extINtNtCsaNl6UpbT7bw_4core4cell7RefCellINtNtCs28SCrKVqmuK_20ic_stable_structures8btreemap8BTreeMapNtNtB2_5tests7TestKeyNtB2l_9TestValueINtNtB1r_14memory_manager13VirtualMemoryINtNtCsiTraAjBDcu4_5alloc2rc2RcIBM_INtNtB3D_3vec3VechEEEEEEINtB2_17StableBTreeMapExtB2j_B2E_E6insertB4_
FNDA:1,_RNvXNtCsdI2lQqL7LKT_15icarus_canister10stable_extINtNtCsaNl6UpbT7bw_4core4cell7RefCellINtNtCs28SCrKVqmuK_20ic_stable_structures8btreemap8BTreeMapNtNtB2_5tests7TestKeyNtB2l_9TestValueINtNtB1r_14memory_manager13VirtualMemoryINtNtCsiTraAjBDcu4_5alloc2rc2RcIBM_INtNtB3D_3vec3VechEEEEEEINtB2_17StableBTreeMapExtB2j_B2E_E6removeB4_
FNDA:10,_RNvXs_NtCsdI2lQqL7LKT_15icarus_canister10stable_extINtNtCsaNl6UpbT7bw_4core4cell7RefCellINtNtCs28SCrKVqmuK_20ic_stable_structures4cell4CellNtNtB4_5tests13TestCellValueINtNtB1t_14memory_manager13VirtualMemoryINtNtCsiTraAjBDcu4_5alloc2rc2RcIBO_INtNtB3o_3vec3VechEEEEEEINtB4_13StableCellExtB2d_E3getB6_
FNDA:7,_RNvXs_NtCsdI2lQqL7LKT_15icarus_canister10stable_extINtNtCsaNl6UpbT7bw_4core4cell7RefCellINtNtCs28SCrKVqmuK_20ic_stable_structures4cell4CellNtNtB4_5tests13TestCellValueINtNtB1t_14memory_manager13VirtualMemoryINtNtCsiTraAjBDcu4_5alloc2rc2RcIBO_INtNtB3o_3vec3VechEEEEEEINtB4_13StableCellExtB2d_E3setB6_
FNDA:4,_RNvYINtNtCsaNl6UpbT7bw_4core4cell7RefCellINtNtCs28SCrKVqmuK_20ic_stable_structures8btreemap8BTreeMapNtNtNtCsdI2lQqL7LKT_15icarus_canister10stable_ext5tests7TestKeyNtB1C_9TestValueINtNtBI_14memory_manager13VirtualMemoryINtNtCsiTraAjBDcu4_5alloc2rc2RcIB3_INtNtB3z_3vec3VechEEEEEEINtB1E_17StableBTreeMapExtB1A_B2B_E8is_emptyB1G_
FNDA:1,_RNCNvNtNtCsdI2lQqL7LKT_15icarus_canister10stable_ext5testss_27test_stable_cell_ext_update0B7_
FNDA:1,_RNCNvNtNtCsdI2lQqL7LKT_15icarus_canister10stable_ext5testss_42test_stable_cell_ext_update_multiple_times0B7_
FNDA:1,_RNCNvNtNtCsdI2lQqL7LKT_15icarus_canister10stable_ext5testss_42test_stable_cell_ext_update_multiple_timess_0B7_
FNDA:0,_RNvXNtNtCsdI2lQqL7LKT_15icarus_canister10stable_ext5testsNtB2_7TestKeyNtNtCs28SCrKVqmuK_20ic_stable_structures8storable8Storable10into_bytes
FNDA:0,_RNvXs0_NtNtCsdI2lQqL7LKT_15icarus_canister10stable_ext5testsNtB5_13TestCellValueNtNtCs28SCrKVqmuK_20ic_stable_structures8storable8Storable10into_bytes
FNDA:0,_RNvXs_NtNtCsdI2lQqL7LKT_15icarus_canister10stable_ext5testsNtB4_9TestValueNtNtCs28SCrKVqmuK_20ic_stable_structures8storable8Storable8to_bytes
FNDA:1,_RNvNtNtCsdI2lQqL7LKT_15icarus_canister10stable_ext5testss_27test_stable_cell_ext_update
FNDA:1,_RNvNtNtCsdI2lQqL7LKT_15icarus_canister10stable_ext5testss_30test_stable_btree_map_ext_iter
FNDA:1,_RNvNtNtCsdI2lQqL7LKT_15icarus_canister10stable_ext5testss_31test_stable_btree_map_ext_clear
FNDA:1,_RNvNtNtCsdI2lQqL7LKT_15icarus_canister10stable_ext5testss_32test_stable_btree_map_ext_remove
FNDA:1,_RNvNtNtCsdI2lQqL7LKT_15icarus_canister10stable_ext5testss_32test_stable_cell_ext_get_and_set
FNDA:1,_RNvNtNtCsdI2lQqL7LKT_15icarus_canister10stable_ext5testss_33test_extension_trait_independence
FNDA:1,_RNvNtNtCsdI2lQqL7LKT_15icarus_canister10stable_ext5testss_34test_extension_trait_large_dataset
FNDA:1,_RNvNtNtCsdI2lQqL7LKT_15icarus_canister10stable_ext5testss_38test_stable_btree_map_ext_contains_key
FNDA:1,_RNvNtNtCsdI2lQqL7LKT_15icarus_canister10stable_ext5testss_39test_extension_trait_overwrite_behavior
FNDA:1,_RNvNtNtCsdI2lQqL7LKT_15icarus_canister10stable_ext5testss_40test_stable_btree_map_ext_insert_and_get
FNDA:1,_RNvNtNtCsdI2lQqL7LKT_15icarus_canister10stable_ext5testss_42test_stable_btree_map_ext_len_and_is_empty
FNDA:1,_RNvNtNtCsdI2lQqL7LKT_15icarus_canister10stable_ext5testss_42test_stable_cell_ext_set_returns_old_value
FNDA:1,_RNvNtNtCsdI2lQqL7LKT_15icarus_canister10stable_ext5testss_42test_stable_cell_ext_update_multiple_times
FNDA:1782,_RNvXNtNtCsdI2lQqL7LKT_15icarus_canister10stable_ext5testsNtB2_7TestKeyNtNtCs28SCrKVqmuK_20ic_stable_structures8storable8Storable10from_bytes
FNDA:1121,_RNvXNtNtCsdI2lQqL7LKT_15icarus_canister10stable_ext5testsNtB2_7TestKeyNtNtCs28SCrKVqmuK_20ic_stable_structures8storable8Storable8to_bytes
FNDA:0,_RNvXs0_NtNtCsdI2lQqL7LKT_15icarus_canister10stable_ext5testsNtB5_13TestCellValueNtNtCs28SCrKVqmuK_20ic_stable_structures8storable8Storable10from_bytes
FNDA:13,_RNvXs0_NtNtCsdI2lQqL7LKT_15icarus_canister10stable_ext5testsNtB5_13TestCellValueNtNtCs28SCrKVqmuK_20ic_stable_structures8storable8Storable8to_bytes
FNDA:115,_RNvXs_NtNtCsdI2lQqL7LKT_15icarus_canister10stable_ext5testsNtB4_9TestValueNtNtCs28SCrKVqmuK_20ic_stable_structures8storable8Storable10from_bytes
FNDA:118,_RNvXs_NtNtCsdI2lQqL7LKT_15icarus_canister10stable_ext5testsNtB4_9TestValueNtNtCs28SCrKVqmuK_20ic_stable_structures8storable8Storable10into_bytes
FNF:38
FNH:34
DA:28,4
DA:29,4
DA:30,4
DA:60,118
DA:61,118
DA:62,118
DA:64,5
DA:65,5
DA:66,5
DA:68,1
DA:69,1
DA:70,1
DA:72,8
DA:73,8
DA:74,8
DA:76,14
DA:77,14
DA:78,14
DA:80,2
DA:81,2
DA:82,2
DA:83,103
DA:84,2
DA:85,2
DA:87,1
DA:88,1
DA:89,1
DA:90,1
DA:91,5
DA:92,1
DA:93,6
DA:94,5
DA:95,5
DA:96,1
DA:105,10
DA:106,10
DA:107,10
DA:109,7
DA:110,7
DA:111,7
DA:113,3
DA:114,3
DA:115,3
DA:117,3
DA:118,3
DA:119,3
DA:120,3
DA:121,3
DA:162,1121
DA:163,1121
DA:164,1121
DA:166,1782
DA:167,1782
DA:168,1782
DA:170,0
DA:171,0
DA:172,0
DA:184,0
DA:185,0
DA:186,0
DA:187,0
DA:188,0
DA:189,0
DA:190,0
DA:191,0
DA:192,0
DA:194,115
DA:195,115
DA:196,115
DA:197,115
DA:198,115
DA:199,115
DA:200,115
DA:201,115
DA:202,115
DA:203,115
DA:204,115
DA:205,115
DA:206,115
DA:208,118
DA:209,118
DA:210,118
DA:211,118
DA:212,118
DA:213,118
DA:214,118
DA:215,118
DA:216,118
DA:228,13
DA:229,13
DA:230,13
DA:231,13
DA:232,13
DA:233,13
DA:234,13
DA:235,13
DA:236,13
DA:238,0
DA:239,0
DA:240,0
DA:241,0
DA:242,0
DA:243,0
DA:244,0
DA:245,0
DA:246,0
DA:247,0
DA:248,0
DA:249,0
DA:250,0
DA:251,0
DA:252,0
DA:253,0
DA:254,0
DA:255,0
DA:256,0
DA:258,0
DA:259,0
DA:260,0
DA:261,0
DA:262,0
DA:263,0
DA:264,0
DA:265,0
DA:266,0
DA:273,1
DA:274,1
DA:275,1
DA:276,1
DA:277,1
DA:278,1
DA:279,1
DA:282,1
DA:283,1
DA:286,1
DA:287,1
DA:288,1
DA:289,1
DA:292,1
DA:293,1
DA:294,1
DA:295,1
DA:296,1
DA:297,1
DA:298,1
DA:301,1
DA:304,1
DA:305,1
DA:306,1
DA:309,1
DA:310,1
DA:311,1
DA:312,1
DA:313,1
DA:314,1
DA:315,1
DA:318,1
DA:319,1
DA:322,1
DA:323,1
DA:324,1
DA:325,1
DA:326,1
DA:327,1
DA:330,1
DA:331,1
DA:334,1
DA:335,1
DA:338,4
DA:339,3
DA:340,3
DA:341,3
DA:342,3
DA:343,3
DA:344,3
DA:345,3
DA:347,1
DA:348,1
DA:349,1
DA:352,1
DA:353,1
DA:356,4
DA:357,3
DA:358,3
DA:359,3
DA:360,3
DA:361,3
DA:362,3
DA:363,3
DA:366,1
DA:367,1
DA:370,1
DA:371,4
DA:372,3
DA:373,3
DA:374,3
DA:376,1
DA:377,1
DA:378,1
DA:381,1
DA:382,1
DA:385,6
DA:386,5
DA:387,5
DA:388,5
DA:389,5
DA:390,5
DA:391,5
DA:392,5
DA:394,1
DA:397,1
DA:398,1
DA:399,1
DA:402,6
DA:403,5
DA:404,5
DA:406,1
DA:410,1
DA:411,1
DA:414,1
DA:415,1
DA:418,1
DA:419,1
DA:420,1
DA:421,1
DA:423,1
DA:424,1
DA:427,1
DA:428,1
DA:429,1
DA:432,1
DA:433,1
DA:434,1
DA:435,1
DA:436,1
DA:439,1
DA:440,1
DA:441,1
DA:442,1
DA:444,1
DA:445,1
DA:448,1
DA:449,1
DA:450,1
DA:453,1
DA:454,1
DA:455,1
DA:456,1
DA:457,1
DA:460,1
DA:461,1
DA:462,1
DA:465,1
DA:466,1
DA:467,1
DA:468,1
DA:470,1
DA:471,1
DA:474,1
DA:475,1
DA:476,1
DA:479,1
DA:480,1
DA:481,1
DA:482,1
DA:483,1
DA:484,1
DA:486,1
DA:487,1
DA:488,1
DA:489,1
DA:492,1
DA:493,1
DA:496,1
DA:497,1
DA:498,1
DA:501,1
DA:503,1
DA:504,1
DA:505,1
DA:506,1
DA:509,1
DA:510,1
DA:511,1
DA:513,1
DA:514,1
DA:517,1
DA:518,1
DA:519,1
DA:520,1
DA:523,1
DA:524,1
DA:526,1
DA:527,1
DA:529,1
DA:530,1
DA:531,1
DA:534,1
DA:535,1
DA:536,1
DA:538,1
DA:539,1
DA:542,1
DA:543,1
DA:546,1
DA:547,1
DA:548,1
DA:551,1
DA:552,1
DA:553,1
DA:556,1
DA:557,1
DA:558,1
DA:561,100
DA:562,100
DA:563,100
DA:564,100
DA:565,100
DA:566,100
DA:567,100
DA:568,100
DA:570,1
DA:571,1
DA:574,1
DA:575,1
DA:576,1
DA:579,1
DA:580,1
DA:583,1
DA:584,1
DA:585,1
DA:586,1
DA:587,1
BRF:0
BRH:0
LF:338
LH:298
end_of_record
SF:/Users/goshea/projects/icarus/icarus-sdk/crates/icarus-canister/src/state.rs
FN:117,_RINvMs1_NtCsjQImORMhHZ8_15icarus_canister5stateNtB6_19IcarusCanisterState4withNCNvB6_12assert_owner0uEB8_
FN:117,_RINvMs1_NtCsjQImORMhHZ8_15icarus_canister5stateNtB6_19IcarusCanisterState4withNCNvB6_8is_owner0bEB8_
FN:117,_RINvMs1_NtCsjQImORMhHZ8_15icarus_canister5stateNtB6_19IcarusCanisterState4withNCNvB6_9get_owner0NtCsFaXrpAVRFt_12ic_principal9PrincipalEB8_
FN:17,_RINvXs4_NtCsjQImORMhHZ8_15icarus_canister5stateNtB6_12ServerConfigNtNtCs8Ixg1ZPW7af_6candid5types10CandidType13idl_serializeQNtNtB16_3ser15ValueSerializerEB8_
FN:26,_RINvXs7_NtCsjQImORMhHZ8_15icarus_canister5stateNtB6_9ToolStateNtNtCs8Ixg1ZPW7af_6candid5types10CandidType13idl_serializeQNtNtB12_3ser15ValueSerializerEB8_
FN:35,_RINvXsa_NtCsjQImORMhHZ8_15icarus_canister5stateNtB6_13ResourceStateNtNtCs8Ixg1ZPW7af_6candid5types10CandidType13idl_serializeQNtNtB17_3ser15ValueSerializerEB8_
FN:121,_RNCINvMs1_NtCsjQImORMhHZ8_15icarus_canister5stateNtB8_19IcarusCanisterState4withNCNvB8_12assert_owner0uE0Ba_
FN:121,_RNCINvMs1_NtCsjQImORMhHZ8_15icarus_canister5stateNtB8_19IcarusCanisterState4withNCNvB8_8is_owner0bE0Ba_
FN:121,_RNCINvMs1_NtCsjQImORMhHZ8_15icarus_canister5stateNtB8_19IcarusCanisterState4withNCNvB8_9get_owner0NtCsFaXrpAVRFt_12ic_principal9PrincipalE0Ba_
FN:114,_RNCNvMs1_NtCsjQImORMhHZ8_15icarus_canister5stateNtB7_19IcarusCanisterState4init0B9_
FN:152,_RNCNvNtCsjQImORMhHZ8_15icarus_canister5state12assert_owner0B5_
FN:166,_RNCNvNtCsjQImORMhHZ8_15icarus_canister5state8is_owner0B5_
FN:171,_RNCNvNtCsjQImORMhHZ8_15icarus_canister5state9get_owner0B5_
FN:107,_RNvMs1_NtCsjQImORMhHZ8_15icarus_canister5stateNtB5_19IcarusCanisterState4init
FN:140,_RNvMs1_NtCsjQImORMhHZ8_15icarus_canister5stateNtB5_19IcarusCanisterState9get_owner
FN:150,_RNvNtCsjQImORMhHZ8_15icarus_canister5state12assert_owner
FN:165,_RNvNtCsjQImORMhHZ8_15icarus_canister5state8is_owner
FN:170,_RNvNtCsjQImORMhHZ8_15icarus_canister5state9get_owner
FN:50,_RNvXNtCsjQImORMhHZ8_15icarus_canister5stateNtB2_12ServerConfigNtNtCs28SCrKVqmuK_20ic_stable_structures8storable8Storable10from_bytes
FN:46,_RNvXNtCsjQImORMhHZ8_15icarus_canister5stateNtB2_12ServerConfigNtNtCs28SCrKVqmuK_20ic_stable_structures8storable8Storable10into_bytes
FN:42,_RNvXNtCsjQImORMhHZ8_15icarus_canister5stateNtB2_12ServerConfigNtNtCs28SCrKVqmuK_20ic_stable_structures8storable8Storable8to_bytes
FN:90,_RNvXs0_NtCsjQImORMhHZ8_15icarus_canister5stateNtB5_13ResourceStateNtNtCs28SCrKVqmuK_20ic_stable_structures8storable8Storable10from_bytes
FN:86,_RNvXs0_NtCsjQImORMhHZ8_15icarus_canister5stateNtB5_13ResourceStateNtNtCs28SCrKVqmuK_20ic_stable_structures8storable8Storable10into_bytes
FN:82,_RNvXs0_NtCsjQImORMhHZ8_15icarus_canister5stateNtB5_13ResourceStateNtNtCs28SCrKVqmuK_20ic_stable_structures8storable8Storable8to_bytes
FN:70,_RNvXs_NtCsjQImORMhHZ8_15icarus_canister5stateNtB4_9ToolStateNtNtCs28SCrKVqmuK_20ic_stable_structures8storable8Storable10from_bytes
FN:66,_RNvXs_NtCsjQImORMhHZ8_15icarus_canister5stateNtB4_9ToolStateNtNtCs28SCrKVqmuK_20ic_stable_structures8storable8Storable10into_bytes
FN:62,_RNvXs_NtCsjQImORMhHZ8_15icarus_canister5stateNtB4_9ToolStateNtNtCs28SCrKVqmuK_20ic_stable_structures8storable8Storable8to_bytes
FN:107,_RNvMs1_NtCsdI2lQqL7LKT_15icarus_canister5stateNtB5_19IcarusCanisterState4init
FN:140,_RNvMs1_NtCsdI2lQqL7LKT_15icarus_canister5stateNtB5_19IcarusCanisterState9get_owner
FN:165,_RNvNtCsdI2lQqL7LKT_15icarus_canister5state8is_owner
FN:170,_RNvNtCsdI2lQqL7LKT_15icarus_canister5state9get_owner
FN:50,_RNvXNtCsdI2lQqL7LKT_15icarus_canister5stateNtB2_12ServerConfigNtNtCs28SCrKVqmuK_20ic_stable_structures8storable8Storable10from_bytes
FN:46,_RNvXNtCsdI2lQqL7LKT_15icarus_canister5stateNtB2_12ServerConfigNtNtCs28SCrKVqmuK_20ic_stable_structures8storable8Storable10into_bytes
FN:42,_RNvXNtCsdI2lQqL7LKT_15icarus_canister5stateNtB2_12ServerConfigNtNtCs28SCrKVqmuK_20ic_stable_structures8storable8Storable8to_bytes
FN:90,_RNvXs0_NtCsdI2lQqL7LKT_15icarus_canister5stateNtB5_13ResourceStateNtNtCs28SCrKVqmuK_20ic_stable_structures8storable8Storable10from_bytes
FN:86,_RNvXs0_NtCsdI2lQqL7LKT_15icarus_canister5stateNtB5_13ResourceStateNtNtCs28SCrKVqmuK_20ic_stable_structures8storable8Storable10into_bytes
FN:82,_RNvXs0_NtCsdI2lQqL7LKT_15icarus_canister5stateNtB5_13ResourceStateNtNtCs28SCrKVqmuK_20ic_stable_structures8storable8Storable8to_bytes
FN:70,_RNvXs_NtCsdI2lQqL7LKT_15icarus_canister5stateNtB4_9ToolStateNtNtCs28SCrKVqmuK_20ic_stable_structures8storable8Storable10from_bytes
FN:66,_RNvXs_NtCsdI2lQqL7LKT_15icarus_canister5stateNtB4_9ToolStateNtNtCs28SCrKVqmuK_20ic_stable_structures8storable8Storable10into_bytes
FN:62,_RNvXs_NtCsdI2lQqL7LKT_15icarus_canister5stateNtB4_9ToolStateNtNtCs28SCrKVqmuK_20ic_stable_structures8storable8Storable8to_bytes
FN:117,_RINvMs1_NtCsdI2lQqL7LKT_15icarus_canister5stateNtB6_19IcarusCanisterState4withNCNvB6_8is_owner0bEB8_
FN:117,_RINvMs1_NtCsdI2lQqL7LKT_15icarus_canister5stateNtB6_19IcarusCanisterState4withNCNvB6_9get_owner0NtCsFaXrpAVRFt_12ic_principal9PrincipalEB8_
FN:117,_RINvMs1_NtCsdI2lQqL7LKT_15icarus_canister5stateNtB6_19IcarusCanisterState4withNCNvNtB6_5testss_25test_state_config_updatess_0uEB8_
FN:117,_RINvMs1_NtCsdI2lQqL7LKT_15icarus_canister5stateNtB6_19IcarusCanisterState4withNCNvNtB6_5testss_27test_state_reinitializations_0uEB8_
FN:117,_RINvMs1_NtCsdI2lQqL7LKT_15icarus_canister5stateNtB6_19IcarusCanisterState4withNCNvNtB6_5testss_27test_state_tools_managements_0uEB8_
FN:117,_RINvMs1_NtCsdI2lQqL7LKT_15icarus_canister5stateNtB6_19IcarusCanisterState4withNCNvNtB6_5testss_31test_icarus_canister_state_init0uEB8_
FN:117,_RINvMs1_NtCsdI2lQqL7LKT_15icarus_canister5stateNtB6_19IcarusCanisterState4withNCNvNtB6_5testss_31test_icarus_canister_state_with0NtNtCsiTraAjBDcu4_5alloc6string6StringEB8_
FN:117,_RINvMs1_NtCsdI2lQqL7LKT_15icarus_canister5stateNtB6_19IcarusCanisterState4withNCNvNtB6_5testss_31test_state_resources_managements_0uEB8_
FN:117,_RINvMs1_NtCsdI2lQqL7LKT_15icarus_canister5stateNtB6_19IcarusCanisterState4withNCNvNtB6_5testss_32test_state_not_initialized_panics_0uEB8_
FN:117,_RINvMs1_NtCsdI2lQqL7LKT_15icarus_canister5stateNtB6_19IcarusCanisterState4withNCNvNtB6_5testss_36test_icarus_canister_state_get_owner0uEB8_
FN:117,_RINvMs1_NtCsdI2lQqL7LKT_15icarus_canister5stateNtB6_19IcarusCanisterState4withNCNvNtB6_5testss_39test_state_multiple_tools_and_resourcess_0uEB8_
FN:117,_RINvMs1_NtCsdI2lQqL7LKT_15icarus_canister5stateNtB6_19IcarusCanisterState4withNCNvNtNtB8_9lifecycle5testss_21test_pre_upgrade_hook0uEB8_
FN:117,_RINvMs1_NtCsdI2lQqL7LKT_15icarus_canister5stateNtB6_19IcarusCanisterState4withNCNvNtNtB8_9lifecycle5testss_21test_pre_upgrade_hooks_0uEB8_
FN:117,_RINvMs1_NtCsdI2lQqL7LKT_15icarus_canister5stateNtB6_19IcarusCanisterState4withNCNvNtNtB8_9lifecycle5testss_22test_post_upgrade_hook0uEB8_
FN:117,_RINvMs1_NtCsdI2lQqL7LKT_15icarus_canister5stateNtB6_19IcarusCanisterState4withNCNvNtNtB8_9lifecycle5testss_26test_init_sets_canister_id0uEB8_
FN:117,_RINvMs1_NtCsdI2lQqL7LKT_15icarus_canister5stateNtB6_19IcarusCanisterState4withNCNvNtNtB8_9lifecycle5testss_26test_lifecycle_hooks_order0uEB8_
FN:117,_RINvMs1_NtCsdI2lQqL7LKT_15icarus_canister5stateNtB6_19IcarusCanisterState4withNCNvNtNtB8_9lifecycle5testss_26test_lifecycle_hooks_orders0_0uEB8_
FN:117,_RINvMs1_NtCsdI2lQqL7LKT_15icarus_canister5stateNtB6_19IcarusCanisterState4withNCNvNtNtB8_9lifecycle5testss_26test_lifecycle_hooks_orders_0uEB8_
FN:117,_RINvMs1_NtCsdI2lQqL7LKT_15icarus_canister5stateNtB6_19IcarusCanisterState4withNCNvNtNtB8_9lifecycle5testss_31test_init_creates_server_config0uEB8_
FN:117,_RINvMs1_NtCsdI2lQqL7LKT_15icarus_canister5stateNtB6_19IcarusCanisterState4withNCNvNtNtB8_9lifecycle5testss_31test_init_with_different_owners0uEB8_
FN:117,_RINvMs1_NtCsdI2lQqL7LKT_15icarus_canister5stateNtB6_19IcarusCanisterState4withNCNvNtNtB8_9lifecycle5testss_31test_init_with_different_ownerss_0uEB8_
FN:117,_RINvMs1_NtCsdI2lQqL7LKT_15icarus_canister5stateNtB6_19IcarusCanisterState4withNCNvNtNtB8_9lifecycle5testss_34test_init_with_anonymous_principal0uEB8_
FN:117,_RINvMs1_NtCsdI2lQqL7LKT_15icarus_canister5stateNtB6_19IcarusCanisterState4withNCNvNtNtB8_9lifecycle5testss_34test_memory_persistence_simulation0uEB8_
FN:117,_RINvMs1_NtCsdI2lQqL7LKT_15icarus_canister5stateNtB6_19IcarusCanisterState4withNCNvNtNtB8_9lifecycle5testss_34test_multiple_lifecycle_operations0uEB8_
FN:117,_RINvMs1_NtCsdI2lQqL7LKT_15icarus_canister5stateNtB6_19IcarusCanisterState4withNCNvNtNtB8_9lifecycle5testss_38test_init_uses_current_package_version0uEB8_
FN:117,_RINvMs1_NtCsdI2lQqL7LKT_15icarus_canister5stateNtB6_19IcarusCanisterState4withNCNvNtNtB8_9lifecycle5testss_39test_init_initializes_empty_collections0uEB8_
FN:128,_RINvMs1_NtCsdI2lQqL7LKT_15icarus_canister5stateNtB6_19IcarusCanisterState8with_mutNCNvNtB6_5testss_25test_state_config_updates0uEB8_
FN:128,_RINvMs1_NtCsdI2lQqL7LKT_15icarus_canister5stateNtB6_19IcarusCanisterState8with_mutNCNvNtB6_5testss_27test_state_reinitialization0uEB8_
FN:128,_RINvMs1_NtCsdI2lQqL7LKT_15icarus_canister5stateNtB6_19IcarusCanisterState8with_mutNCNvNtB6_5testss_27test_state_tools_management0uEB8_
FN:128,_RINvMs1_NtCsdI2lQqL7LKT_15icarus_canister5stateNtB6_19IcarusCanisterState8with_mutNCNvNtB6_5testss_31test_state_resources_management0uEB8_
FN:128,_RINvMs1_NtCsdI2lQqL7LKT_15icarus_canister5stateNtB6_19IcarusCanisterState8with_mutNCNvNtB6_5testss_39test_state_multiple_tools_and_resources0uEB8_
FN:128,_RINvMs1_NtCsdI2lQqL7LKT_15icarus_canister5stateNtB6_19IcarusCanisterState8with_mutNCNvNtB6_5testss_44test_state_persistence_across_memory_regions0uEB8_
FN:17,_RINvXs4_NtCsdI2lQqL7LKT_15icarus_canister5stateNtB6_12ServerConfigNtNtCs8Ixg1ZPW7af_6candid5types10CandidType13idl_serializeQNtNtB16_3ser15ValueSerializerEB8_
FN:26,_RINvXs7_NtCsdI2lQqL7LKT_15icarus_canister5stateNtB6_9ToolStateNtNtCs8Ixg1ZPW7af_6candid5types10CandidType13idl_serializeQNtNtB12_3ser15ValueSerializerEB8_
FN:35,_RINvXsa_NtCsdI2lQqL7LKT_15icarus_canister5stateNtB6_13ResourceStateNtNtCs8Ixg1ZPW7af_6candid5types10CandidType13idl_serializeQNtNtB17_3ser15ValueSerializerEB8_
FN:121,_RNCINvMs1_NtCsdI2lQqL7LKT_15icarus_canister5stateNtB8_19IcarusCanisterState4withNCNvB8_8is_owner0bE0Ba_
FN:121,_RNCINvMs1_NtCsdI2lQqL7LKT_15icarus_canister5stateNtB8_19IcarusCanisterState4withNCNvB8_9get_owner0NtCsFaXrpAVRFt_12ic_principal9PrincipalE0Ba_
FN:121,_RNCINvMs1_NtCsdI2lQqL7LKT_15icarus_canister5stateNtB8_19IcarusCanisterState4withNCNvNtB8_5testss_25test_state_config_updatess_0uE0Ba_
FN:121,_RNCINvMs1_NtCsdI2lQqL7LKT_15icarus_canister5stateNtB8_19IcarusCanisterState4withNCNvNtB8_5testss_27test_state_reinitializations_0uE0Ba_
FN:121,_RNCINvMs1_NtCsdI2lQqL7LKT_15icarus_canister5stateNtB8_19IcarusCanisterState4withNCNvNtB8_5testss_27test_state_tools_managements_0uE0Ba_
FN:121,_RNCINvMs1_NtCsdI2lQqL7LKT_15icarus_canister5stateNtB8_19IcarusCanisterState4withNCNvNtB8_5testss_31test_icarus_canister_state_init0uE0Ba_
FN:121,_RNCINvMs1_NtCsdI2lQqL7LKT_15icarus_canister5stateNtB8_19IcarusCanisterState4withNCNvNtB8_5testss_31test_icarus_canister_state_with0NtNtCsiTraAjBDcu4_5alloc6string6StringE0Ba_
FN:121,_RNCINvMs1_NtCsdI2lQqL7LKT_15icarus_canister5stateNtB8_19IcarusCanisterState4withNCNvNtB8_5testss_31test_state_resources_managements_0uE0Ba_
FN:121,_RNCINvMs1_NtCsdI2lQqL7LKT_15icarus_canister5stateNtB8_19IcarusCanisterState4withNCNvNtB8_5testss_32test_state_not_initialized_panics_0uE0Ba_
FN:121,_RNCINvMs1_NtCsdI2lQqL7LKT_15icarus_canister5stateNtB8_19IcarusCanisterState4withNCNvNtB8_5testss_36test_icarus_canister_state_get_owner0uE0Ba_
FN:121,_RNCINvMs1_NtCsdI2lQqL7LKT_15icarus_canister5stateNtB8_19IcarusCanisterState4withNCNvNtB8_5testss_39test_state_multiple_tools_and_resourcess_0uE0Ba_
FN:121,_RNCINvMs1_NtCsdI2lQqL7LKT_15icarus_canister5stateNtB8_19IcarusCanisterState4withNCNvNtNtBa_9lifecycle5testss_21test_pre_upgrade_hook0uE0Ba_
FN:121,_RNCINvMs1_NtCsdI2lQqL7LKT_15icarus_canister5stateNtB8_19IcarusCanisterState4withNCNvNtNtBa_9lifecycle5testss_21test_pre_upgrade_hooks_0uE0Ba_
FN:121,_RNCINvMs1_NtCsdI2lQqL7LKT_15icarus_canister5stateNtB8_19IcarusCanisterState4withNCNvNtNtBa_9lifecycle5testss_22test_post_upgrade_hook0uE0Ba_
FN:121,_RNCINvMs1_NtCsdI2lQqL7LKT_15icarus_canister5stateNtB8_19IcarusCanisterState4withNCNvNtNtBa_9lifecycle5testss_26test_init_sets_canister_id0uE0Ba_
FN:121,_RNCINvMs1_NtCsdI2lQqL7LKT_15icarus_canister5stateNtB8_19IcarusCanisterState4withNCNvNtNtBa_9lifecycle5testss_26test_lifecycle_hooks_order0uE0Ba_
FN:121,_RNCINvMs1_NtCsdI2lQqL7LKT_15icarus_canister5stateNtB8_19IcarusCanisterState4withNCNvNtNtBa_9lifecycle5testss_26test_lifecycle_hooks_orders0_0uE0Ba_
FN:121,_RNCINvMs1_NtCsdI2lQqL7LKT_15icarus_canister5stateNtB8_19IcarusCanisterState4withNCNvNtNtBa_9lifecycle5testss_26test_lifecycle_hooks_orders_0uE0Ba_
FN:121,_RNCINvMs1_NtCsdI2lQqL7LKT_15icarus_canister5stateNtB8_19IcarusCanisterState4withNCNvNtNtBa_9lifecycle5testss_31test_init_creates_server_config0uE0Ba_
FN:121,_RNCINvMs1_NtCsdI2lQqL7LKT_15icarus_canister5stateNtB8_19IcarusCanisterState4withNCNvNtNtBa_9lifecycle5testss_31test_init_with_different_owners0uE0Ba_
FN:121,_RNCINvMs1_NtCsdI2lQqL7LKT_15icarus_canister5stateNtB8_19IcarusCanisterState4withNCNvNtNtBa_9lifecycle5testss_31test_init_with_different_ownerss_0uE0Ba_
FN:121,_RNCINvMs1_NtCsdI2lQqL7LKT_15icarus_canister5stateNtB8_19IcarusCanisterState4withNCNvNtNtBa_9lifecycle5testss_34test_init_with_anonymous_principal0uE0Ba_
FN:121,_RNCINvMs1_NtCsdI2lQqL7LKT_15icarus_canister5stateNtB8_19IcarusCanisterState4withNCNvNtNtBa_9lifecycle5testss_34test_memory_persistence_simulation0uE0Ba_
FN:121,_RNCINvMs1_NtCsdI2lQqL7LKT_15icarus_canister5stateNtB8_19IcarusCanisterState4withNCNvNtNtBa_9lifecycle5testss_34test_multiple_lifecycle_operations0uE0Ba_
FN:121,_RNCINvMs1_NtCsdI2lQqL7LKT_15icarus_canister5stateNtB8_19IcarusCanisterState4withNCNvNtNtBa_9lifecycle5testss_38test_init_uses_current_package_version0uE0Ba_
FN:121,_RNCINvMs1_NtCsdI2lQqL7LKT_15icarus_canister5stateNtB8_19IcarusCanisterState4withNCNvNtNtBa_9lifecycle5testss_39test_init_initializes_empty_collections0uE0Ba_
FN:132,_RNCINvMs1_NtCsdI2lQqL7LKT_15icarus_canister5stateNtB8_19IcarusCanisterState8with_mutNCNvNtB8_5testss_25test_state_config_updates0uE0Ba_
FN:132,_RNCINvMs1_NtCsdI2lQqL7LKT_15icarus_canister5stateNtB8_19IcarusCanisterState8with_mutNCNvNtB8_5testss_27test_state_reinitialization0uE0Ba_
FN:132,_RNCINvMs1_NtCsdI2lQqL7LKT_15icarus_canister5stateNtB8_19IcarusCanisterState8with_mutNCNvNtB8_5testss_27test_state_tools_management0uE0Ba_
FN:132,_RNCINvMs1_NtCsdI2lQqL7LKT_15icarus_canister5stateNtB8_19IcarusCanisterState8with_mutNCNvNtB8_5testss_31test_state_resources_management0uE0Ba_
FN:132,_RNCINvMs1_NtCsdI2lQqL7LKT_15icarus_canister5stateNtB8_19IcarusCanisterState8with_mutNCNvNtB8_5testss_39test_state_multiple_tools_and_resources0uE0Ba_
FN:132,_RNCINvMs1_NtCsdI2lQqL7LKT_15icarus_canister5stateNtB8_19IcarusCanisterState8with_mutNCNvNtB8_5testss_44test_state_persistence_across_memory_regions0uE0Ba_
FN:114,_RNCNvMs1_NtCsdI2lQqL7LKT_15icarus_canister5stateNtB7_19IcarusCanisterState4init0B9_
FN:166,_RNCNvNtCsdI2lQqL7LKT_15icarus_canister5state8is_owner0B5_
FN:171,_RNCNvNtCsdI2lQqL7LKT_15icarus_canister5state9get_owner0B5_
FN:152,_RNCNvNtCsdI2lQqL7LKT_15icarus_canister5state12assert_owner0B5_
FN:194,_RNCNvNtNtCsdI2lQqL7LKT_15icarus_canister5state5tests17clear_test_memory0B7_
FN:150,_RNvNtCsdI2lQqL7LKT_15icarus_canister5state12assert_owner
FN:192,_RNvNtNtCsdI2lQqL7LKT_15icarus_canister5state5tests17clear_test_memory
FN:484,_RNCNvNtNtCsdI2lQqL7LKT_15icarus_canister5state5testss_25test_state_config_updates0B7_
FN:489,_RNCNvNtNtCsdI2lQqL7LKT_15icarus_canister5state5testss_25test_state_config_updatess_0B7_
FN:572,_RNCNvNtNtCsdI2lQqL7LKT_15icarus_canister5state5testss_27test_state_reinitialization0B7_
FN:587,_RNCNvNtNtCsdI2lQqL7LKT_15icarus_canister5state5testss_27test_state_reinitializations_0B7_
FN:347,_RNCNvNtNtCsdI2lQqL7LKT_15icarus_canister5state5testss_27test_state_tools_management0B7_
FN:352,_RNCNvNtNtCsdI2lQqL7LKT_15icarus_canister5state5testss_27test_state_tools_managements_0B7_
FN:534,_RNCNvNtNtCsdI2lQqL7LKT_15icarus_canister5state5testss_29test_large_data_serialization0B7_
FN:535,_RNCNvNtNtCsdI2lQqL7LKT_15icarus_canister5state5testss_29test_large_data_serializations_0B7_
FN:311,_RNCNvNtNtCsdI2lQqL7LKT_15icarus_canister5state5testss_31test_icarus_canister_state_init0B7_
FN:323,_RNCNvNtNtCsdI2lQqL7LKT_15icarus_canister5state5testss_31test_icarus_canister_state_with0B7_
FN:367,_RNCNvNtNtCsdI2lQqL7LKT_15icarus_canister5state5testss_31test_state_resources_management0B7_
FN:372,_RNCNvNtNtCsdI2lQqL7LKT_15icarus_canister5state5testss_31test_state_resources_managements_0B7_
FN:558,_RNCNvNtNtCsdI2lQqL7LKT_15icarus_canister5state5testss_32test_state_not_initialized_panic0B7_
FN:561,_RNCNvNtNtCsdI2lQqL7LKT_15icarus_canister5state5testss_32test_state_not_initialized_panics_0B7_
FN:336,_RNCNvNtNtCsdI2lQqL7LKT_15icarus_canister5state5testss_36test_icarus_canister_state_get_owner0B7_
FN:386,_RNCNvNtNtCsdI2lQqL7LKT_15icarus_canister5state5testss_39test_state_multiple_tools_and_resources0B7_
FN:408,_RNCNvNtNtCsdI2lQqL7LKT_15icarus_canister5state5testss_39test_state_multiple_tools_and_resourcess_0B7_
FN:461,_RNCNvNtNtCsdI2lQqL7LKT_15icarus_canister5state5testss_44test_state_persistence_across_memory_regions0B7_
FN:182,_RNvNtNtCsdI2lQqL7LKT_15icarus_canister5state5tests14test_principal
FN:197,_RNvNtNtCsdI2lQqL7LKT_15icarus_canister5state5tests18create_test_config
FN:206,_RNvNtNtCsdI2lQqL7LKT_15icarus_canister5state5tests22create_test_tool_state
FN:187,_RNvNtNtCsdI2lQqL7LKT_15icarus_canister5state5tests23test_canister_principal
FN:215,_RNvNtNtCsdI2lQqL7LKT_15icarus_canister5state5tests26create_test_resource_state
FN:425,_RNvNtNtCsdI2lQqL7LKT_15icarus_canister5state5testss_22test_is_owner_function
FN:438,_RNvNtNtCsdI2lQqL7LKT_15icarus_canister5state5testss_23test_get_owner_function
FN:251,_RNvNtNtCsdI2lQqL7LKT_15icarus_canister5state5testss_24test_tool_state_storable
FN:476,_RNvNtNtCsdI2lQqL7LKT_15icarus_canister5state5testss_25test_state_config_updates
FN:265,_RNvNtNtCsdI2lQqL7LKT_15icarus_canister5state5testss_26test_tool_state_into_bytes
FN:223,_RNvNtNtCsdI2lQqL7LKT_15icarus_canister5state5testss_27test_server_config_storable
FN:567,_RNvNtNtCsdI2lQqL7LKT_15icarus_canister5state5testss_27test_state_reinitialization
FN:342,_RNvNtNtCsdI2lQqL7LKT_15icarus_canister5state5testss_27test_state_tools_management
FN:279,_RNvNtNtCsdI2lQqL7LKT_15icarus_canister5state5testss_28test_resource_state_storable
FN:520,_RNvNtNtCsdI2lQqL7LKT_15icarus_canister5state5testss_29test_large_data_serialization
FN:237,_RNvNtNtCsdI2lQqL7LKT_15icarus_canister5state5testss_29test_server_config_into_bytes
FN:291,_RNvNtNtCsdI2lQqL7LKT_15icarus_canister5state5testss_30test_resource_state_into_bytes
FN:305,_RNvNtNtCsdI2lQqL7LKT_15icarus_canister5state5testss_31test_icarus_canister_state_init
FN:319,_RNvNtNtCsdI2lQqL7LKT_15icarus_canister5state5testss_31test_icarus_canister_state_with
FN:362,_RNvNtNtCsdI2lQqL7LKT_15icarus_canister5state5testss_31test_state_resources_management
FN:556,_RNvNtNtCsdI2lQqL7LKT_15icarus_canister5state5testss_32test_state_not_initialized_panic
FN:498,_RNvNtNtCsdI2lQqL7LKT_15icarus_canister5state5testss_35test_storable_bounds_are_reasonable
FN:331,_RNvNtNtCsdI2lQqL7LKT_15icarus_canister5state5testss_36test_icarus_canister_state_get_owner
FN:382,_RNvNtNtCsdI2lQqL7LKT_15icarus_canister5state5testss_39test_state_multiple_tools_and_resources
FN:539,_RNvNtNtCsdI2lQqL7LKT_15icarus_canister5state5testss_40test_special_characters_in_serialization
FN:448,_RNvNtNtCsdI2lQqL7LKT_15icarus_canister5state5testss_44test_state_persistence_across_memory_regions
FNDA:0,_RINvMs1_NtCsjQImORMhHZ8_15icarus_canister5stateNtB6_19IcarusCanisterState4withNCNvB6_12assert_owner0uEB8_
FNDA:0,_RINvMs1_NtCsjQImORMhHZ8_15icarus_canister5stateNtB6_19IcarusCanisterState4withNCNvB6_8is_owner0bEB8_
FNDA:0,_RINvMs1_NtCsjQImORMhHZ8_15icarus_canister5stateNtB6_19IcarusCanisterState4withNCNvB6_9get_owner0NtCsFaXrpAVRFt_12ic_principal9PrincipalEB8_
FNDA:0,_RINvXs4_NtCsjQImORMhHZ8_15icarus_canister5stateNtB6_12ServerConfigNtNtCs8Ixg1ZPW7af_6candid5types10CandidType13idl_serializeQNtNtB16_3ser15ValueSerializerEB8_
FNDA:0,_RINvXs7_NtCsjQImORMhHZ8_15icarus_canister5stateNtB6_9ToolStateNtNtCs8Ixg1ZPW7af_6candid5types10CandidType13idl_serializeQNtNtB12_3ser15ValueSerializerEB8_
FNDA:0,_RINvXsa_NtCsjQImORMhHZ8_15icarus_canister5stateNtB6_13ResourceStateNtNtCs8Ixg1ZPW7af_6candid5types10CandidType13idl_serializeQNtNtB17_3ser15ValueSerializerEB8_
FNDA:0,_RNCINvMs1_NtCsjQImORMhHZ8_15icarus_canister5stateNtB8_19IcarusCanisterState4withNCNvB8_12assert_owner0uE0Ba_
FNDA:0,_RNCINvMs1_NtCsjQImORMhHZ8_15icarus_canister5stateNtB8_19IcarusCanisterState4withNCNvB8_8is_owner0bE0Ba_
FNDA:0,_RNCINvMs1_NtCsjQImORMhHZ8_15icarus_canister5stateNtB8_19IcarusCanisterState4withNCNvB8_9get_owner0NtCsFaXrpAVRFt_12ic_principal9PrincipalE0Ba_
FNDA:0,_RNCNvMs1_NtCsjQImORMhHZ8_15icarus_canister5stateNtB7_19IcarusCanisterState4init0B9_
FNDA:0,_RNCNvNtCsjQImORMhHZ8_15icarus_canister5state12assert_owner0B5_
FNDA:0,_RNCNvNtCsjQImORMhHZ8_15icarus_canister5state8is_owner0B5_
FNDA:0,_RNCNvNtCsjQImORMhHZ8_15icarus_canister5state9get_owner0B5_
FNDA:0,_RNvMs1_NtCsjQImORMhHZ8_15icarus_canister5stateNtB5_19IcarusCanisterState4init
FNDA:0,_RNvMs1_NtCsjQImORMhHZ8_15icarus_canister5stateNtB5_19IcarusCanisterState9get_owner
FNDA:0,_RNvNtCsjQImORMhHZ8_15icarus_canister5state12assert_owner
FNDA:0,_RNvNtCsjQImORMhHZ8_15icarus_canister5state8is_owner
FNDA:0,_RNvNtCsjQImORMhHZ8_15icarus_canister5state9get_owner
FNDA:0,_RNvXNtCsjQImORMhHZ8_15icarus_canister5stateNtB2_12ServerConfigNtNtCs28SCrKVqmuK_20ic_stable_structures8storable8Storable10from_bytes
FNDA:0,_RNvXNtCsjQImORMhHZ8_15icarus_canister5stateNtB2_12ServerConfigNtNtCs28SCrKVqmuK_20ic_stable_structures8storable8Storable10into_bytes
FNDA:0,_RNvXNtCsjQImORMhHZ8_15icarus_canister5stateNtB2_12ServerConfigNtNtCs28SCrKVqmuK_20ic_stable_structures8storable8Storable8to_bytes
FNDA:0,_RNvXs0_NtCsjQImORMhHZ8_15icarus_canister5stateNtB5_13ResourceStateNtNtCs28SCrKVqmuK_20ic_stable_structures8storable8Storable10from_bytes
FNDA:0,_RNvXs0_NtCsjQImORMhHZ8_15icarus_canister5stateNtB5_13ResourceStateNtNtCs28SCrKVqmuK_20ic_stable_structures8storable8Storable10into_bytes
FNDA:0,_RNvXs0_NtCsjQImORMhHZ8_15icarus_canister5stateNtB5_13ResourceStateNtNtCs28SCrKVqmuK_20ic_stable_structures8storable8Storable8to_bytes
FNDA:0,_RNvXs_NtCsjQImORMhHZ8_15icarus_canister5stateNtB4_9ToolStateNtNtCs28SCrKVqmuK_20ic_stable_structures8storable8Storable10from_bytes
FNDA:0,_RNvXs_NtCsjQImORMhHZ8_15icarus_canister5stateNtB4_9ToolStateNtNtCs28SCrKVqmuK_20ic_stable_structures8storable8Storable10into_bytes
FNDA:0,_RNvXs_NtCsjQImORMhHZ8_15icarus_canister5stateNtB4_9ToolStateNtNtCs28SCrKVqmuK_20ic_stable_structures8storable8Storable8to_bytes
FNDA:24,_RNvMs1_NtCsdI2lQqL7LKT_15icarus_canister5stateNtB5_19IcarusCanisterState4init
FNDA:6,_RNvMs1_NtCsdI2lQqL7LKT_15icarus_canister5stateNtB5_19IcarusCanisterState9get_owner
FNDA:3,_RNvNtCsdI2lQqL7LKT_15icarus_canister5state8is_owner
FNDA:1,_RNvNtCsdI2lQqL7LKT_15icarus_canister5state9get_owner
FNDA:5,_RNvXNtCsdI2lQqL7LKT_15icarus_canister5stateNtB2_12ServerConfigNtNtCs28SCrKVqmuK_20ic_stable_structures8storable8Storable10from_bytes
FNDA:1,_RNvXNtCsdI2lQqL7LKT_15icarus_canister5stateNtB2_12ServerConfigNtNtCs28SCrKVqmuK_20ic_stable_structures8storable8Storable10into_bytes
FNDA:25,_RNvXNtCsdI2lQqL7LKT_15icarus_canister5stateNtB2_12ServerConfigNtNtCs28SCrKVqmuK_20ic_stable_structures8storable8Storable8to_bytes
FNDA:4,_RNvXs0_NtCsdI2lQqL7LKT_15icarus_canister5stateNtB5_13ResourceStateNtNtCs28SCrKVqmuK_20ic_stable_structures8storable8Storable10from_bytes
FNDA:6,_RNvXs0_NtCsdI2lQqL7LKT_15icarus_canister5stateNtB5_13ResourceStateNtNtCs28SCrKVqmuK_20ic_stable_structures8storable8Storable10into_bytes
FNDA:1,_RNvXs0_NtCsdI2lQqL7LKT_15icarus_canister5stateNtB5_13ResourceStateNtNtCs28SCrKVqmuK_20ic_stable_structures8storable8Storable8to_bytes
FNDA:5,_RNvXs_NtCsdI2lQqL7LKT_15icarus_canister5stateNtB4_9ToolStateNtNtCs28SCrKVqmuK_20ic_stable_structures8storable8Storable10from_bytes
FNDA:9,_RNvXs_NtCsdI2lQqL7LKT_15icarus_canister5stateNtB4_9ToolStateNtNtCs28SCrKVqmuK_20ic_stable_structures8storable8Storable10into_bytes
FNDA:2,_RNvXs_NtCsdI2lQqL7LKT_15icarus_canister5stateNtB4_9ToolStateNtNtCs28SCrKVqmuK_20ic_stable_structures8storable8Storable8to_bytes
FNDA:3,_RINvMs1_NtCsdI2lQqL7LKT_15icarus_canister5stateNtB6_19IcarusCanisterState4withNCNvB6_8is_owner0bEB8_
FNDA:1,_RINvMs1_NtCsdI2lQqL7LKT_15icarus_canister5stateNtB6_19IcarusCanisterState4withNCNvB6_9get_owner0NtCsFaXrpAVRFt_12ic_principal9PrincipalEB8_
FNDA:1,_RINvMs1_NtCsdI2lQqL7LKT_15icarus_canister5stateNtB6_19IcarusCanisterState4withNCNvNtB6_5testss_25test_state_config_updatess_0uEB8_
FNDA:1,_RINvMs1_NtCsdI2lQqL7LKT_15icarus_canister5stateNtB6_19IcarusCanisterState4withNCNvNtB6_5testss_27test_state_reinitializations_0uEB8_
FNDA:1,_RINvMs1_NtCsdI2lQqL7LKT_15icarus_canister5stateNtB6_19IcarusCanisterState4withNCNvNtB6_5testss_27test_state_tools_managements_0uEB8_
FNDA:1,_RINvMs1_NtCsdI2lQqL7LKT_15icarus_canister5stateNtB6_19IcarusCanisterState4withNCNvNtB6_5testss_31test_icarus_canister_state_init0uEB8_
FNDA:1,_RINvMs1_NtCsdI2lQqL7LKT_15icarus_canister5stateNtB6_19IcarusCanisterState4withNCNvNtB6_5testss_31test_icarus_canister_state_with0NtNtCsiTraAjBDcu4_5alloc6string6StringEB8_
FNDA:1,_RINvMs1_NtCsdI2lQqL7LKT_15icarus_canister5stateNtB6_19IcarusCanisterState4withNCNvNtB6_5testss_31test_state_resources_managements_0uEB8_
FNDA:1,_RINvMs1_NtCsdI2lQqL7LKT_15icarus_canister5stateNtB6_19IcarusCanisterState4withNCNvNtB6_5testss_32test_state_not_initialized_panics_0uEB8_
FNDA:1,_RINvMs1_NtCsdI2lQqL7LKT_15icarus_canister5stateNtB6_19IcarusCanisterState4withNCNvNtB6_5testss_36test_icarus_canister_state_get_owner0uEB8_
FNDA:1,_RINvMs1_NtCsdI2lQqL7LKT_15icarus_canister5stateNtB6_19IcarusCanisterState4withNCNvNtB6_5testss_39test_state_multiple_tools_and_resourcess_0uEB8_
FNDA:1,_RINvMs1_NtCsdI2lQqL7LKT_15icarus_canister5stateNtB6_19IcarusCanisterState4withNCNvNtNtB8_9lifecycle5testss_21test_pre_upgrade_hook0uEB8_
FNDA:1,_RINvMs1_NtCsdI2lQqL7LKT_15icarus_canister5stateNtB6_19IcarusCanisterState4withNCNvNtNtB8_9lifecycle5testss_21test_pre_upgrade_hooks_0uEB8_
FNDA:1,_RINvMs1_NtCsdI2lQqL7LKT_15icarus_canister5stateNtB6_19IcarusCanisterState4withNCNvNtNtB8_9lifecycle5testss_22test_post_upgrade_hook0uEB8_
FNDA:1,_RINvMs1_NtCsdI2lQqL7LKT_15icarus_canister5stateNtB6_19IcarusCanisterState4withNCNvNtNtB8_9lifecycle5testss_26test_init_sets_canister_id0uEB8_
FNDA:1,_RINvMs1_NtCsdI2lQqL7LKT_15icarus_canister5stateNtB6_19IcarusCanisterState4withNCNvNtNtB8_9lifecycle5testss_26test_lifecycle_hooks_order0uEB8_
FNDA:1,_RINvMs1_NtCsdI2lQqL7LKT_15icarus_canister5stateNtB6_19IcarusCanisterState4withNCNvNtNtB8_9lifecycle5testss_26test_lifecycle_hooks_orders0_0uEB8_
FNDA:1,_RINvMs1_NtCsdI2lQqL7LKT_15icarus_canister5stateNtB6_19IcarusCanisterState4withNCNvNtNtB8_9lifecycle5testss_26test_lifecycle_hooks_orders_0uEB8_
FNDA:1,_RINvMs1_NtCsdI2lQqL7LKT_15icarus_canister5stateNtB6_19IcarusCanisterState4withNCNvNtNtB8_9lifecycle5testss_31test_init_creates_server_config0uEB8_
FNDA:1,_RINvMs1_NtCsdI2lQqL7LKT_15icarus_canister5stateNtB6_19IcarusCanisterState4withNCNvNtNtB8_9lifecycle5testss_31test_init_with_different_owners0uEB8_
FNDA:1,_RINvMs1_NtCsdI2lQqL7LKT_15icarus_canister5stateNtB6_19IcarusCanisterState4withNCNvNtNtB8_9lifecycle5testss_31test_init_with_different_ownerss_0uEB8_
FNDA:1,_RINvMs1_NtCsdI2lQqL7LKT_15icarus_canister5stateNtB6_19IcarusCanisterState4withNCNvNtNtB8_9lifecycle5testss_34test_init_with_anonymous_principal0uEB8_
FNDA:1,_RINvMs1_NtCsdI2lQqL7LKT_15icarus_canister5stateNtB6_19IcarusCanisterState4withNCNvNtNtB8_9lifecycle5testss_34test_memory_persistence_simulation0uEB8_
FNDA:3,_RINvMs1_NtCsdI2lQqL7LKT_15icarus_canister5stateNtB6_19IcarusCanisterState4withNCNvNtNtB8_9lifecycle5testss_34test_multiple_lifecycle_operations0uEB8_
FNDA:1,_RINvMs1_NtCsdI2lQqL7LKT_15icarus_canister5stateNtB6_19IcarusCanisterState4withNCNvNtNtB8_9lifecycle5testss_38test_init_uses_current_package_version0uEB8_
FNDA:1,_RINvMs1_NtCsdI2lQqL7LKT_15icarus_canister5stateNtB6_19IcarusCanisterState4withNCNvNtNtB8_9lifecycle5testss_39test_init_initializes_empty_collections0uEB8_
FNDA:1,_RINvMs1_NtCsdI2lQqL7LKT_15icarus_canister5stateNtB6_19IcarusCanisterState8with_mutNCNvNtB6_5testss_25test_state_config_updates0uEB8_
FNDA:1,_RINvMs1_NtCsdI2lQqL7LKT_15icarus_canister5stateNtB6_19IcarusCanisterState8with_mutNCNvNtB6_5testss_27test_state_reinitialization0uEB8_
FNDA:1,_RINvMs1_NtCsdI2lQqL7LKT_15icarus_canister5stateNtB6_19IcarusCanisterState8with_mutNCNvNtB6_5testss_27test_state_tools_management0uEB8_
FNDA:1,_RINvMs1_NtCsdI2lQqL7LKT_15icarus_canister5stateNtB6_19IcarusCanisterState8with_mutNCNvNtB6_5testss_31test_state_resources_management0uEB8_
FNDA:1,_RINvMs1_NtCsdI2lQqL7LKT_15icarus_canister5stateNtB6_19IcarusCanisterState8with_mutNCNvNtB6_5testss_39test_state_multiple_tools_and_resources0uEB8_
FNDA:1,_RINvMs1_NtCsdI2lQqL7LKT_15icarus_canister5stateNtB6_19IcarusCanisterState8with_mutNCNvNtB6_5testss_44test_state_persistence_across_memory_regions0uEB8_
FNDA:0,_RINvXs4_NtCsdI2lQqL7LKT_15icarus_canister5stateNtB6_12ServerConfigNtNtCs8Ixg1ZPW7af_6candid5types10CandidType13idl_serializeQNtNtB16_3ser15ValueSerializerEB8_
FNDA:0,_RINvXs7_NtCsdI2lQqL7LKT_15icarus_canister5stateNtB6_9ToolStateNtNtCs8Ixg1ZPW7af_6candid5types10CandidType13idl_serializeQNtNtB12_3ser15ValueSerializerEB8_
FNDA:0,_RINvXsa_NtCsdI2lQqL7LKT_15icarus_canister5stateNtB6_13ResourceStateNtNtCs8Ixg1ZPW7af_6candid5types10CandidType13idl_serializeQNtNtB17_3ser15ValueSerializerEB8_
FNDA:3,_RNCINvMs1_NtCsdI2lQqL7LKT_15icarus_canister5stateNtB8_19IcarusCanisterState4withNCNvB8_8is_owner0bE0Ba_
FNDA:1,_RNCINvMs1_NtCsdI2lQqL7LKT_15icarus_canister5stateNtB8_19IcarusCanisterState4withNCNvB8_9get_owner0NtCsFaXrpAVRFt_12ic_principal9PrincipalE0Ba_
FNDA:1,_RNCINvMs1_NtCsdI2lQqL7LKT_15icarus_canister5stateNtB8_19IcarusCanisterState4withNCNvNtB8_5testss_25test_state_config_updatess_0uE0Ba_
FNDA:1,_RNCINvMs1_NtCsdI2lQqL7LKT_15icarus_canister5stateNtB8_19IcarusCanisterState4withNCNvNtB8_5testss_27test_state_reinitializations_0uE0Ba_
FNDA:1,_RNCINvMs1_NtCsdI2lQqL7LKT_15icarus_canister5stateNtB8_19IcarusCanisterState4withNCNvNtB8_5testss_27test_state_tools_managements_0uE0Ba_
FNDA:1,_RNCINvMs1_NtCsdI2lQqL7LKT_15icarus_canister5stateNtB8_19IcarusCanisterState4withNCNvNtB8_5testss_31test_icarus_canister_state_init0uE0Ba_
FNDA:1,_RNCINvMs1_NtCsdI2lQqL7LKT_15icarus_canister5stateNtB8_19IcarusCanisterState4withNCNvNtB8_5testss_31test_icarus_canister_state_with0NtNtCsiTraAjBDcu4_5alloc6string6StringE0Ba_
FNDA:1,_RNCINvMs1_NtCsdI2lQqL7LKT_15icarus_canister5stateNtB8_19IcarusCanisterState4withNCNvNtB8_5testss_31test_state_resources_managements_0uE0Ba_
FNDA:1,_RNCINvMs1_NtCsdI2lQqL7LKT_15icarus_canister5stateNtB8_19IcarusCanisterState4withNCNvNtB8_5testss_32test_state_not_initialized_panics_0uE0Ba_
FNDA:1,_RNCINvMs1_NtCsdI2lQqL7LKT_15icarus_canister5stateNtB8_19IcarusCanisterState4withNCNvNtB8_5testss_36test_icarus_canister_state_get_owner0uE0Ba_
FNDA:1,_RNCINvMs1_NtCsdI2lQqL7LKT_15icarus_canister5stateNtB8_19IcarusCanisterState4withNCNvNtB8_5testss_39test_state_multiple_tools_and_resourcess_0uE0Ba_
FNDA:1,_RNCINvMs1_NtCsdI2lQqL7LKT_15icarus_canister5stateNtB8_19IcarusCanisterState4withNCNvNtNtBa_9lifecycle5testss_21test_pre_upgrade_hook0uE0Ba_
FNDA:1,_RNCINvMs1_NtCsdI2lQqL7LKT_15icarus_canister5stateNtB8_19IcarusCanisterState4withNCNvNtNtBa_9lifecycle5testss_21test_pre_upgrade_hooks_0uE0Ba_
FNDA:1,_RNCINvMs1_NtCsdI2lQqL7LKT_15icarus_canister5stateNtB8_19IcarusCanisterState4withNCNvNtNtBa_9lifecycle5testss_22test_post_upgrade_hook0uE0Ba_
FNDA:1,_RNCINvMs1_NtCsdI2lQqL7LKT_15icarus_canister5stateNtB8_19IcarusCanisterState4withNCNvNtNtBa_9lifecycle5testss_26test_init_sets_canister_id0uE0Ba_
FNDA:1,_RNCINvMs1_NtCsdI2lQqL7LKT_15icarus_canister5stateNtB8_19IcarusCanisterState4withNCNvNtNtBa_9lifecycle5testss_26test_lifecycle_hooks_order0uE0Ba_
FNDA:1,_RNCINvMs1_NtCsdI2lQqL7LKT_15icarus_canister5stateNtB8_19IcarusCanisterState4withNCNvNtNtBa_9lifecycle5testss_26test_lifecycle_hooks_orders0_0uE0Ba_
FNDA:1,_RNCINvMs1_NtCsdI2lQqL7LKT_15icarus_canister5stateNtB8_19IcarusCanisterState4withNCNvNtNtBa_9lifecycle5testss_26test_lifecycle_hooks_orders_0uE0Ba_
FNDA:1,_RNCINvMs1_NtCsdI2lQqL7LKT_15icarus_canister5stateNtB8_19IcarusCanisterState4withNCNvNtNtBa_9lifecycle5testss_31test_init_creates_server_config0uE0Ba_
FNDA:1,_RNCINvMs1_NtCsdI2lQqL7LKT_15icarus_canister5stateNtB8_19IcarusCanisterState4withNCNvNtNtBa_9lifecycle5testss_31test_init_with_different_owners0uE0Ba_
FNDA:1,_RNCINvMs1_NtCsdI2lQqL7LKT_15icarus_canister5stateNtB8_19IcarusCanisterState4withNCNvNtNtBa_9lifecycle5testss_31test_init_with_different_ownerss_0uE0Ba_
FNDA:1,_RNCINvMs1_NtCsdI2lQqL7LKT_15icarus_canister5stateNtB8_19IcarusCanisterState4withNCNvNtNtBa_9lifecycle5testss_34test_init_with_anonymous_principal0uE0Ba_
FNDA:1,_RNCINvMs1_NtCsdI2lQqL7LKT_15icarus_canister5stateNtB8_19IcarusCanisterState4withNCNvNtNtBa_9lifecycle5testss_34test_memory_persistence_simulation0uE0Ba_
FNDA:3,_RNCINvMs1_NtCsdI2lQqL7LKT_15icarus_canister5stateNtB8_19IcarusCanisterState4withNCNvNtNtBa_9lifecycle5testss_34test_multiple_lifecycle_operations0uE0Ba_
FNDA:1,_RNCINvMs1_NtCsdI2lQqL7LKT_15icarus_canister5stateNtB8_19IcarusCanisterState4withNCNvNtNtBa_9lifecycle5testss_38test_init_uses_current_package_version0uE0Ba_
FNDA:1,_RNCINvMs1_NtCsdI2lQqL7LKT_15icarus_canister5stateNtB8_19IcarusCanisterState4withNCNvNtNtBa_9lifecycle5testss_39test_init_initializes_empty_collections0uE0Ba_
FNDA:1,_RNCINvMs1_NtCsdI2lQqL7LKT_15icarus_canister5stateNtB8_19IcarusCanisterState8with_mutNCNvNtB8_5testss_25test_state_config_updates0uE0Ba_
FNDA:1,_RNCINvMs1_NtCsdI2lQqL7LKT_15icarus_canister5stateNtB8_19IcarusCanisterState8with_mutNCNvNtB8_5testss_27test_state_reinitialization0uE0Ba_
FNDA:1,_RNCINvMs1_NtCsdI2lQqL7LKT_15icarus_canister5stateNtB8_19IcarusCanisterState8with_mutNCNvNtB8_5testss_27test_state_tools_management0uE0Ba_
FNDA:1,_RNCINvMs1_NtCsdI2lQqL7LKT_15icarus_canister5stateNtB8_19IcarusCanisterState8with_mutNCNvNtB8_5testss_31test_state_resources_management0uE0Ba_
FNDA:1,_RNCINvMs1_NtCsdI2lQqL7LKT_15icarus_canister5stateNtB8_19IcarusCanisterState8with_mutNCNvNtB8_5testss_39test_state_multiple_tools_and_resources0uE0Ba_
FNDA:1,_RNCINvMs1_NtCsdI2lQqL7LKT_15icarus_canister5stateNtB8_19IcarusCanisterState8with_mutNCNvNtB8_5testss_44test_state_persistence_across_memory_regions0uE0Ba_
FNDA:24,_RNCNvMs1_NtCsdI2lQqL7LKT_15icarus_canister5stateNtB7_19IcarusCanisterState4init0B9_
FNDA:3,_RNCNvNtCsdI2lQqL7LKT_15icarus_canister5state8is_owner0B5_
FNDA:1,_RNCNvNtCsdI2lQqL7LKT_15icarus_canister5state9get_owner0B5_
FNDA:0,_RNCNvNtCsdI2lQqL7LKT_15icarus_canister5state12assert_owner0B5_
FNDA:0,_RNCNvNtNtCsdI2lQqL7LKT_15icarus_canister5state5tests17clear_test_memory0B7_
FNDA:0,_RNvNtCsdI2lQqL7LKT_15icarus_canister5state12assert_owner
FNDA:0,_RNvNtNtCsdI2lQqL7LKT_15icarus_canister5state5tests17clear_test_memory
FNDA:1,_RNCNvNtNtCsdI2lQqL7LKT_15icarus_canister5state5testss_25test_state_config_updates0B7_
FNDA:1,_RNCNvNtNtCsdI2lQqL7LKT_15icarus_canister5state5testss_25test_state_config_updatess_0B7_
FNDA:1,_RNCNvNtNtCsdI2lQqL7LKT_15icarus_canister5state5testss_27test_state_reinitialization0B7_
FNDA:1,_RNCNvNtNtCsdI2lQqL7LKT_15icarus_canister5state5testss_27test_state_reinitializations_0B7_
FNDA:1,_RNCNvNtNtCsdI2lQqL7LKT_15icarus_canister5state5testss_27test_state_tools_management0B7_
FNDA:1,_RNCNvNtNtCsdI2lQqL7LKT_15icarus_canister5state5testss_27test_state_tools_managements_0B7_
FNDA:100,_RNCNvNtNtCsdI2lQqL7LKT_15icarus_canister5state5testss_29test_large_data_serialization0B7_
FNDA:50,_RNCNvNtNtCsdI2lQqL7LKT_15icarus_canister5state5testss_29test_large_data_serializations_0B7_
FNDA:1,_RNCNvNtNtCsdI2lQqL7LKT_15icarus_canister5state5testss_31test_icarus_canister_state_init0B7_
FNDA:1,_RNCNvNtNtCsdI2lQqL7LKT_15icarus_canister5state5testss_31test_icarus_canister_state_with0B7_
FNDA:1,_RNCNvNtNtCsdI2lQqL7LKT_15icarus_canister5state5testss_31test_state_resources_management0B7_
FNDA:1,_RNCNvNtNtCsdI2lQqL7LKT_15icarus_canister5state5testss_31test_state_resources_managements_0B7_
FNDA:1,_RNCNvNtNtCsdI2lQqL7LKT_15icarus_canister5state5testss_32test_state_not_initialized_panic0B7_
FNDA:0,_RNCNvNtNtCsdI2lQqL7LKT_15icarus_canister5state5testss_32test_state_not_initialized_panics_0B7_
FNDA:1,_RNCNvNtNtCsdI2lQqL7LKT_15icarus_canister5state5testss_36test_icarus_canister_state_get_owner0B7_
FNDA:1,_RNCNvNtNtCsdI2lQqL7LKT_15icarus_canister5state5testss_39test_state_multiple_tools_and_resources0B7_
FNDA:1,_RNCNvNtNtCsdI2lQqL7LKT_15icarus_canister5state5testss_39test_state_multiple_tools_and_resourcess_0B7_
FNDA:1,_RNCNvNtNtCsdI2lQqL7LKT_15icarus_canister5state5testss_44test_state_persistence_across_memory_regions0B7_
FNDA:16,_RNvNtNtCsdI2lQqL7LKT_15icarus_canister5state5tests14test_principal
FNDA:13,_RNvNtNtCsdI2lQqL7LKT_15icarus_canister5state5tests18create_test_config
FNDA:5,_RNvNtNtCsdI2lQqL7LKT_15icarus_canister5state5tests22create_test_tool_state
FNDA:15,_RNvNtNtCsdI2lQqL7LKT_15icarus_canister5state5tests23test_canister_principal
FNDA:4,_RNvNtNtCsdI2lQqL7LKT_15icarus_canister5state5tests26create_test_resource_state
FNDA:1,_RNvNtNtCsdI2lQqL7LKT_15icarus_canister5state5testss_22test_is_owner_function
FNDA:1,_RNvNtNtCsdI2lQqL7LKT_15icarus_canister5state5testss_23test_get_owner_function
FNDA:1,_RNvNtNtCsdI2lQqL7LKT_15icarus_canister5state5testss_24test_tool_state_storable
FNDA:1,_RNvNtNtCsdI2lQqL7LKT_15icarus_canister5state5testss_25test_state_config_updates
FNDA:1,_RNvNtNtCsdI2lQqL7LKT_15icarus_canister5state5testss_26test_tool_state_into_bytes
FNDA:1,_RNvNtNtCsdI2lQqL7LKT_15icarus_canister5state5testss_27test_server_config_storable
FNDA:1,_RNvNtNtCsdI2lQqL7LKT_15icarus_canister5state5testss_27test_state_reinitialization
FNDA:1,_RNvNtNtCsdI2lQqL7LKT_15icarus_canister5state5testss_27test_state_tools_management
FNDA:1,_RNvNtNtCsdI2lQqL7LKT_15icarus_canister5state5testss_28test_resource_state_storable
FNDA:1,_RNvNtNtCsdI2lQqL7LKT_15icarus_canister5state5testss_29test_large_data_serialization
FNDA:1,_RNvNtNtCsdI2lQqL7LKT_15icarus_canister5state5testss_29test_server_config_into_bytes
FNDA:1,_RNvNtNtCsdI2lQqL7LKT_15icarus_canister5state5testss_30test_resource_state_into_bytes
FNDA:1,_RNvNtNtCsdI2lQqL7LKT_15icarus_canister5state5testss_31test_icarus_canister_state_init
FNDA:1,_RNvNtNtCsdI2lQqL7LKT_15icarus_canister5state5testss_31test_icarus_canister_state_with
FNDA:1,_RNvNtNtCsdI2lQqL7LKT_15icarus_canister5state5testss_31test_state_resources_management
FNDA:1,_RNvNtNtCsdI2lQqL7LKT_15icarus_canister5state5testss_32test_state_not_initialized_panic
FNDA:1,_RNvNtNtCsdI2lQqL7LKT_15icarus_canister5state5testss_35test_storable_bounds_are_reasonable
FNDA:1,_RNvNtNtCsdI2lQqL7LKT_15icarus_canister5state5testss_36test_icarus_canister_state_get_owner
FNDA:1,_RNvNtNtCsdI2lQqL7LKT_15icarus_canister5state5testss_39test_state_multiple_tools_and_resources
FNDA:1,_RNvNtNtCsdI2lQqL7LKT_15icarus_canister5state5testss_40test_special_characters_in_serialization
FNDA:1,_RNvNtNtCsdI2lQqL7LKT_15icarus_canister5state5testss_44test_state_persistence_across_memory_regions
FNF:71
FNH:63
DA:17,0
DA:26,0
DA:35,0
DA:42,25
DA:43,25
DA:44,25
DA:46,1
DA:47,1
DA:48,1
DA:50,5
DA:51,5
DA:52,5
DA:62,2
DA:63,2
DA:64,2
DA:66,9
DA:67,9
DA:68,9
DA:70,5
DA:71,5
DA:72,5
DA:82,1
DA:83,1
DA:84,1
DA:86,6
DA:87,6
DA:88,6
DA:90,4
DA:91,4
DA:92,4
DA:107,24
DA:108,24
DA:109,24
DA:110,24
DA:111,24
DA:112,24
DA:114,24
DA:115,24
DA:117,30
DA:118,30
DA:119,30
DA:121,30
DA:122,30
DA:123,30
DA:124,30
DA:125,30
DA:126,30
DA:128,6
DA:129,6
DA:130,6
DA:132,6
DA:133,6
DA:134,6
DA:135,6
DA:136,6
DA:137,6
DA:140,6
DA:141,6
DA:142,6
DA:150,0
DA:151,0
DA:152,0
DA:153,0
DA:154,0
DA:155,0
DA:156,0
DA:157,0
DA:158,0
DA:160,0
DA:161,0
DA:162,0
DA:165,3
DA:166,3
DA:167,3
DA:170,1
DA:171,1
DA:172,1
DA:182,16
DA:183,16
DA:184,16
DA:187,15
DA:188,15
DA:189,15
DA:192,0
DA:194,0
DA:195,0
DA:197,13
DA:198,13
DA:199,13
DA:200,13
DA:201,13
DA:202,13
DA:203,13
DA:204,13
DA:206,5
DA:207,5
DA:208,5
DA:209,5
DA:210,5
DA:211,5
DA:212,5
DA:213,5
DA:215,4
DA:216,4
DA:217,4
DA:218,4
DA:219,4
DA:220,4
DA:223,1
DA:224,1
DA:227,1
DA:228,1
DA:230,1
DA:231,1
DA:232,1
DA:233,1
DA:234,1
DA:237,1
DA:238,1
DA:239,1
DA:240,1
DA:243,1
DA:244,1
DA:246,1
DA:247,1
DA:248,1
DA:251,1
DA:252,1
DA:255,1
DA:256,1
DA:258,1
DA:259,1
DA:260,1
DA:261,1
DA:262,1
DA:265,1
DA:266,1
DA:267,1
DA:268,1
DA:271,1
DA:272,1
DA:274,1
DA:275,1
DA:276,1
DA:279,1
DA:280,1
DA:283,1
DA:284,1
DA:286,1
DA:287,1
DA:288,1
DA:291,1
DA:292,1
DA:293,1
DA:294,1
DA:297,1
DA:298,1
DA:300,1
DA:301,1
DA:302,1
DA:305,1
DA:306,1
DA:307,1
DA:309,1
DA:311,1
DA:312,1
DA:313,1
DA:314,1
DA:315,1
DA:316,1
DA:319,1
DA:320,1
DA:321,1
DA:323,1
DA:324,1
DA:325,1
DA:327,1
DA:328,1
DA:331,1
DA:332,1
DA:333,1
DA:334,1
DA:336,1
DA:337,1
DA:338,1
DA:339,1
DA:342,1
DA:343,1
DA:344,1
DA:346,1
DA:347,1
DA:349,1
DA:350,1
DA:352,1
DA:354,1
DA:355,1
DA:356,1
DA:357,1
DA:358,1
DA:359,1
DA:362,1
DA:363,1
DA:364,1
DA:366,1
DA:367,1
DA:369,1
DA:370,1
DA:372,1
DA:374,1
DA:375,1
DA:376,1
DA:377,1
DA:378,1
DA:379,1
DA:382,1
DA:383,1
DA:384,1
DA:386,1
DA:388,6
DA:389,5
DA:390,5
DA:391,5
DA:392,5
DA:393,5
DA:394,5
DA:395,5
DA:396,5
DA:399,4
DA:400,3
DA:401,3
DA:402,3
DA:403,3
DA:404,3
DA:405,3
DA:406,1
DA:408,1
DA:409,1
DA:410,1
DA:413,1
DA:414,1
DA:415,1
DA:416,1
DA:418,1
DA:419,1
DA:420,1
DA:421,1
DA:422,1
DA:425,1
DA:426,1
DA:427,1
DA:428,1
DA:430,1
DA:432,1
DA:433,1
DA:434,1
DA:435,1
DA:438,1
DA:439,1
DA:440,1
DA:441,1
DA:443,1
DA:444,1
DA:445,1
DA:448,1
DA:449,1
DA:450,1
DA:453,1
DA:454,1
DA:455,1
DA:458,1
DA:461,1
DA:463,1
DA:464,1
DA:466,1
DA:467,1
DA:468,1
DA:471,1
DA:472,1
DA:473,1
DA:476,1
DA:477,1
DA:478,1
DA:481,1
DA:482,1
DA:484,1
DA:485,1
DA:486,1
DA:489,1
DA:490,1
DA:491,1
DA:492,1
DA:493,1
DA:494,1
DA:495,1
DA:498,1
DA:500,1
DA:501,1
DA:502,0
DA:504,1
DA:505,1
DA:506,0
DA:508,1
DA:509,1
DA:510,0
DA:514,1
DA:515,1
DA:516,1
DA:517,1
DA:520,1
DA:522,1
DA:523,1
DA:524,1
DA:525,1
DA:526,1
DA:527,1
DA:529,1
DA:530,1
DA:532,1
DA:533,1
DA:534,100
DA:535,50
DA:536,1
DA:539,1
DA:540,1
DA:541,1
DA:542,1
DA:543,1
DA:544,1
DA:545,1
DA:547,1
DA:548,1
DA:550,1
DA:551,1
DA:552,1
DA:556,1
DA:558,1
DA:561,1
DA:563,0
DA:564,1
DA:567,1
DA:568,1
DA:569,1
DA:572,1
DA:573,1
DA:574,1
DA:575,1
DA:578,1
DA:579,1
DA:580,1
DA:581,1
DA:582,1
DA:583,1
DA:584,1
DA:587,1
DA:589,1
DA:590,1
DA:593,1
DA:594,1
DA:595,1
BRF:0
BRH:0
LF:384
LH:359
end_of_record
SF:/Users/goshea/projects/icarus/icarus-sdk/crates/icarus-canister/src/storage.rs
FN:100,_RNvMs_NtCsjQImORMhHZ8_15icarus_canister7storageNtB4_13StableCounter3new
FN:107,_RNvMs_NtCsjQImORMhHZ8_15icarus_canister7storageNtB4_13StableCounter4next
FN:115,_RNvMs_NtCsjQImORMhHZ8_15icarus_canister7storageNtB4_13StableCounter7current
FN:23,_RNCNvMNtCsjQImORMhHZ8_15icarus_canister7storageINtB4_9StableMapNtNtCsiTraAjBDcu4_5alloc6string6StringyE3new0B6_
FN:35,_RNvMNtCsjQImORMhHZ8_15icarus_canister7storageINtB2_9StableMapNtNtCsiTraAjBDcu4_5alloc6string6StringyE3getB4_
FN:22,_RNvMNtCsjQImORMhHZ8_15icarus_canister7storageINtB2_9StableMapNtNtCsiTraAjBDcu4_5alloc6string6StringyE3newB4_
FN:30,_RNvMNtCsjQImORMhHZ8_15icarus_canister7storageINtB2_9StableMapNtNtCsiTraAjBDcu4_5alloc6string6StringyE6insertB4_
FN:230,_RNvNtNtCsdI2lQqL7LKT_15icarus_canister7storage5testss_19test_stable_map_new
FN:430,_RNvNtNtCsdI2lQqL7LKT_15icarus_canister7storage5testss_20test_stable_map_iter
FN:352,_RNvNtNtCsdI2lQqL7LKT_15icarus_canister7storage5testss_21test_stable_map_clear
FN:406,_RNvNtNtCsdI2lQqL7LKT_15icarus_canister7storage5testss_22test_stable_map_filter
FN:289,_RNvNtNtCsdI2lQqL7LKT_15icarus_canister7storage5testss_22test_stable_map_remove
FN:382,_RNvNtNtCsdI2lQqL7LKT_15icarus_canister7storage5testss_22test_stable_map_values
FN:460,_RNvNtNtCsdI2lQqL7LKT_15icarus_canister7storage5testss_23test_stable_counter_new
FN:466,_RNvNtNtCsdI2lQqL7LKT_15icarus_canister7storage5testss_24test_stable_counter_next
FN:588,_RNvNtNtCsdI2lQqL7LKT_15icarus_canister7storage5testss_25test_memory_id_separation
FN:530,_RNvNtNtCsdI2lQqL7LKT_15icarus_canister7storage5testss_26test_stable_map_edge_cases
FN:482,_RNvNtNtCsdI2lQqL7LKT_15icarus_canister7storage5testss_27test_stable_counter_current
FN:557,_RNvNtNtCsdI2lQqL7LKT_15icarus_canister7storage5testss_29test_stable_map_large_dataset
FN:237,_RNvNtNtCsdI2lQqL7LKT_15icarus_canister7storage5testss_30test_stable_map_insert_and_get
FN:260,_RNvNtNtCsdI2lQqL7LKT_15icarus_canister7storage5testss_32test_stable_map_insert_overwrite
FN:325,_RNvNtNtCsdI2lQqL7LKT_15icarus_canister7storage5testss_32test_stable_map_multiple_entries
FN:514,_RNvNtNtCsdI2lQqL7LKT_15icarus_canister7storage5testss_33test_stable_counter_large_numbers
FN:315,_RNvNtNtCsdI2lQqL7LKT_15icarus_canister7storage5testss_34test_stable_map_remove_nonexistent
FN:497,_RNvNtNtCsdI2lQqL7LKT_15icarus_canister7storage5testss_38test_stable_counter_multiple_instances
FN:159,_RNvXNtNtCsdI2lQqL7LKT_15icarus_canister7storage5testsNtB2_7TestKeyNtNtCs28SCrKVqmuK_20ic_stable_structures8storable8Storable10from_bytes
FN:155,_RNvXNtNtCsdI2lQqL7LKT_15icarus_canister7storage5testsNtB2_7TestKeyNtNtCs28SCrKVqmuK_20ic_stable_structures8storable8Storable8to_bytes
FN:188,_RNvXs_NtNtCsdI2lQqL7LKT_15icarus_canister7storage5testsNtB4_9TestValueNtNtCs28SCrKVqmuK_20ic_stable_structures8storable8Storable10from_bytes
FN:215,_RNvXs_NtNtCsdI2lQqL7LKT_15icarus_canister7storage5testsNtB4_9TestValueNtNtCs28SCrKVqmuK_20ic_stable_structures8storable8Storable10into_bytes
FN:60,_RINvMNtCsdI2lQqL7LKT_15icarus_canister7storageINtB3_9StableMapNtNtB3_5tests7TestKeyNtB10_9TestValueE4iterNCNvB10_s_20test_stable_map_iter0EB5_
FN:81,_RINvMNtCsdI2lQqL7LKT_15icarus_canister7storageINtB3_9StableMapNtNtB3_5tests7TestKeyNtB10_9TestValueE6filterNCNvB10_s_22test_stable_map_filter0EB5_
FN:81,_RINvMNtCsdI2lQqL7LKT_15icarus_canister7storageINtB3_9StableMapNtNtB3_5tests7TestKeyNtB10_9TestValueE6filterNCNvB10_s_22test_stable_map_filters_0EB5_
FN:81,_RINvMNtCsdI2lQqL7LKT_15icarus_canister7storageINtB3_9StableMapNtNtB3_5tests7TestKeyNtB10_9TestValueE6filterNCNvB10_s_29test_stable_map_large_dataset0EB5_
FN:88,_RNCINvMNtCsdI2lQqL7LKT_15icarus_canister7storageINtB5_9StableMapNtNtB5_5tests7TestKeyNtB12_9TestValueE6filterNCNvB12_s_22test_stable_map_filter0E0B7_
FN:89,_RNCINvMNtCsdI2lQqL7LKT_15icarus_canister7storageINtB5_9StableMapNtNtB5_5tests7TestKeyNtB12_9TestValueE6filterNCNvB12_s_22test_stable_map_filter0Es_0B7_
FN:88,_RNCINvMNtCsdI2lQqL7LKT_15icarus_canister7storageINtB5_9StableMapNtNtB5_5tests7TestKeyNtB12_9TestValueE6filterNCNvB12_s_22test_stable_map_filters_0E0B7_
FN:89,_RNCINvMNtCsdI2lQqL7LKT_15icarus_canister7storageINtB5_9StableMapNtNtB5_5tests7TestKeyNtB12_9TestValueE6filterNCNvB12_s_22test_stable_map_filters_0Es_0B7_
FN:88,_RNCINvMNtCsdI2lQqL7LKT_15icarus_canister7storageINtB5_9StableMapNtNtB5_5tests7TestKeyNtB12_9TestValueE6filterNCNvB12_s_29test_stable_map_large_dataset0E0B7_
FN:89,_RNCINvMNtCsdI2lQqL7LKT_15icarus_canister7storageINtB5_9StableMapNtNtB5_5tests7TestKeyNtB12_9TestValueE6filterNCNvB12_s_29test_stable_map_large_dataset0Es_0B7_
FN:23,_RNCNvMNtCsdI2lQqL7LKT_15icarus_canister7storageINtB4_9StableMapNtNtB4_5tests7TestKeyNtB11_9TestValueE3new0B6_
FN:76,_RNCNvMNtCsdI2lQqL7LKT_15icarus_canister7storageINtB4_9StableMapNtNtB4_5tests7TestKeyNtB11_9TestValueE6values0B6_
FN:23,_RNCNvMNtCsdI2lQqL7LKT_15icarus_canister7storageINtB4_9StableMapNtNtCsiTraAjBDcu4_5alloc6string6StringyE3new0B6_
FN:35,_RNvMNtCsdI2lQqL7LKT_15icarus_canister7storageINtB2_9StableMapNtNtB2_5tests7TestKeyNtBZ_9TestValueE3getB4_
FN:45,_RNvMNtCsdI2lQqL7LKT_15icarus_canister7storageINtB2_9StableMapNtNtB2_5tests7TestKeyNtBZ_9TestValueE3lenB4_
FN:22,_RNvMNtCsdI2lQqL7LKT_15icarus_canister7storageINtB2_9StableMapNtNtB2_5tests7TestKeyNtBZ_9TestValueE3newB4_
FN:55,_RNvMNtCsdI2lQqL7LKT_15icarus_canister7storageINtB2_9StableMapNtNtB2_5tests7TestKeyNtBZ_9TestValueE5clearB4_
FN:30,_RNvMNtCsdI2lQqL7LKT_15icarus_canister7storageINtB2_9StableMapNtNtB2_5tests7TestKeyNtBZ_9TestValueE6insertB4_
FN:40,_RNvMNtCsdI2lQqL7LKT_15icarus_canister7storageINtB2_9StableMapNtNtB2_5tests7TestKeyNtBZ_9TestValueE6removeB4_
FN:72,_RNvMNtCsdI2lQqL7LKT_15icarus_canister7storageINtB2_9StableMapNtNtB2_5tests7TestKeyNtBZ_9TestValueE6valuesB4_
FN:50,_RNvMNtCsdI2lQqL7LKT_15icarus_canister7storageINtB2_9StableMapNtNtB2_5tests7TestKeyNtBZ_9TestValueE8is_emptyB4_
FN:35,_RNvMNtCsdI2lQqL7LKT_15icarus_canister7storageINtB2_9StableMapNtNtCsiTraAjBDcu4_5alloc6string6StringyE3getB4_
FN:22,_RNvMNtCsdI2lQqL7LKT_15icarus_canister7storageINtB2_9StableMapNtNtCsiTraAjBDcu4_5alloc6string6StringyE3newB4_
FN:30,_RNvMNtCsdI2lQqL7LKT_15icarus_canister7storageINtB2_9StableMapNtNtCsiTraAjBDcu4_5alloc6string6StringyE6insertB4_
FN:100,_RNvMs_NtCsdI2lQqL7LKT_15icarus_canister7storageNtB4_13StableCounter3new
FN:107,_RNvMs_NtCsdI2lQqL7LKT_15icarus_canister7storageNtB4_13StableCounter4next
FN:115,_RNvMs_NtCsdI2lQqL7LKT_15icarus_canister7storageNtB4_13StableCounter7current
FN:163,_RNvXNtNtCsdI2lQqL7LKT_15icarus_canister7storage5testsNtB2_7TestKeyNtNtCs28SCrKVqmuK_20ic_stable_structures8storable8Storable10into_bytes
FN:177,_RNvXs_NtNtCsdI2lQqL7LKT_15icarus_canister7storage5testsNtB4_9TestValueNtNtCs28SCrKVqmuK_20ic_stable_structures8storable8Storable8to_bytes
FN:445,_RNCNvNtNtCsdI2lQqL7LKT_15icarus_canister7storage5testss_20test_stable_map_iter0B7_
FN:452,_RNCNvNtNtCsdI2lQqL7LKT_15icarus_canister7storage5testss_20test_stable_map_iters_0B7_
FN:420,_RNCNvNtNtCsdI2lQqL7LKT_15icarus_canister7storage5testss_22test_stable_map_filter0B7_
FN:424,_RNCNvNtNtCsdI2lQqL7LKT_15icarus_canister7storage5testss_22test_stable_map_filters_0B7_
FN:399,_RNCNvNtNtCsdI2lQqL7LKT_15icarus_canister7storage5testss_22test_stable_map_values0B7_
FN:400,_RNCNvNtNtCsdI2lQqL7LKT_15icarus_canister7storage5testss_22test_stable_map_valuess_0B7_
FN:579,_RNCNvNtNtCsdI2lQqL7LKT_15icarus_canister7storage5testss_29test_stable_map_large_dataset0B7_
FNDA:0,_RNvMs_NtCsjQImORMhHZ8_15icarus_canister7storageNtB4_13StableCounter3new
FNDA:0,_RNvMs_NtCsjQImORMhHZ8_15icarus_canister7storageNtB4_13StableCounter4next
FNDA:0,_RNvMs_NtCsjQImORMhHZ8_15icarus_canister7storageNtB4_13StableCounter7current
FNDA:0,_RNCNvMNtCsjQImORMhHZ8_15icarus_canister7storageINtB4_9StableMapNtNtCsiTraAjBDcu4_5alloc6string6StringyE3new0B6_
FNDA:0,_RNvMNtCsjQImORMhHZ8_15icarus_canister7storageINtB2_9StableMapNtNtCsiTraAjBDcu4_5alloc6string6StringyE3getB4_
FNDA:0,_RNvMNtCsjQImORMhHZ8_15icarus_canister7storageINtB2_9StableMapNtNtCsiTraAjBDcu4_5alloc6string6StringyE3newB4_
FNDA:0,_RNvMNtCsjQImORMhHZ8_15icarus_canister7storageINtB2_9StableMapNtNtCsiTraAjBDcu4_5alloc6string6StringyE6insertB4_
FNDA:1,_RNvNtNtCsdI2lQqL7LKT_15icarus_canister7storage5testss_19test_stable_map_new
FNDA:1,_RNvNtNtCsdI2lQqL7LKT_15icarus_canister7storage5testss_20test_stable_map_iter
FNDA:1,_RNvNtNtCsdI2lQqL7LKT_15icarus_canister7storage5testss_21test_stable_map_clear
FNDA:1,_RNvNtNtCsdI2lQqL7LKT_15icarus_canister7storage5testss_22test_stable_map_filter
FNDA:1,_RNvNtNtCsdI2lQqL7LKT_15icarus_canister7storage5testss_22test_stable_map_remove
FNDA:1,_RNvNtNtCsdI2lQqL7LKT_15icarus_canister7storage5testss_22test_stable_map_values
FNDA:1,_RNvNtNtCsdI2lQqL7LKT_15icarus_canister7storage5testss_23test_stable_counter_new
FNDA:1,_RNvNtNtCsdI2lQqL7LKT_15icarus_canister7storage5testss_24test_stable_counter_next
FNDA:1,_RNvNtNtCsdI2lQqL7LKT_15icarus_canister7storage5testss_25test_memory_id_separation
FNDA:1,_RNvNtNtCsdI2lQqL7LKT_15icarus_canister7storage5testss_26test_stable_map_edge_cases
FNDA:1,_RNvNtNtCsdI2lQqL7LKT_15icarus_canister7storage5testss_27test_stable_counter_current
FNDA:1,_RNvNtNtCsdI2lQqL7LKT_15icarus_canister7storage5testss_29test_stable_map_large_dataset
FNDA:1,_RNvNtNtCsdI2lQqL7LKT_15icarus_canister7storage5testss_30test_stable_map_insert_and_get
FNDA:1,_RNvNtNtCsdI2lQqL7LKT_15icarus_canister7storage5testss_32test_stable_map_insert_overwrite
FNDA:1,_RNvNtNtCsdI2lQqL7LKT_15icarus_canister7storage5testss_32test_stable_map_multiple_entries
FNDA:1,_RNvNtNtCsdI2lQqL7LKT_15icarus_canister7storage5testss_33test_stable_counter_large_numbers
FNDA:1,_RNvNtNtCsdI2lQqL7LKT_15icarus_canister7storage5testss_34test_stable_map_remove_nonexistent
FNDA:1,_RNvNtNtCsdI2lQqL7LKT_15icarus_canister7storage5testss_38test_stable_counter_multiple_instances
FNDA:27244,_RNvXNtNtCsdI2lQqL7LKT_15icarus_canister7storage5testsNtB2_7TestKeyNtNtCs28SCrKVqmuK_20ic_stable_structures8storable8Storable10from_bytes
FNDA:12033,_RNvXNtNtCsdI2lQqL7LKT_15icarus_canister7storage5testsNtB2_7TestKeyNtNtCs28SCrKVqmuK_20ic_stable_structures8storable8Storable8to_bytes
FNDA:1046,_RNvXs_NtNtCsdI2lQqL7LKT_15icarus_canister7storage5testsNtB4_9TestValueNtNtCs28SCrKVqmuK_20ic_stable_structures8storable8Storable10from_bytes
FNDA:1027,_RNvXs_NtNtCsdI2lQqL7LKT_15icarus_canister7storage5testsNtB4_9TestValueNtNtCs28SCrKVqmuK_20ic_stable_structures8storable8Storable10into_bytes
FNDA:1,_RINvMNtCsdI2lQqL7LKT_15icarus_canister7storageINtB3_9StableMapNtNtB3_5tests7TestKeyNtB10_9TestValueE4iterNCNvB10_s_20test_stable_map_iter0EB5_
FNDA:1,_RINvMNtCsdI2lQqL7LKT_15icarus_canister7storageINtB3_9StableMapNtNtB3_5tests7TestKeyNtB10_9TestValueE6filterNCNvB10_s_22test_stable_map_filter0EB5_
FNDA:1,_RINvMNtCsdI2lQqL7LKT_15icarus_canister7storageINtB3_9StableMapNtNtB3_5tests7TestKeyNtB10_9TestValueE6filterNCNvB10_s_22test_stable_map_filters_0EB5_
FNDA:1,_RINvMNtCsdI2lQqL7LKT_15icarus_canister7storageINtB3_9StableMapNtNtB3_5tests7TestKeyNtB10_9TestValueE6filterNCNvB10_s_29test_stable_map_large_dataset0EB5_
FNDA:5,_RNCINvMNtCsdI2lQqL7LKT_15icarus_canister7storageINtB5_9StableMapNtNtB5_5tests7TestKeyNtB12_9TestValueE6filterNCNvB12_s_22test_stable_map_filter0E0B7_
FNDA:3,_RNCINvMNtCsdI2lQqL7LKT_15icarus_canister7storageINtB5_9StableMapNtNtB5_5tests7TestKeyNtB12_9TestValueE6filterNCNvB12_s_22test_stable_map_filter0Es_0B7_
FNDA:5,_RNCINvMNtCsdI2lQqL7LKT_15icarus_canister7storageINtB5_9StableMapNtNtB5_5tests7TestKeyNtB12_9TestValueE6filterNCNvB12_s_22test_stable_map_filters_0E0B7_
FNDA:1,_RNCINvMNtCsdI2lQqL7LKT_15icarus_canister7storageINtB5_9StableMapNtNtB5_5tests7TestKeyNtB12_9TestValueE6filterNCNvB12_s_22test_stable_map_filters_0Es_0B7_
FNDA:1000,_RNCINvMNtCsdI2lQqL7LKT_15icarus_canister7storageINtB5_9StableMapNtNtB5_5tests7TestKeyNtB12_9TestValueE6filterNCNvB12_s_29test_stable_map_large_dataset0E0B7_
FNDA:10,_RNCINvMNtCsdI2lQqL7LKT_15icarus_canister7storageINtB5_9StableMapNtNtB5_5tests7TestKeyNtB12_9TestValueE6filterNCNvB12_s_29test_stable_map_large_dataset0Es_0B7_
FNDA:14,_RNCNvMNtCsdI2lQqL7LKT_15icarus_canister7storageINtB4_9StableMapNtNtB4_5tests7TestKeyNtB11_9TestValueE3new0B6_
FNDA:3,_RNCNvMNtCsdI2lQqL7LKT_15icarus_canister7storageINtB4_9StableMapNtNtB4_5tests7TestKeyNtB11_9TestValueE6values0B6_
FNDA:6,_RNCNvMNtCsdI2lQqL7LKT_15icarus_canister7storageINtB4_9StableMapNtNtCsiTraAjBDcu4_5alloc6string6StringyE3new0B6_
FNDA:18,_RNvMNtCsdI2lQqL7LKT_15icarus_canister7storageINtB2_9StableMapNtNtB2_5tests7TestKeyNtBZ_9TestValueE3getB4_
FNDA:15,_RNvMNtCsdI2lQqL7LKT_15icarus_canister7storageINtB2_9StableMapNtNtB2_5tests7TestKeyNtBZ_9TestValueE3lenB4_
FNDA:14,_RNvMNtCsdI2lQqL7LKT_15icarus_canister7storageINtB2_9StableMapNtNtB2_5tests7TestKeyNtBZ_9TestValueE3newB4_
FNDA:2,_RNvMNtCsdI2lQqL7LKT_15icarus_canister7storageINtB2_9StableMapNtNtB2_5tests7TestKeyNtBZ_9TestValueE5clearB4_
FNDA:1027,_RNvMNtCsdI2lQqL7LKT_15icarus_canister7storageINtB2_9StableMapNtNtB2_5tests7TestKeyNtBZ_9TestValueE6insertB4_
FNDA:3,_RNvMNtCsdI2lQqL7LKT_15icarus_canister7storageINtB2_9StableMapNtNtB2_5tests7TestKeyNtBZ_9TestValueE6removeB4_
FNDA:1,_RNvMNtCsdI2lQqL7LKT_15icarus_canister7storageINtB2_9StableMapNtNtB2_5tests7TestKeyNtBZ_9TestValueE6valuesB4_
FNDA:6,_RNvMNtCsdI2lQqL7LKT_15icarus_canister7storageINtB2_9StableMapNtNtB2_5tests7TestKeyNtBZ_9TestValueE8is_emptyB4_
FNDA:123,_RNvMNtCsdI2lQqL7LKT_15icarus_canister7storageINtB2_9StableMapNtNtCsiTraAjBDcu4_5alloc6string6StringyE3getB4_
FNDA:6,_RNvMNtCsdI2lQqL7LKT_15icarus_canister7storageINtB2_9StableMapNtNtCsiTraAjBDcu4_5alloc6string6StringyE3newB4_
FNDA:109,_RNvMNtCsdI2lQqL7LKT_15icarus_canister7storageINtB2_9StableMapNtNtCsiTraAjBDcu4_5alloc6string6StringyE6insertB4_
FNDA:6,_RNvMs_NtCsdI2lQqL7LKT_15icarus_canister7storageNtB4_13StableCounter3new
FNDA:109,_RNvMs_NtCsdI2lQqL7LKT_15icarus_canister7storageNtB4_13StableCounter4next
FNDA:14,_RNvMs_NtCsdI2lQqL7LKT_15icarus_canister7storageNtB4_13StableCounter7current
FNDA:0,_RNvXNtNtCsdI2lQqL7LKT_15icarus_canister7storage5testsNtB2_7TestKeyNtNtCs28SCrKVqmuK_20ic_stable_structures8storable8Storable10into_bytes
FNDA:0,_RNvXs_NtNtCsdI2lQqL7LKT_15icarus_canister7storage5testsNtB4_9TestValueNtNtCs28SCrKVqmuK_20ic_stable_structures8storable8Storable8to_bytes
FNDA:3,_RNCNvNtNtCsdI2lQqL7LKT_15icarus_canister7storage5testss_20test_stable_map_iter0B7_
FNDA:2,_RNCNvNtNtCsdI2lQqL7LKT_15icarus_canister7storage5testss_20test_stable_map_iters_0B7_
FNDA:5,_RNCNvNtNtCsdI2lQqL7LKT_15icarus_canister7storage5testss_22test_stable_map_filter0B7_
FNDA:5,_RNCNvNtNtCsdI2lQqL7LKT_15icarus_canister7storage5testss_22test_stable_map_filters_0B7_
FNDA:2,_RNCNvNtNtCsdI2lQqL7LKT_15icarus_canister7storage5testss_22test_stable_map_values0B7_
FNDA:2,_RNCNvNtNtCsdI2lQqL7LKT_15icarus_canister7storage5testss_22test_stable_map_valuess_0B7_
FNDA:1000,_RNCNvNtNtCsdI2lQqL7LKT_15icarus_canister7storage5testss_29test_stable_map_large_dataset0B7_
FNF:48
FNH:46
DA:22,20
DA:23,20
DA:24,20
DA:25,20
DA:26,20
DA:27,20
DA:30,1136
DA:31,1136
DA:32,1136
DA:35,141
DA:36,141
DA:37,141
DA:40,3
DA:41,3
DA:42,3
DA:45,15
DA:46,15
DA:47,15
DA:50,6
DA:51,6
DA:52,6
DA:55,2
DA:56,2
DA:57,2
DA:60,1
DA:61,1
DA:62,1
DA:64,1
DA:65,1
DA:66,3
DA:67,3
DA:68,3
DA:69,1
DA:72,1
DA:73,1
DA:74,1
DA:75,1
DA:76,3
DA:77,1
DA:78,1
DA:81,3
DA:82,3
DA:83,3
DA:85,3
DA:86,3
DA:87,3
DA:88,1010
DA:89,14
DA:90,3
DA:91,3
DA:100,6
DA:101,6
DA:102,6
DA:103,6
DA:104,6
DA:107,109
DA:108,109
DA:109,109
DA:110,109
DA:111,109
DA:112,109
DA:115,14
DA:116,14
DA:117,14
DA:155,12033
DA:156,12033
DA:157,12033
DA:159,27244
DA:160,27244
DA:161,27244
DA:163,0
DA:164,0
DA:165,0
DA:177,0
DA:179,0
DA:180,0
DA:181,0
DA:182,0
DA:183,0
DA:184,0
DA:185,0
DA:186,0
DA:188,1046
DA:189,1046
DA:190,1046
DA:191,0
DA:192,1046
DA:195,1046
DA:196,1046
DA:197,0
DA:198,1046
DA:201,1046
DA:204,1046
DA:205,1046
DA:206,1046
DA:207,1046
DA:208,1046
DA:209,1046
DA:210,1046
DA:212,1046
DA:213,1046
DA:215,1027
DA:217,1027
DA:218,1027
DA:219,1027
DA:220,1027
DA:221,1027
DA:222,1027
DA:223,1027
DA:224,1027
DA:230,1
DA:231,1
DA:232,1
DA:233,1
DA:234,1
DA:237,1
DA:238,1
DA:239,1
DA:240,1
DA:241,1
DA:242,1
DA:243,1
DA:246,1
DA:247,1
DA:250,1
DA:251,1
DA:252,1
DA:255,1
DA:256,1
DA:257,1
DA:260,1
DA:261,1
DA:262,1
DA:263,1
DA:264,1
DA:265,1
DA:266,1
DA:267,1
DA:268,1
DA:269,1
DA:270,1
DA:273,1
DA:276,1
DA:277,1
DA:278,1
DA:281,1
DA:282,1
DA:285,1
DA:286,1
DA:289,1
DA:290,1
DA:291,1
DA:292,1
DA:293,1
DA:294,1
DA:295,1
DA:298,1
DA:299,1
DA:302,1
DA:303,1
DA:304,1
DA:307,1
DA:308,1
DA:311,1
DA:312,1
DA:315,1
DA:316,1
DA:317,1
DA:320,1
DA:321,1
DA:322,1
DA:325,1
DA:326,1
DA:329,6
DA:330,5
DA:331,5
DA:332,5
DA:333,5
DA:334,5
DA:335,5
DA:336,5
DA:339,1
DA:340,1
DA:343,6
DA:344,5
DA:345,5
DA:346,5
DA:347,5
DA:349,1
DA:352,1
DA:353,1
DA:356,4
DA:357,3
DA:358,3
DA:359,3
DA:360,3
DA:361,3
DA:362,3
DA:363,3
DA:365,1
DA:368,1
DA:371,1
DA:372,1
DA:375,4
DA:376,3
DA:377,3
DA:379,1
DA:382,1
DA:383,1
DA:384,1
DA:387,4
DA:388,3
DA:389,3
DA:390,3
DA:391,3
DA:392,3
DA:393,3
DA:394,3
DA:395,3
DA:398,1
DA:399,2
DA:400,2
DA:402,1
DA:403,1
DA:406,1
DA:407,1
DA:410,6
DA:411,5
DA:412,5
DA:413,5
DA:414,5
DA:415,5
DA:416,5
DA:417,5
DA:420,5
DA:421,1
DA:424,5
DA:425,1
DA:426,1
DA:427,1
DA:430,1
DA:431,1
DA:434,4
DA:435,3
DA:436,3
DA:437,3
DA:438,3
DA:439,3
DA:440,3
DA:441,3
DA:444,1
DA:445,3
DA:446,3
DA:447,3
DA:449,1
DA:452,2
DA:453,3
DA:454,3
DA:455,3
DA:457,1
DA:460,1
DA:461,1
DA:462,1
DA:463,1
DA:466,1
DA:467,1
DA:470,1
DA:471,1
DA:474,1
DA:475,1
DA:477,1
DA:478,1
DA:479,1
DA:482,1
DA:483,1
DA:486,1
DA:487,1
DA:488,1
DA:491,1
DA:492,1
DA:493,1
DA:494,1
DA:497,1
DA:498,1
DA:499,1
DA:502,1
DA:503,1
DA:505,1
DA:506,1
DA:508,1
DA:509,1
DA:510,1
DA:511,1
DA:514,1
DA:515,1
DA:518,101
DA:519,100
DA:522,1
DA:525,1
DA:526,1
DA:527,1
DA:530,1
DA:531,1
DA:534,1
DA:535,1
DA:536,1
DA:537,1
DA:538,1
DA:540,1
DA:541,1
DA:542,1
DA:545,1
DA:546,1
DA:547,1
DA:548,1
DA:549,1
DA:551,1
DA:552,1
DA:553,1
DA:554,1
DA:557,1
DA:558,1
DA:559,1
DA:562,1000
DA:563,1000
DA:564,1000
DA:565,1000
DA:566,1000
DA:567,1000
DA:568,1000
DA:569,1000
DA:571,1
DA:574,1
DA:575,1
DA:576,1
DA:579,1000
DA:580,1
DA:583,1
DA:584,1
DA:585,1
DA:588,1
DA:589,1
DA:590,1
DA:592,1
DA:593,1
DA:594,1
DA:595,1
DA:596,1
DA:597,1
DA:598,1
DA:599,1
DA:600,1
DA:603,1
DA:604,1
DA:607,1
DA:608,1
DA:611,1
DA:612,1
DA:613,1
DA:614,1
BRF:0
BRH:0
LF:371
LH:357
end_of_record
SF:/Users/goshea/projects/icarus/icarus-sdk/crates/icarus-canister/src/timers.rs
FN:69,_RNvMNtCsjQImORMhHZ8_15icarus_canister6timersNtB2_13TimerRegistry11list_timers
FN:65,_RNvMNtCsjQImORMhHZ8_15icarus_canister6timersNtB2_13TimerRegistry12remove_timer
FN:46,_RNvMNtCsjQImORMhHZ8_15icarus_canister6timersNtB2_13TimerRegistry3new
FN:53,_RNvMNtCsjQImORMhHZ8_15icarus_canister6timersNtB2_13TimerRegistry9add_timer
FN:73,_RNvMNtCsjQImORMhHZ8_15icarus_canister6timersNtB2_13TimerRegistry9clear_all
FN:185,_RNvNtCsjQImORMhHZ8_15icarus_canister6timers12cancel_timer
FN:214,_RNvNtCsjQImORMhHZ8_15icarus_canister6timers17cancel_all_timers
FN:219,_RNvNtCsjQImORMhHZ8_15icarus_canister6timers18active_timer_count
FN:207,_RNvNtCsjQImORMhHZ8_15icarus_canister6timers18list_active_timers
FN:186,_RNCNvNtCsjQImORMhHZ8_15icarus_canister6timers12cancel_timer0B5_
FN:215,_RNCNvNtCsjQImORMhHZ8_15icarus_canister6timers17cancel_all_timers0B5_
FN:220,_RNCNvNtCsjQImORMhHZ8_15icarus_canister6timers18active_timer_count0B5_
FN:208,_RNCNvNtCsjQImORMhHZ8_15icarus_canister6timers18list_active_timers0B5_
FN:333,_RNvNtNtCsdI2lQqL7LKT_15icarus_canister6timers5testss_19test_timer_registry
FN:352,_RNvNtNtCsdI2lQqL7LKT_15icarus_canister6timers5testss_21test_max_timers_limit
FN:317,_RNvNtNtCsdI2lQqL7LKT_15icarus_canister6timers5testss_24test_timer_info_creation
FN:105,_RINvNtCsdI2lQqL7LKT_15icarus_canister6timers13schedule_oncepEB4_
FN:146,_RINvNtCsdI2lQqL7LKT_15icarus_canister6timers17schedule_periodicpEB4_
FN:242,_RINvNtCsdI2lQqL7LKT_15icarus_canister6timers21schedule_with_backoffpEB4_
FN:29,_RINvXs2_NtCsdI2lQqL7LKT_15icarus_canister6timersNtB6_9TimerInfoNtNtCs8Ixg1ZPW7af_6candid5types10CandidType13idl_serializepEB8_
FN:39,_RINvXs5_NtCsdI2lQqL7LKT_15icarus_canister6timersNtB6_9TimerTypeNtNtCs8Ixg1ZPW7af_6candid5types10CandidType13idl_serializepEB8_
FN:113,_RNCINvNtCsdI2lQqL7LKT_15icarus_canister6timers13schedule_oncepE0B6_
FN:130,_RNCINvNtCsdI2lQqL7LKT_15icarus_canister6timers13schedule_oncepEs0_0B6_
FN:123,_RNCINvNtCsdI2lQqL7LKT_15icarus_canister6timers13schedule_oncepEs_0B6_
FN:157,_RNCINvNtCsdI2lQqL7LKT_15icarus_canister6timers17schedule_periodicpE0B6_
FN:170,_RNCINvNtCsdI2lQqL7LKT_15icarus_canister6timers17schedule_periodicpEs0_0B6_
FN:163,_RNCINvNtCsdI2lQqL7LKT_15icarus_canister6timers17schedule_periodicpEs_0B6_
FN:274,_RNCINvNtCsdI2lQqL7LKT_15icarus_canister6timers21schedule_with_backoffpE0B6_
FN:186,_RNCNvNtCsdI2lQqL7LKT_15icarus_canister6timers12cancel_timer0B5_
FN:215,_RNCNvNtCsdI2lQqL7LKT_15icarus_canister6timers17cancel_all_timers0B5_
FN:220,_RNCNvNtCsdI2lQqL7LKT_15icarus_canister6timers18active_timer_count0B5_
FN:208,_RNCNvNtCsdI2lQqL7LKT_15icarus_canister6timers18list_active_timers0B5_
FN:69,_RNvMNtCsdI2lQqL7LKT_15icarus_canister6timersNtB2_13TimerRegistry11list_timers
FN:65,_RNvMNtCsdI2lQqL7LKT_15icarus_canister6timersNtB2_13TimerRegistry12remove_timer
FN:53,_RNvMNtCsdI2lQqL7LKT_15icarus_canister6timersNtB2_13TimerRegistry9add_timer
FN:73,_RNvMNtCsdI2lQqL7LKT_15icarus_canister6timersNtB2_13TimerRegistry9clear_all
FN:185,_RNvNtCsdI2lQqL7LKT_15icarus_canister6timers12cancel_timer
FN:214,_RNvNtCsdI2lQqL7LKT_15icarus_canister6timers17cancel_all_timers
FN:219,_RNvNtCsdI2lQqL7LKT_15icarus_canister6timers18active_timer_count
FN:207,_RNvNtCsdI2lQqL7LKT_15icarus_canister6timers18list_active_timers
FN:46,_RNvMNtCsdI2lQqL7LKT_15icarus_canister6timersNtB2_13TimerRegistry3new
FNDA:0,_RNvMNtCsjQImORMhHZ8_15icarus_canister6timersNtB2_13TimerRegistry11list_timers
FNDA:0,_RNvMNtCsjQImORMhHZ8_15icarus_canister6timersNtB2_13TimerRegistry12remove_timer
FNDA:0,_RNvMNtCsjQImORMhHZ8_15icarus_canister6timersNtB2_13TimerRegistry3new
FNDA:0,_RNvMNtCsjQImORMhHZ8_15icarus_canister6timersNtB2_13TimerRegistry9add_timer
FNDA:0,_RNvMNtCsjQImORMhHZ8_15icarus_canister6timersNtB2_13TimerRegistry9clear_all
FNDA:0,_RNvNtCsjQImORMhHZ8_15icarus_canister6timers12cancel_timer
FNDA:0,_RNvNtCsjQImORMhHZ8_15icarus_canister6timers17cancel_all_timers
FNDA:0,_RNvNtCsjQImORMhHZ8_15icarus_canister6timers18active_timer_count
FNDA:0,_RNvNtCsjQImORMhHZ8_15icarus_canister6timers18list_active_timers
FNDA:0,_RNCNvNtCsjQImORMhHZ8_15icarus_canister6timers12cancel_timer0B5_
FNDA:0,_RNCNvNtCsjQImORMhHZ8_15icarus_canister6timers17cancel_all_timers0B5_
FNDA:0,_RNCNvNtCsjQImORMhHZ8_15icarus_canister6timers18active_timer_count0B5_
FNDA:0,_RNCNvNtCsjQImORMhHZ8_15icarus_canister6timers18list_active_timers0B5_
FNDA:1,_RNvNtNtCsdI2lQqL7LKT_15icarus_canister6timers5testss_19test_timer_registry
FNDA:1,_RNvNtNtCsdI2lQqL7LKT_15icarus_canister6timers5testss_21test_max_timers_limit
FNDA:1,_RNvNtNtCsdI2lQqL7LKT_15icarus_canister6timers5testss_24test_timer_info_creation
FNDA:0,_RINvNtCsdI2lQqL7LKT_15icarus_canister6timers13schedule_oncepEB4_
FNDA:0,_RINvNtCsdI2lQqL7LKT_15icarus_canister6timers17schedule_periodicpEB4_
FNDA:0,_RINvNtCsdI2lQqL7LKT_15icarus_canister6timers21schedule_with_backoffpEB4_
FNDA:0,_RINvXs2_NtCsdI2lQqL7LKT_15icarus_canister6timersNtB6_9TimerInfoNtNtCs8Ixg1ZPW7af_6candid5types10CandidType13idl_serializepEB8_
FNDA:0,_RINvXs5_NtCsdI2lQqL7LKT_15icarus_canister6timersNtB6_9TimerTypeNtNtCs8Ixg1ZPW7af_6candid5types10CandidType13idl_serializepEB8_
FNDA:0,_RNCINvNtCsdI2lQqL7LKT_15icarus_canister6timers13schedule_oncepE0B6_
FNDA:0,_RNCINvNtCsdI2lQqL7LKT_15icarus_canister6timers13schedule_oncepEs0_0B6_
FNDA:0,_RNCINvNtCsdI2lQqL7LKT_15icarus_canister6timers13schedule_oncepEs_0B6_
FNDA:0,_RNCINvNtCsdI2lQqL7LKT_15icarus_canister6timers17schedule_periodicpE0B6_
FNDA:0,_RNCINvNtCsdI2lQqL7LKT_15icarus_canister6timers17schedule_periodicpEs0_0B6_
FNDA:0,_RNCINvNtCsdI2lQqL7LKT_15icarus_canister6timers17schedule_periodicpEs_0B6_
FNDA:0,_RNCINvNtCsdI2lQqL7LKT_15icarus_canister6timers21schedule_with_backoffpE0B6_
FNDA:0,_RNCNvNtCsdI2lQqL7LKT_15icarus_canister6timers12cancel_timer0B5_
FNDA:0,_RNCNvNtCsdI2lQqL7LKT_15icarus_canister6timers17cancel_all_timers0B5_
FNDA:0,_RNCNvNtCsdI2lQqL7LKT_15icarus_canister6timers18active_timer_count0B5_
FNDA:0,_RNCNvNtCsdI2lQqL7LKT_15icarus_canister6timers18list_active_timers0B5_
FNDA:0,_RNvMNtCsdI2lQqL7LKT_15icarus_canister6timersNtB2_13TimerRegistry11list_timers
FNDA:0,_RNvMNtCsdI2lQqL7LKT_15icarus_canister6timersNtB2_13TimerRegistry12remove_timer
FNDA:0,_RNvMNtCsdI2lQqL7LKT_15icarus_canister6timersNtB2_13TimerRegistry9add_timer
FNDA:0,_RNvMNtCsdI2lQqL7LKT_15icarus_canister6timersNtB2_13TimerRegistry9clear_all
FNDA:0,_RNvNtCsdI2lQqL7LKT_15icarus_canister6timers12cancel_timer
FNDA:0,_RNvNtCsdI2lQqL7LKT_15icarus_canister6timers17cancel_all_timers
FNDA:0,_RNvNtCsdI2lQqL7LKT_15icarus_canister6timers18active_timer_count
FNDA:0,_RNvNtCsdI2lQqL7LKT_15icarus_canister6timers18list_active_timers
FNDA:2,_RNvMNtCsdI2lQqL7LKT_15icarus_canister6timersNtB2_13TimerRegistry3new
FNF:28
FNH:4
DA:29,0
DA:39,0
DA:46,2
DA:47,2
DA:48,2
DA:49,2
DA:50,2
DA:51,2
DA:53,0
DA:54,0
DA:55,0
DA:56,0
DA:57,0
DA:58,0
DA:59,0
DA:60,0
DA:61,0
DA:62,0
DA:63,0
DA:65,0
DA:66,0
DA:67,0
DA:69,0
DA:70,0
DA:71,0
DA:73,0
DA:74,0
DA:75,0
DA:76,0
DA:77,0
DA:78,0
DA:105,0
DA:106,0
DA:107,0
DA:109,0
DA:110,0
DA:111,0
DA:113,0
DA:115,0
DA:119,0
DA:122,0
DA:123,0
DA:124,0
DA:125,0
DA:126,0
DA:127,0
DA:130,0
DA:132,0
DA:133,0
DA:146,0
DA:147,0
DA:148,0
DA:150,0
DA:151,0
DA:152,0
DA:155,0
DA:157,0
DA:158,0
DA:159,0
DA:162,0
DA:163,0
DA:164,0
DA:165,0
DA:166,0
DA:167,0
DA:170,0
DA:172,0
DA:173,0
DA:185,0
DA:186,0
DA:187,0
DA:188,0
DA:189,0
DA:191,0
DA:193,0
DA:194,0
DA:207,0
DA:208,0
DA:209,0
DA:214,0
DA:215,0
DA:216,0
DA:219,0
DA:220,0
DA:221,0
DA:242,0
DA:243,0
DA:244,0
DA:245,0
DA:246,0
DA:247,0
DA:248,0
DA:249,0
DA:250,0
DA:263,0
DA:264,0
DA:265,0
DA:266,0
DA:267,0
DA:268,0
DA:269,0
DA:270,0
DA:272,0
DA:274,0
DA:275,0
DA:276,0
DA:279,0
DA:280,0
DA:282,0
DA:283,0
DA:284,0
DA:285,0
DA:286,0
DA:287,0
DA:288,0
DA:289,0
DA:290,0
DA:291,0
DA:292,0
DA:293,0
DA:294,0
DA:317,1
DA:318,1
DA:319,1
DA:320,1
DA:321,1
DA:322,1
DA:323,1
DA:324,1
DA:326,1
DA:327,1
DA:328,1
DA:329,1
DA:330,1
DA:333,1
DA:334,1
DA:335,1
DA:336,1
DA:339,1
DA:340,1
DA:341,1
DA:342,1
DA:343,1
DA:344,1
DA:345,1
DA:349,1
DA:352,1
DA:353,1
DA:356,101
DA:357,100
DA:358,100
DA:359,100
DA:360,100
DA:361,100
DA:362,100
DA:363,100
DA:364,100
DA:365,100
DA:366,100
DA:368,1
DA:369,1
BRF:0
BRH:0
LF:172
LH:46
end_of_record
SF:/Users/goshea/projects/icarus/icarus-sdk/crates/icarus-canister/src/tools.rs
FN:52,_RNCNvMNtCsjQImORMhHZ8_15icarus_canister5toolsNtB4_12ToolRegistry10list_tools0B6_
FN:52,_RNCNvMNtCsdI2lQqL7LKT_15icarus_canister5toolsNtB4_12ToolRegistry10list_tools0B6_
FN:38,_RNCNvMNtCsdI2lQqL7LKT_15icarus_canister5toolsNtB4_12ToolRegistry7execute0B6_
FN:49,_RNvMNtCsdI2lQqL7LKT_15icarus_canister5toolsNtB2_12ToolRegistry10list_tools
FN:28,_RNvMNtCsdI2lQqL7LKT_15icarus_canister5toolsNtB2_12ToolRegistry3new
FN:38,_RNvMNtCsdI2lQqL7LKT_15icarus_canister5toolsNtB2_12ToolRegistry7execute
FN:33,_RNvMNtCsdI2lQqL7LKT_15icarus_canister5toolsNtB2_12ToolRegistry8register
FNDA:0,_RNCNvMNtCsjQImORMhHZ8_15icarus_canister5toolsNtB4_12ToolRegistry10list_tools0B6_
FNDA:0,_RNCNvMNtCsdI2lQqL7LKT_15icarus_canister5toolsNtB4_12ToolRegistry10list_tools0B6_
FNDA:0,_RNCNvMNtCsdI2lQqL7LKT_15icarus_canister5toolsNtB4_12ToolRegistry7execute0B6_
FNDA:0,_RNvMNtCsdI2lQqL7LKT_15icarus_canister5toolsNtB2_12ToolRegistry10list_tools
FNDA:0,_RNvMNtCsdI2lQqL7LKT_15icarus_canister5toolsNtB2_12ToolRegistry3new
FNDA:0,_RNvMNtCsdI2lQqL7LKT_15icarus_canister5toolsNtB2_12ToolRegistry7execute
FNDA:0,_RNvMNtCsdI2lQqL7LKT_15icarus_canister5toolsNtB2_12ToolRegistry8register
FNF:6
FNH:0
DA:28,0
DA:29,0
DA:30,0
DA:33,0
DA:34,0
DA:35,0
DA:38,0
DA:39,0
DA:40,0
DA:41,0
DA:42,0
DA:44,0
DA:46,0
DA:49,0
DA:50,0
DA:51,0
DA:52,0
DA:53,0
DA:54,0
BRF:0
BRH:0
LF:21
LH:0
end_of_record
SF:/Users/goshea/projects/icarus/icarus-sdk/crates/icarus-core/src/builder.rs
FN:137,_RNvMNtCsaLUMl0lvrps_11icarus_core7builderNtB2_11ToolBuilder5build
FN:338,_RNvMs0_NtCsaLUMl0lvrps_11icarus_core7builderNtB5_12ServerConfig4info
FN:370,_RNvMs0_NtCsaLUMl0lvrps_11icarus_core7builderNtB5_12ServerConfig5tools
FN:375,_RNvMs0_NtCsaLUMl0lvrps_11icarus_core7builderNtB5_12ServerConfig9find_tool
FN:424,_RNvMs1_NtCsaLUMl0lvrps_11icarus_core7builderNtB5_14StorageBuilder3new
FN:508,_RNvMs1_NtCsaLUMl0lvrps_11icarus_core7builderNtB5_14StorageBuilder5build
FN:526,_RNvMs2_NtCsaLUMl0lvrps_11icarus_core7builderNtB5_13StorageConfig13generate_code
FN:587,_RNvMs2_NtCsaLUMl0lvrps_11icarus_core7builderNtB5_13StorageConfig7summary
FN:316,_RNvMs_NtCsaLUMl0lvrps_11icarus_core7builderNtB4_13ServerBuilder5build
FN:304,_RNvMs_NtCsaLUMl0lvrps_11icarus_core7builderNtB4_13ServerBuilder9add_tools
FN:599,_RNvXs3_NtCsaLUMl0lvrps_11icarus_core7builderNtB5_14StorageBuilderNtNtCsaNl6UpbT7bw_4core7default7Default7default
FN:214,_RNvXs6_NtCsaLUMl0lvrps_11icarus_core7builderNtB5_9BuiltToolNtNtB7_4tool10IcarusTool12to_rmcp_tool
FN:161,_RNvXs6_NtCsaLUMl0lvrps_11icarus_core7builderNtB5_9BuiltToolNtNtB7_4tool10IcarusTool4info
FN:244,_RNvXs6_NtCsaLUMl0lvrps_11icarus_core7builderNtB5_9BuiltToolNtNtB7_4tool10IcarusTool7execute
FN:751,_RNCNCNCNCNvNtNtCsaLUMl0lvrps_11icarus_core7builder5testss_31test_built_tool_execution_error0000Bd_
FN:615,_RNCNCNCNvNtNtCsaLUMl0lvrps_11icarus_core7builder5testss_23test_tool_builder_basic000Bb_
FN:750,_RNCNCNCNvNtNtCsaLUMl0lvrps_11icarus_core7builder5testss_31test_built_tool_execution_error000Bb_
FN:734,_RNCNCNCNvNtNtCsaLUMl0lvrps_11icarus_core7builder5testss_31test_built_tool_rmcp_conversion000Bb_
FN:655,_RNCNCNCNvNtNtCsaLUMl0lvrps_11icarus_core7builder5testss_31test_tool_builder_with_defaults000Bb_
FN:689,_RNCNCNCNvNtNtCsaLUMl0lvrps_11icarus_core7builder5testss_32test_tool_builder_enum_parameter000Bb_
FN:619,_RNCNCNvNtNtCsaLUMl0lvrps_11icarus_core7builder5testss_23test_tool_builder_basic00B9_
FN:865,_RNCNCNvNtNtCsaLUMl0lvrps_11icarus_core7builder5testss_28test_server_config_find_tool00B9_
FN:811,_RNCNCNvNtNtCsaLUMl0lvrps_11icarus_core7builder5testss_30test_server_builder_with_tools00B9_
FN:818,_RNCNCNvNtNtCsaLUMl0lvrps_11icarus_core7builder5testss_30test_server_builder_with_toolss_00B9_
FN:756,_RNCNCNvNtNtCsaLUMl0lvrps_11icarus_core7builder5testss_31test_built_tool_execution_error00B9_
FN:734,_RNCNCNvNtNtCsaLUMl0lvrps_11icarus_core7builder5testss_31test_built_tool_rmcp_conversion00B9_
FN:887,_RNCNCNvNtNtCsaLUMl0lvrps_11icarus_core7builder5testss_31test_server_config_tools_access00B9_
FN:661,_RNCNCNvNtNtCsaLUMl0lvrps_11icarus_core7builder5testss_31test_tool_builder_with_defaults00B9_
FN:692,_RNCNCNvNtNtCsaLUMl0lvrps_11icarus_core7builder5testss_32test_tool_builder_enum_parameter00B9_
FN:722,_RNCNCNvNtNtCsaLUMl0lvrps_11icarus_core7builder5testss_34test_tool_builder_fluent_interface00B9_
FN:842,_RNCNCNvNtNtCsaLUMl0lvrps_11icarus_core7builder5testss_38test_server_builder_add_multiple_tools00B9_
FN:848,_RNCNCNvNtNtCsaLUMl0lvrps_11icarus_core7builder5testss_38test_server_builder_add_multiple_toolss_00B9_
FN:610,_RNCNvNtNtCsaLUMl0lvrps_11icarus_core7builder5testss_23test_tool_builder_basic0B7_
FN:865,_RNCNvNtNtCsaLUMl0lvrps_11icarus_core7builder5testss_28test_server_config_find_tool0B7_
FN:811,_RNCNvNtNtCsaLUMl0lvrps_11icarus_core7builder5testss_30test_server_builder_with_tools0B7_
FN:818,_RNCNvNtNtCsaLUMl0lvrps_11icarus_core7builder5testss_30test_server_builder_with_toolss_0B7_
FN:746,_RNCNvNtNtCsaLUMl0lvrps_11icarus_core7builder5testss_31test_built_tool_execution_error0B7_
FN:730,_RNCNvNtNtCsaLUMl0lvrps_11icarus_core7builder5testss_31test_built_tool_rmcp_conversion0B7_
FN:887,_RNCNvNtNtCsaLUMl0lvrps_11icarus_core7builder5testss_31test_server_config_tools_access0B7_
FN:650,_RNCNvNtNtCsaLUMl0lvrps_11icarus_core7builder5testss_31test_tool_builder_with_defaults0B7_
FN:679,_RNCNvNtNtCsaLUMl0lvrps_11icarus_core7builder5testss_32test_tool_builder_enum_parameter0B7_
FN:722,_RNCNvNtNtCsaLUMl0lvrps_11icarus_core7builder5testss_34test_tool_builder_fluent_interface0B7_
FN:842,_RNCNvNtNtCsaLUMl0lvrps_11icarus_core7builder5testss_38test_server_builder_add_multiple_tools0B7_
FN:848,_RNCNvNtNtCsaLUMl0lvrps_11icarus_core7builder5testss_38test_server_builder_add_multiple_toolss_0B7_
FN:64,_RINvMNtCsaLUMl0lvrps_11icarus_core7builderNtB3_11ToolBuilder11descriptionReEB5_
FN:108,_RINvMNtCsaLUMl0lvrps_11icarus_core7builderNtB3_11ToolBuilder14enum_parameterReB1c_EB5_
FN:89,_RINvMNtCsaLUMl0lvrps_11icarus_core7builderNtB3_11ToolBuilder22parameter_with_defaultReB1k_B1k_EB5_
FN:54,_RINvMNtCsaLUMl0lvrps_11icarus_core7builderNtB3_11ToolBuilder3newReEB5_
FN:127,_RINvMNtCsaLUMl0lvrps_11icarus_core7builderNtB3_11ToolBuilder7handlerNCNCNvNtB3_5testss_23test_tool_builder_basic00NCNCB16_00EB5_
FN:127,_RINvMNtCsaLUMl0lvrps_11icarus_core7builderNtB3_11ToolBuilder7handlerNCNCNvNtB3_5testss_31test_built_tool_execution_error00NCNCB16_00EB5_
FN:127,_RINvMNtCsaLUMl0lvrps_11icarus_core7builderNtB3_11ToolBuilder7handlerNCNCNvNtB3_5testss_31test_built_tool_rmcp_conversion00NCNCB16_00EB5_
FN:127,_RINvMNtCsaLUMl0lvrps_11icarus_core7builderNtB3_11ToolBuilder7handlerNCNCNvNtB3_5testss_31test_tool_builder_with_defaults00NCNCB16_00EB5_
FN:127,_RINvMNtCsaLUMl0lvrps_11icarus_core7builderNtB3_11ToolBuilder7handlerNCNCNvNtB3_5testss_32test_tool_builder_enum_parameter00NCNCB16_00EB5_
FN:127,_RINvMNtCsaLUMl0lvrps_11icarus_core7builderNtB3_11ToolBuilder7handlerNCNvNtB3_5testss_28test_server_config_find_tool0NCNCB16_00EB5_
FN:127,_RINvMNtCsaLUMl0lvrps_11icarus_core7builderNtB3_11ToolBuilder7handlerNCNvNtB3_5testss_30test_server_builder_with_tools0NCNCB16_00EB5_
FN:127,_RINvMNtCsaLUMl0lvrps_11icarus_core7builderNtB3_11ToolBuilder7handlerNCNvNtB3_5testss_30test_server_builder_with_toolss_0NCNCB16_s_00EB5_
FN:127,_RINvMNtCsaLUMl0lvrps_11icarus_core7builderNtB3_11ToolBuilder7handlerNCNvNtB3_5testss_31test_server_config_tools_access0NCNCB16_00EB5_
FN:127,_RINvMNtCsaLUMl0lvrps_11icarus_core7builderNtB3_11ToolBuilder7handlerNCNvNtB3_5testss_34test_tool_builder_fluent_interface0NCNCB16_00EB5_
FN:127,_RINvMNtCsaLUMl0lvrps_11icarus_core7builderNtB3_11ToolBuilder7handlerNCNvNtB3_5testss_38test_server_builder_add_multiple_tools0NCNCB16_00EB5_
FN:127,_RINvMNtCsaLUMl0lvrps_11icarus_core7builderNtB3_11ToolBuilder7handlerNCNvNtB3_5testss_38test_server_builder_add_multiple_toolss_0NCNCB16_s_00EB5_
FN:70,_RINvMNtCsaLUMl0lvrps_11icarus_core7builderNtB3_11ToolBuilder9parameterReB16_B16_EB5_
FN:451,_RINvMs1_NtCsaLUMl0lvrps_11icarus_core7builderNtB6_14StorageBuilder15add_map_with_idNtNtCsiTraAjBDcu4_5alloc6string6StringyReEB8_
FN:486,_RINvMs1_NtCsaLUMl0lvrps_11icarus_core7builderNtB6_14StorageBuilder16add_cell_with_idbReEB8_
FN:433,_RINvMs1_NtCsaLUMl0lvrps_11icarus_core7builderNtB6_14StorageBuilder7add_mapNtNtCsiTraAjBDcu4_5alloc6string6StringB1a_ReEB8_
FN:433,_RINvMs1_NtCsaLUMl0lvrps_11icarus_core7builderNtB6_14StorageBuilder7add_mapNtNtCsiTraAjBDcu4_5alloc6string6StringyReEB8_
FN:433,_RINvMs1_NtCsaLUMl0lvrps_11icarus_core7builderNtB6_14StorageBuilder7add_maplNtNtCsiTraAjBDcu4_5alloc6string6StringReEB8_
FN:433,_RINvMs1_NtCsaLUMl0lvrps_11icarus_core7builderNtB6_14StorageBuilder7add_mapyINtNtCsiTraAjBDcu4_5alloc3vec3VecNtNtB1g_6string6StringEReEB8_
FN:433,_RINvMs1_NtCsaLUMl0lvrps_11icarus_core7builderNtB6_14StorageBuilder7add_mapyNtNtCsiTraAjBDcu4_5alloc6string6StringReEB8_
FN:469,_RINvMs1_NtCsaLUMl0lvrps_11icarus_core7builderNtB6_14StorageBuilder8add_cellINtNtCsaNl6UpbT7bw_4core6option6OptionNtNtCsiTraAjBDcu4_5alloc6string6StringEReEB8_
FN:469,_RINvMs1_NtCsaLUMl0lvrps_11icarus_core7builderNtB6_14StorageBuilder8add_cellbReEB8_
FN:469,_RINvMs1_NtCsaLUMl0lvrps_11icarus_core7builderNtB6_14StorageBuilder8add_celllReEB8_
FN:469,_RINvMs1_NtCsaLUMl0lvrps_11icarus_core7builderNtB6_14StorageBuilder8add_cellyReEB8_
FN:292,_RINvMs_NtCsaLUMl0lvrps_11icarus_core7builderNtB5_13ServerBuilder11descriptionReEB7_
FN:275,_RINvMs_NtCsaLUMl0lvrps_11icarus_core7builderNtB5_13ServerBuilder3newReEB7_
FN:286,_RINvMs_NtCsaLUMl0lvrps_11icarus_core7builderNtB5_13ServerBuilder7versionReEB7_
FN:298,_RINvMs_NtCsaLUMl0lvrps_11icarus_core7builderNtB5_13ServerBuilder8add_toolNtB5_9BuiltToolEB7_
FN:310,_RINvMs_NtCsaLUMl0lvrps_11icarus_core7builderNtB5_13ServerBuilder8metadataReEB7_
FN:132,_RNCINvMNtCsaLUMl0lvrps_11icarus_core7builderNtB5_11ToolBuilder7handlerNCNCNvNtB5_5testss_23test_tool_builder_basic00NCNCB18_00E0B7_
FN:132,_RNCINvMNtCsaLUMl0lvrps_11icarus_core7builderNtB5_11ToolBuilder7handlerNCNCNvNtB5_5testss_31test_built_tool_execution_error00NCNCB18_00E0B7_
FN:132,_RNCINvMNtCsaLUMl0lvrps_11icarus_core7builderNtB5_11ToolBuilder7handlerNCNCNvNtB5_5testss_31test_built_tool_rmcp_conversion00NCNCB18_00E0B7_
FN:132,_RNCINvMNtCsaLUMl0lvrps_11icarus_core7builderNtB5_11ToolBuilder7handlerNCNCNvNtB5_5testss_31test_tool_builder_with_defaults00NCNCB18_00E0B7_
FN:132,_RNCINvMNtCsaLUMl0lvrps_11icarus_core7builderNtB5_11ToolBuilder7handlerNCNCNvNtB5_5testss_32test_tool_builder_enum_parameter00NCNCB18_00E0B7_
FN:132,_RNCINvMNtCsaLUMl0lvrps_11icarus_core7builderNtB5_11ToolBuilder7handlerNCNvNtB5_5testss_28test_server_config_find_tool0NCNCB18_00E0B7_
FN:132,_RNCINvMNtCsaLUMl0lvrps_11icarus_core7builderNtB5_11ToolBuilder7handlerNCNvNtB5_5testss_30test_server_builder_with_tools0NCNCB18_00E0B7_
FN:132,_RNCINvMNtCsaLUMl0lvrps_11icarus_core7builderNtB5_11ToolBuilder7handlerNCNvNtB5_5testss_30test_server_builder_with_toolss_0NCNCB18_s_00E0B7_
FN:132,_RNCINvMNtCsaLUMl0lvrps_11icarus_core7builderNtB5_11ToolBuilder7handlerNCNvNtB5_5testss_31test_server_config_tools_access0NCNCB18_00E0B7_
FN:132,_RNCINvMNtCsaLUMl0lvrps_11icarus_core7builderNtB5_11ToolBuilder7handlerNCNvNtB5_5testss_34test_tool_builder_fluent_interface0NCNCB18_00E0B7_
FN:132,_RNCINvMNtCsaLUMl0lvrps_11icarus_core7builderNtB5_11ToolBuilder7handlerNCNvNtB5_5testss_38test_server_builder_add_multiple_tools0NCNCB18_00E0B7_
FN:132,_RNCINvMNtCsaLUMl0lvrps_11icarus_core7builderNtB5_11ToolBuilder7handlerNCNvNtB5_5testss_38test_server_builder_add_multiple_toolss_0NCNCB18_s_00E0B7_
FN:233,_RNCNCNvXs6_NtCsaLUMl0lvrps_11icarus_core7builderNtB9_9BuiltToolNtNtBb_4tool10IcarusTool12to_rmcp_tool00Bb_
FN:342,_RNCNvMs0_NtCsaLUMl0lvrps_11icarus_core7builderNtB7_12ServerConfig4info0B9_
FN:378,_RNCNvMs0_NtCsaLUMl0lvrps_11icarus_core7builderNtB7_12ServerConfig9find_tool0B9_
FN:379,_RNCNvMs0_NtCsaLUMl0lvrps_11icarus_core7builderNtB7_12ServerConfig9find_tools_0B9_
FN:229,_RNCNvXs6_NtCsaLUMl0lvrps_11icarus_core7builderNtB7_9BuiltToolNtNtB9_4tool10IcarusTool12to_rmcp_tool0B9_
FN:186,_RNCNvXs6_NtCsaLUMl0lvrps_11icarus_core7builderNtB7_9BuiltToolNtNtB9_4tool10IcarusTool4info0B9_
FN:610,_RNvNtNtCsaLUMl0lvrps_11icarus_core7builder5testss_23test_tool_builder_basic
FN:789,_RNvNtNtCsaLUMl0lvrps_11icarus_core7builder5testss_25test_server_builder_basic
FN:901,_RNvNtNtCsaLUMl0lvrps_11icarus_core7builder5testss_26test_storage_builder_basic
FN:992,_RNvNtNtCsaLUMl0lvrps_11icarus_core7builder5testss_27test_storage_config_summary
FN:772,_RNvNtNtCsaLUMl0lvrps_11icarus_core7builder5testss_28test_parameter_spec_creation
FN:1068,_RNvNtNtCsaLUMl0lvrps_11icarus_core7builder5testss_28test_server_builder_defaults
FN:862,_RNvNtNtCsaLUMl0lvrps_11icarus_core7builder5testss_28test_server_config_find_tool
FN:1015,_RNvNtNtCsaLUMl0lvrps_11icarus_core7builder5testss_28test_storage_builder_default
FN:806,_RNvNtNtCsaLUMl0lvrps_11icarus_core7builder5testss_30test_server_builder_with_tools
FN:1079,_RNvNtNtCsaLUMl0lvrps_11icarus_core7builder5testss_30test_server_config_empty_tools
FN:746,_RNvNtNtCsaLUMl0lvrps_11icarus_core7builder5testss_31test_built_tool_execution_error
FN:730,_RNvNtNtCsaLUMl0lvrps_11icarus_core7builder5testss_31test_built_tool_rmcp_conversion
FN:884,_RNvNtNtCsaLUMl0lvrps_11icarus_core7builder5testss_31test_server_config_tools_access
FN:957,_RNvNtNtCsaLUMl0lvrps_11icarus_core7builder5testss_31test_storage_builder_type_names
FN:650,_RNvNtNtCsaLUMl0lvrps_11icarus_core7builder5testss_31test_tool_builder_with_defaults
FN:679,_RNvNtNtCsaLUMl0lvrps_11icarus_core7builder5testss_32test_tool_builder_enum_parameter
FN:712,_RNvNtNtCsaLUMl0lvrps_11icarus_core7builder5testss_34test_tool_builder_fluent_interface
FN:636,_RNvNtNtCsaLUMl0lvrps_11icarus_core7builder5testss_34test_tool_builder_no_handler_fails
FN:972,_RNvNtNtCsaLUMl0lvrps_11icarus_core7builder5testss_35test_storage_config_code_generation
FN:917,_RNvNtNtCsaLUMl0lvrps_11icarus_core7builder5testss_36test_storage_builder_auto_memory_ids
FN:1036,_RNvNtNtCsaLUMl0lvrps_11icarus_core7builder5testss_37test_storage_map_config_serialization
FN:839,_RNvNtNtCsaLUMl0lvrps_11icarus_core7builder5testss_38test_server_builder_add_multiple_tools
FN:1052,_RNvNtNtCsaLUMl0lvrps_11icarus_core7builder5testss_38test_storage_cell_config_serialization
FN:936,_RNvNtNtCsaLUMl0lvrps_11icarus_core7builder5testss_40test_storage_builder_explicit_memory_ids
FN:1026,_RNvNtNtCsaLUMl0lvrps_11icarus_core7builder5testss_41test_storage_config_null_default_handling
FNDA:13,_RNvMNtCsaLUMl0lvrps_11icarus_core7builderNtB2_11ToolBuilder5build
FNDA:3,_RNvMs0_NtCsaLUMl0lvrps_11icarus_core7builderNtB5_12ServerConfig4info
FNDA:1,_RNvMs0_NtCsaLUMl0lvrps_11icarus_core7builderNtB5_12ServerConfig5tools
FNDA:3,_RNvMs0_NtCsaLUMl0lvrps_11icarus_core7builderNtB5_12ServerConfig9find_tool
FNDA:9,_RNvMs1_NtCsaLUMl0lvrps_11icarus_core7builderNtB5_14StorageBuilder3new
FNDA:7,_RNvMs1_NtCsaLUMl0lvrps_11icarus_core7builderNtB5_14StorageBuilder5build
FNDA:3,_RNvMs2_NtCsaLUMl0lvrps_11icarus_core7builderNtB5_13StorageConfig13generate_code
FNDA:1,_RNvMs2_NtCsaLUMl0lvrps_11icarus_core7builderNtB5_13StorageConfig7summary
FNDA:7,_RNvMs_NtCsaLUMl0lvrps_11icarus_core7builderNtB4_13ServerBuilder5build
FNDA:1,_RNvMs_NtCsaLUMl0lvrps_11icarus_core7builderNtB4_13ServerBuilder9add_tools
FNDA:1,_RNvXs3_NtCsaLUMl0lvrps_11icarus_core7builderNtB5_14StorageBuilderNtNtCsaNl6UpbT7bw_4core7default7Default7default
FNDA:1,_RNvXs6_NtCsaLUMl0lvrps_11icarus_core7builderNtB5_9BuiltToolNtNtB7_4tool10IcarusTool12to_rmcp_tool
FNDA:11,_RNvXs6_NtCsaLUMl0lvrps_11icarus_core7builderNtB5_9BuiltToolNtNtB7_4tool10IcarusTool4info
FNDA:5,_RNvXs6_NtCsaLUMl0lvrps_11icarus_core7builderNtB5_9BuiltToolNtNtB7_4tool10IcarusTool7execute
FNDA:2,_RNCNCNCNCNvNtNtCsaLUMl0lvrps_11icarus_core7builder5testss_31test_built_tool_execution_error0000Bd_
FNDA:1,_RNCNCNCNvNtNtCsaLUMl0lvrps_11icarus_core7builder5testss_23test_tool_builder_basic000Bb_
FNDA:2,_RNCNCNCNvNtNtCsaLUMl0lvrps_11icarus_core7builder5testss_31test_built_tool_execution_error000Bb_
FNDA:0,_RNCNCNCNvNtNtCsaLUMl0lvrps_11icarus_core7builder5testss_31test_built_tool_rmcp_conversion000Bb_
FNDA:1,_RNCNCNCNvNtNtCsaLUMl0lvrps_11icarus_core7builder5testss_31test_tool_builder_with_defaults000Bb_
FNDA:1,_RNCNCNCNvNtNtCsaLUMl0lvrps_11icarus_core7builder5testss_32test_tool_builder_enum_parameter000Bb_
FNDA:1,_RNCNCNvNtNtCsaLUMl0lvrps_11icarus_core7builder5testss_23test_tool_builder_basic00B9_
FNDA:0,_RNCNCNvNtNtCsaLUMl0lvrps_11icarus_core7builder5testss_28test_server_config_find_tool00B9_
FNDA:0,_RNCNCNvNtNtCsaLUMl0lvrps_11icarus_core7builder5testss_30test_server_builder_with_tools00B9_
FNDA:0,_RNCNCNvNtNtCsaLUMl0lvrps_11icarus_core7builder5testss_30test_server_builder_with_toolss_00B9_
FNDA:2,_RNCNCNvNtNtCsaLUMl0lvrps_11icarus_core7builder5testss_31test_built_tool_execution_error00B9_
FNDA:0,_RNCNCNvNtNtCsaLUMl0lvrps_11icarus_core7builder5testss_31test_built_tool_rmcp_conversion00B9_
FNDA:0,_RNCNCNvNtNtCsaLUMl0lvrps_11icarus_core7builder5testss_31test_server_config_tools_access00B9_
FNDA:1,_RNCNCNvNtNtCsaLUMl0lvrps_11icarus_core7builder5testss_31test_tool_builder_with_defaults00B9_
FNDA:1,_RNCNCNvNtNtCsaLUMl0lvrps_11icarus_core7builder5testss_32test_tool_builder_enum_parameter00B9_
FNDA:0,_RNCNCNvNtNtCsaLUMl0lvrps_11icarus_core7builder5testss_34test_tool_builder_fluent_interface00B9_
FNDA:0,_RNCNCNvNtNtCsaLUMl0lvrps_11icarus_core7builder5testss_38test_server_builder_add_multiple_tools00B9_
FNDA:0,_RNCNCNvNtNtCsaLUMl0lvrps_11icarus_core7builder5testss_38test_server_builder_add_multiple_toolss_00B9_
FNDA:1,_RNCNvNtNtCsaLUMl0lvrps_11icarus_core7builder5testss_23test_tool_builder_basic0B7_
FNDA:0,_RNCNvNtNtCsaLUMl0lvrps_11icarus_core7builder5testss_28test_server_config_find_tool0B7_
FNDA:0,_RNCNvNtNtCsaLUMl0lvrps_11icarus_core7builder5testss_30test_server_builder_with_tools0B7_
FNDA:0,_RNCNvNtNtCsaLUMl0lvrps_11icarus_core7builder5testss_30test_server_builder_with_toolss_0B7_
FNDA:1,_RNCNvNtNtCsaLUMl0lvrps_11icarus_core7builder5testss_31test_built_tool_execution_error0B7_
FNDA:1,_RNCNvNtNtCsaLUMl0lvrps_11icarus_core7builder5testss_31test_built_tool_rmcp_conversion0B7_
FNDA:0,_RNCNvNtNtCsaLUMl0lvrps_11icarus_core7builder5testss_31test_server_config_tools_access0B7_
FNDA:1,_RNCNvNtNtCsaLUMl0lvrps_11icarus_core7builder5testss_31test_tool_builder_with_defaults0B7_
FNDA:1,_RNCNvNtNtCsaLUMl0lvrps_11icarus_core7builder5testss_32test_tool_builder_enum_parameter0B7_
FNDA:0,_RNCNvNtNtCsaLUMl0lvrps_11icarus_core7builder5testss_34test_tool_builder_fluent_interface0B7_
FNDA:0,_RNCNvNtNtCsaLUMl0lvrps_11icarus_core7builder5testss_38test_server_builder_add_multiple_tools0B7_
FNDA:0,_RNCNvNtNtCsaLUMl0lvrps_11icarus_core7builder5testss_38test_server_builder_add_multiple_toolss_0B7_
FNDA:13,_RINvMNtCsaLUMl0lvrps_11icarus_core7builderNtB3_11ToolBuilder11descriptionReEB5_
FNDA:2,_RINvMNtCsaLUMl0lvrps_11icarus_core7builderNtB3_11ToolBuilder14enum_parameterReB1c_EB5_
FNDA:3,_RINvMNtCsaLUMl0lvrps_11icarus_core7builderNtB3_11ToolBuilder22parameter_with_defaultReB1k_B1k_EB5_
FNDA:13,_RINvMNtCsaLUMl0lvrps_11icarus_core7builderNtB3_11ToolBuilder3newReEB5_
FNDA:1,_RINvMNtCsaLUMl0lvrps_11icarus_core7builderNtB3_11ToolBuilder7handlerNCNCNvNtB3_5testss_23test_tool_builder_basic00NCNCB16_00EB5_
FNDA:1,_RINvMNtCsaLUMl0lvrps_11icarus_core7builderNtB3_11ToolBuilder7handlerNCNCNvNtB3_5testss_31test_built_tool_execution_error00NCNCB16_00EB5_
FNDA:1,_RINvMNtCsaLUMl0lvrps_11icarus_core7builderNtB3_11ToolBuilder7handlerNCNCNvNtB3_5testss_31test_built_tool_rmcp_conversion00NCNCB16_00EB5_
FNDA:1,_RINvMNtCsaLUMl0lvrps_11icarus_core7builderNtB3_11ToolBuilder7handlerNCNCNvNtB3_5testss_31test_tool_builder_with_defaults00NCNCB16_00EB5_
FNDA:1,_RINvMNtCsaLUMl0lvrps_11icarus_core7builderNtB3_11ToolBuilder7handlerNCNCNvNtB3_5testss_32test_tool_builder_enum_parameter00NCNCB16_00EB5_
FNDA:1,_RINvMNtCsaLUMl0lvrps_11icarus_core7builderNtB3_11ToolBuilder7handlerNCNvNtB3_5testss_28test_server_config_find_tool0NCNCB16_00EB5_
FNDA:1,_RINvMNtCsaLUMl0lvrps_11icarus_core7builderNtB3_11ToolBuilder7handlerNCNvNtB3_5testss_30test_server_builder_with_tools0NCNCB16_00EB5_
FNDA:1,_RINvMNtCsaLUMl0lvrps_11icarus_core7builderNtB3_11ToolBuilder7handlerNCNvNtB3_5testss_30test_server_builder_with_toolss_0NCNCB16_s_00EB5_
FNDA:1,_RINvMNtCsaLUMl0lvrps_11icarus_core7builderNtB3_11ToolBuilder7handlerNCNvNtB3_5testss_31test_server_config_tools_access0NCNCB16_00EB5_
FNDA:1,_RINvMNtCsaLUMl0lvrps_11icarus_core7builderNtB3_11ToolBuilder7handlerNCNvNtB3_5testss_34test_tool_builder_fluent_interface0NCNCB16_00EB5_
FNDA:1,_RINvMNtCsaLUMl0lvrps_11icarus_core7builderNtB3_11ToolBuilder7handlerNCNvNtB3_5testss_38test_server_builder_add_multiple_tools0NCNCB16_00EB5_
FNDA:1,_RINvMNtCsaLUMl0lvrps_11icarus_core7builderNtB3_11ToolBuilder7handlerNCNvNtB3_5testss_38test_server_builder_add_multiple_toolss_0NCNCB16_s_00EB5_
FNDA:9,_RINvMNtCsaLUMl0lvrps_11icarus_core7builderNtB3_11ToolBuilder9parameterReB16_B16_EB5_
FNDA:1,_RINvMs1_NtCsaLUMl0lvrps_11icarus_core7builderNtB6_14StorageBuilder15add_map_with_idNtNtCsiTraAjBDcu4_5alloc6string6StringyReEB8_
FNDA:1,_RINvMs1_NtCsaLUMl0lvrps_11icarus_core7builderNtB6_14StorageBuilder16add_cell_with_idbReEB8_
FNDA:2,_RINvMs1_NtCsaLUMl0lvrps_11icarus_core7builderNtB6_14StorageBuilder7add_mapNtNtCsiTraAjBDcu4_5alloc6string6StringB1a_ReEB8_
FNDA:4,_RINvMs1_NtCsaLUMl0lvrps_11icarus_core7builderNtB6_14StorageBuilder7add_mapNtNtCsiTraAjBDcu4_5alloc6string6StringyReEB8_
FNDA:1,_RINvMs1_NtCsaLUMl0lvrps_11icarus_core7builderNtB6_14StorageBuilder7add_maplNtNtCsiTraAjBDcu4_5alloc6string6StringReEB8_
FNDA:1,_RINvMs1_NtCsaLUMl0lvrps_11icarus_core7builderNtB6_14StorageBuilder7add_mapyINtNtCsiTraAjBDcu4_5alloc3vec3VecNtNtB1g_6string6StringEReEB8_
FNDA:1,_RINvMs1_NtCsaLUMl0lvrps_11icarus_core7builderNtB6_14StorageBuilder7add_mapyNtNtCsiTraAjBDcu4_5alloc6string6StringReEB8_
FNDA:1,_RINvMs1_NtCsaLUMl0lvrps_11icarus_core7builderNtB6_14StorageBuilder8add_cellINtNtCsaNl6UpbT7bw_4core6option6OptionNtNtCsiTraAjBDcu4_5alloc6string6StringEReEB8_
FNDA:4,_RINvMs1_NtCsaLUMl0lvrps_11icarus_core7builderNtB6_14StorageBuilder8add_cellbReEB8_
FNDA:2,_RINvMs1_NtCsaLUMl0lvrps_11icarus_core7builderNtB6_14StorageBuilder8add_celllReEB8_
FNDA:1,_RINvMs1_NtCsaLUMl0lvrps_11icarus_core7builderNtB6_14StorageBuilder8add_cellyReEB8_
FNDA:2,_RINvMs_NtCsaLUMl0lvrps_11icarus_core7builderNtB5_13ServerBuilder11descriptionReEB7_
FNDA:7,_RINvMs_NtCsaLUMl0lvrps_11icarus_core7builderNtB5_13ServerBuilder3newReEB7_
FNDA:1,_RINvMs_NtCsaLUMl0lvrps_11icarus_core7builderNtB5_13ServerBuilder7versionReEB7_
FNDA:4,_RINvMs_NtCsaLUMl0lvrps_11icarus_core7builderNtB5_13ServerBuilder8add_toolNtB5_9BuiltToolEB7_
FNDA:1,_RINvMs_NtCsaLUMl0lvrps_11icarus_core7builderNtB5_13ServerBuilder8metadataReEB7_
FNDA:1,_RNCINvMNtCsaLUMl0lvrps_11icarus_core7builderNtB5_11ToolBuilder7handlerNCNCNvNtB5_5testss_23test_tool_builder_basic00NCNCB18_00E0B7_
FNDA:2,_RNCINvMNtCsaLUMl0lvrps_11icarus_core7builderNtB5_11ToolBuilder7handlerNCNCNvNtB5_5testss_31test_built_tool_execution_error00NCNCB18_00E0B7_
FNDA:0,_RNCINvMNtCsaLUMl0lvrps_11icarus_core7builderNtB5_11ToolBuilder7handlerNCNCNvNtB5_5testss_31test_built_tool_rmcp_conversion00NCNCB18_00E0B7_
FNDA:1,_RNCINvMNtCsaLUMl0lvrps_11icarus_core7builderNtB5_11ToolBuilder7handlerNCNCNvNtB5_5testss_31test_tool_builder_with_defaults00NCNCB18_00E0B7_
FNDA:1,_RNCINvMNtCsaLUMl0lvrps_11icarus_core7builderNtB5_11ToolBuilder7handlerNCNCNvNtB5_5testss_32test_tool_builder_enum_parameter00NCNCB18_00E0B7_
FNDA:0,_RNCINvMNtCsaLUMl0lvrps_11icarus_core7builderNtB5_11ToolBuilder7handlerNCNvNtB5_5testss_28test_server_config_find_tool0NCNCB18_00E0B7_
FNDA:0,_RNCINvMNtCsaLUMl0lvrps_11icarus_core7builderNtB5_11ToolBuilder7handlerNCNvNtB5_5testss_30test_server_builder_with_tools0NCNCB18_00E0B7_
FNDA:0,_RNCINvMNtCsaLUMl0lvrps_11icarus_core7builderNtB5_11ToolBuilder7handlerNCNvNtB5_5testss_30test_server_builder_with_toolss_0NCNCB18_s_00E0B7_
FNDA:0,_RNCINvMNtCsaLUMl0lvrps_11icarus_core7builderNtB5_11ToolBuilder7handlerNCNvNtB5_5testss_31test_server_config_tools_access0NCNCB18_00E0B7_
FNDA:0,_RNCINvMNtCsaLUMl0lvrps_11icarus_core7builderNtB5_11ToolBuilder7handlerNCNvNtB5_5testss_34test_tool_builder_fluent_interface0NCNCB18_00E0B7_
FNDA:0,_RNCINvMNtCsaLUMl0lvrps_11icarus_core7builderNtB5_11ToolBuilder7handlerNCNvNtB5_5testss_38test_server_builder_add_multiple_tools0NCNCB18_00E0B7_
FNDA:0,_RNCINvMNtCsaLUMl0lvrps_11icarus_core7builderNtB5_11ToolBuilder7handlerNCNvNtB5_5testss_38test_server_builder_add_multiple_toolss_0NCNCB18_s_00E0B7_
FNDA:0,_RNCNCNvXs6_NtCsaLUMl0lvrps_11icarus_core7builderNtB9_9BuiltToolNtNtBb_4tool10IcarusTool12to_rmcp_tool00Bb_
FNDA:2,_RNCNvMs0_NtCsaLUMl0lvrps_11icarus_core7builderNtB7_12ServerConfig4info0B9_
FNDA:2,_RNCNvMs0_NtCsaLUMl0lvrps_11icarus_core7builderNtB7_12ServerConfig9find_tool0B9_
FNDA:1,_RNCNvMs0_NtCsaLUMl0lvrps_11icarus_core7builderNtB7_12ServerConfig9find_tools_0B9_
FNDA:0,_RNCNvXs6_NtCsaLUMl0lvrps_11icarus_core7builderNtB7_9BuiltToolNtNtB9_4tool10IcarusTool12to_rmcp_tool0B9_
FNDA:5,_RNCNvXs6_NtCsaLUMl0lvrps_11icarus_core7builderNtB7_9BuiltToolNtNtB9_4tool10IcarusTool4info0B9_
FNDA:1,_RNvNtNtCsaLUMl0lvrps_11icarus_core7builder5testss_23test_tool_builder_basic
FNDA:1,_RNvNtNtCsaLUMl0lvrps_11icarus_core7builder5testss_25test_server_builder_basic
FNDA:1,_RNvNtNtCsaLUMl0lvrps_11icarus_core7builder5testss_26test_storage_builder_basic
FNDA:1,_RNvNtNtCsaLUMl0lvrps_11icarus_core7builder5testss_27test_storage_config_summary
FNDA:1,_RNvNtNtCsaLUMl0lvrps_11icarus_core7builder5testss_28test_parameter_spec_creation
FNDA:1,_RNvNtNtCsaLUMl0lvrps_11icarus_core7builder5testss_28test_server_builder_defaults
FNDA:1,_RNvNtNtCsaLUMl0lvrps_11icarus_core7builder5testss_28test_server_config_find_tool
FNDA:1,_RNvNtNtCsaLUMl0lvrps_11icarus_core7builder5testss_28test_storage_builder_default
FNDA:1,_RNvNtNtCsaLUMl0lvrps_11icarus_core7builder5testss_30test_server_builder_with_tools
FNDA:1,_RNvNtNtCsaLUMl0lvrps_11icarus_core7builder5testss_30test_server_config_empty_tools
FNDA:1,_RNvNtNtCsaLUMl0lvrps_11icarus_core7builder5testss_31test_built_tool_execution_error
FNDA:1,_RNvNtNtCsaLUMl0lvrps_11icarus_core7builder5testss_31test_built_tool_rmcp_conversion
FNDA:1,_RNvNtNtCsaLUMl0lvrps_11icarus_core7builder5testss_31test_server_config_tools_access
FNDA:1,_RNvNtNtCsaLUMl0lvrps_11icarus_core7builder5testss_31test_storage_builder_type_names
FNDA:1,_RNvNtNtCsaLUMl0lvrps_11icarus_core7builder5testss_31test_tool_builder_with_defaults
FNDA:1,_RNvNtNtCsaLUMl0lvrps_11icarus_core7builder5testss_32test_tool_builder_enum_parameter
FNDA:1,_RNvNtNtCsaLUMl0lvrps_11icarus_core7builder5testss_34test_tool_builder_fluent_interface
FNDA:1,_RNvNtNtCsaLUMl0lvrps_11icarus_core7builder5testss_34test_tool_builder_no_handler_fails
FNDA:1,_RNvNtNtCsaLUMl0lvrps_11icarus_core7builder5testss_35test_storage_config_code_generation
FNDA:1,_RNvNtNtCsaLUMl0lvrps_11icarus_core7builder5testss_36test_storage_builder_auto_memory_ids
FNDA:1,_RNvNtNtCsaLUMl0lvrps_11icarus_core7builder5testss_37test_storage_map_config_serialization
FNDA:1,_RNvNtNtCsaLUMl0lvrps_11icarus_core7builder5testss_38test_server_builder_add_multiple_tools
FNDA:1,_RNvNtNtCsaLUMl0lvrps_11icarus_core7builder5testss_38test_storage_cell_config_serialization
FNDA:1,_RNvNtNtCsaLUMl0lvrps_11icarus_core7builder5testss_40test_storage_builder_explicit_memory_ids
FNDA:1,_RNvNtNtCsaLUMl0lvrps_11icarus_core7builder5testss_41test_storage_config_null_default_handling
FNF:91
FNH:73
DA:54,13
DA:55,13
DA:56,13
DA:57,13
DA:58,13
DA:59,13
DA:60,13
DA:61,13
DA:64,13
DA:65,13
DA:66,13
DA:67,13
DA:70,9
DA:71,9
DA:72,9
DA:73,9
DA:74,9
DA:75,9
DA:76,9
DA:77,9
DA:78,9
DA:79,9
DA:80,9
DA:81,9
DA:82,9
DA:83,9
DA:84,9
DA:85,9
DA:86,9
DA:89,3
DA:90,3
DA:91,3
DA:92,3
DA:93,3
DA:94,3
DA:95,3
DA:96,3
DA:97,3
DA:98,3
DA:99,3
DA:100,3
DA:101,3
DA:102,3
DA:103,3
DA:104,3
DA:105,3
DA:108,2
DA:109,2
DA:110,2
DA:111,2
DA:112,2
DA:113,2
DA:114,2
DA:115,2
DA:116,2
DA:117,2
DA:118,2
DA:119,2
DA:120,2
DA:121,2
DA:122,2
DA:123,2
DA:124,2
DA:127,12
DA:128,12
DA:129,12
DA:130,12
DA:132,12
DA:133,12
DA:134,12
DA:137,13
DA:138,13
DA:139,1
DA:140,12
DA:142,12
DA:143,12
DA:144,12
DA:145,12
DA:146,12
DA:147,12
DA:148,13
DA:161,11
DA:162,11
DA:163,11
DA:165,23
DA:166,12
DA:167,12
DA:168,12
DA:169,12
DA:171,12
DA:172,12
DA:173,12
DA:176,12
DA:177,3
DA:178,9
DA:180,12
DA:181,2
DA:182,2
DA:184,2
DA:185,2
DA:186,5
DA:187,2
DA:190,10
DA:192,12
DA:194,12
DA:195,5
DA:196,7
DA:199,11
DA:200,11
DA:201,11
DA:202,11
DA:205,11
DA:206,11
DA:207,11
DA:208,11
DA:209,11
DA:210,11
DA:211,11
DA:212,11
DA:214,1
DA:218,1
DA:220,1
DA:221,1
DA:222,1
DA:223,1
DA:224,1
DA:225,1
DA:226,1
DA:228,1
DA:229,1
DA:230,0
DA:231,0
DA:232,0
DA:233,0
DA:234,0
DA:235,0
DA:236,0
DA:237,0
DA:238,0
DA:239,1
DA:240,1
DA:242,1
DA:244,5
DA:246,5
DA:275,7
DA:276,7
DA:277,7
DA:278,7
DA:279,7
DA:280,7
DA:281,7
DA:282,7
DA:283,7
DA:286,1
DA:287,1
DA:288,1
DA:289,1
DA:292,2
DA:293,2
DA:294,2
DA:295,2
DA:298,4
DA:299,4
DA:300,4
DA:301,4
DA:304,1
DA:305,1
DA:306,1
DA:307,1
DA:310,1
DA:311,1
DA:312,1
DA:313,1
DA:316,7
DA:317,7
DA:318,7
DA:319,7
DA:320,7
DA:321,7
DA:322,7
DA:323,7
DA:324,7
DA:338,3
DA:339,3
DA:340,3
DA:341,3
DA:342,3
DA:343,2
DA:344,2
DA:345,2
DA:346,2
DA:347,2
DA:349,2
DA:350,3
DA:352,3
DA:353,3
DA:354,3
DA:355,3
DA:356,3
DA:360,3
DA:361,4
DA:362,1
DA:363,1
DA:364,0
DA:366,3
DA:367,3
DA:370,1
DA:371,1
DA:372,1
DA:375,3
DA:376,3
DA:377,3
DA:378,3
DA:379,3
DA:380,3
DA:424,9
DA:425,9
DA:426,9
DA:427,9
DA:428,9
DA:429,9
DA:430,9
DA:433,9
DA:434,9
DA:435,9
DA:436,9
DA:438,9
DA:439,9
DA:440,9
DA:441,9
DA:442,9
DA:443,9
DA:445,9
DA:446,9
DA:447,9
DA:448,9
DA:451,1
DA:452,1
DA:453,1
DA:454,1
DA:456,1
DA:457,1
DA:458,1
DA:459,1
DA:460,1
DA:461,1
DA:463,1
DA:464,1
DA:465,1
DA:466,1
DA:469,8
DA:470,8
DA:471,8
DA:473,8
DA:474,8
DA:475,8
DA:476,8
DA:477,8
DA:478,8
DA:480,8
DA:481,8
DA:482,8
DA:483,8
DA:486,1
DA:487,1
DA:488,1
DA:489,1
DA:490,1
DA:491,1
DA:492,1
DA:493,1
DA:495,1
DA:496,1
DA:497,1
DA:498,1
DA:499,1
DA:500,1
DA:502,1
DA:503,1
DA:504,1
DA:505,1
DA:508,7
DA:509,7
DA:510,7
DA:511,7
DA:512,7
DA:513,7
DA:526,3
DA:527,3
DA:529,3
DA:530,3
DA:531,3
DA:532,3
DA:533,3
DA:534,3
DA:535,3
DA:536,3
DA:537,3
DA:538,3
DA:541,5
DA:542,2
DA:543,2
DA:544,2
DA:545,2
DA:546,2
DA:547,2
DA:548,2
DA:549,2
DA:550,2
DA:551,2
DA:552,2
DA:553,2
DA:554,2
DA:555,2
DA:558,6
DA:559,3
DA:560,3
DA:561,3
DA:562,3
DA:563,3
DA:564,3
DA:565,3
DA:566,3
DA:567,3
DA:568,3
DA:569,3
DA:570,3
DA:571,3
DA:572,1
DA:574,2
DA:577,3
DA:578,3
DA:581,3
DA:583,3
DA:584,3
DA:587,1
DA:588,1
DA:589,1
DA:590,1
DA:591,1
DA:592,1
DA:593,1
DA:595,1
DA:599,1
DA:600,1
DA:601,1
DA:610,1
DA:611,1
DA:612,1
DA:613,1
DA:614,1
DA:615,1
DA:616,1
DA:617,1
DA:618,1
DA:619,2
DA:620,1
DA:621,1
DA:623,1
DA:624,1
DA:625,1
DA:627,1
DA:628,1
DA:629,1
DA:630,1
DA:632,1
DA:633,1
DA:636,1
DA:637,1
DA:638,1
DA:639,1
DA:640,1
DA:642,1
DA:643,1
DA:644,1
DA:645,0
DA:647,1
DA:650,1
DA:651,1
DA:652,1
DA:653,1
DA:654,1
DA:655,1
DA:656,1
DA:657,1
DA:658,1
DA:659,1
DA:660,1
DA:661,2
DA:662,1
DA:663,1
DA:665,1
DA:666,1
DA:668,1
DA:669,1
DA:670,1
DA:671,1
DA:674,1
DA:675,1
DA:676,1
DA:679,1
DA:680,1
DA:681,1
DA:682,1
DA:685,1
DA:688,1
DA:689,1
DA:690,1
DA:691,1
DA:692,2
DA:693,1
DA:694,1
DA:696,1
DA:697,1
DA:698,1
DA:700,1
DA:701,1
DA:702,1
DA:704,1
DA:705,1
DA:707,1
DA:708,1
DA:709,1
DA:712,1
DA:714,1
DA:715,1
DA:716,1
DA:717,1
DA:718,1
DA:721,1
DA:722,1
DA:723,1
DA:724,1
DA:726,1
DA:727,1
DA:730,1
DA:731,1
DA:732,1
DA:733,1
DA:734,1
DA:735,1
DA:736,1
DA:738,1
DA:739,1
DA:740,1
DA:741,1
DA:742,1
DA:743,1
DA:746,1
DA:747,1
DA:748,1
DA:749,1
DA:750,2
DA:751,2
DA:752,1
DA:754,1
DA:756,4
DA:757,1
DA:758,1
DA:761,1
DA:762,1
DA:763,1
DA:766,1
DA:767,1
DA:768,1
DA:769,1
DA:772,1
DA:773,1
DA:774,1
DA:775,1
DA:776,1
DA:777,1
DA:778,1
DA:779,1
DA:781,1
DA:782,1
DA:783,1
DA:784,1
DA:785,1
DA:786,1
DA:789,1
DA:790,1
DA:791,1
DA:792,1
DA:793,1
DA:794,1
DA:796,1
DA:797,1
DA:798,1
DA:800,1
DA:801,1
DA:802,1
DA:803,1
DA:806,1
DA:808,1
DA:809,1
DA:810,1
DA:811,1
DA:812,1
DA:813,1
DA:815,1
DA:816,1
DA:817,1
DA:818,1
DA:819,1
DA:820,1
DA:822,1
DA:823,1
DA:824,1
DA:825,1
DA:826,1
DA:828,1
DA:829,1
DA:831,1
DA:832,1
DA:833,1
DA:834,1
DA:835,1
DA:836,1
DA:839,1
DA:840,1
DA:841,1
DA:842,1
DA:843,1
DA:844,1
DA:846,1
DA:847,1
DA:848,1
DA:849,1
DA:850,1
DA:852,1
DA:854,1
DA:855,1
DA:856,1
DA:858,1
DA:859,1
DA:862,1
DA:863,1
DA:864,1
DA:865,1
DA:866,1
DA:867,1
DA:869,1
DA:870,1
DA:871,1
DA:874,1
DA:875,1
DA:876,1
DA:879,1
DA:880,1
DA:881,1
DA:884,1
DA:885,1
DA:886,1
DA:887,1
DA:888,1
DA:889,1
DA:891,1
DA:892,1
DA:893,1
DA:895,1
DA:896,1
DA:897,1
DA:898,1
DA:901,1
DA:902,1
DA:903,1
DA:904,1
DA:905,1
DA:907,1
DA:908,1
DA:910,1
DA:911,1
DA:912,1
DA:913,1
DA:914,1
DA:917,1
DA:918,1
DA:919,1
DA:920,1
DA:921,1
DA:922,1
DA:923,1
DA:925,1
DA:926,1
DA:929,1
DA:930,1
DA:931,1
DA:932,1
DA:933,1
DA:936,1
DA:937,1
DA:938,1
DA:939,1
DA:940,1
DA:941,1
DA:942,1
DA:944,1
DA:945,1
DA:948,1
DA:949,1
DA:952,1
DA:953,1
DA:954,1
DA:957,1
DA:958,1
DA:959,1
DA:960,1
DA:961,1
DA:962,1
DA:964,1
DA:965,1
DA:966,1
DA:967,1
DA:968,1
DA:969,1
DA:972,1
DA:973,1
DA:974,1
DA:975,1
DA:976,1
DA:978,1
DA:981,1
DA:982,1
DA:983,1
DA:984,1
DA:985,1
DA:986,1
DA:987,1
DA:988,1
DA:989,1
DA:992,1
DA:993,1
DA:994,1
DA:995,1
DA:996,1
DA:997,1
DA:999,1
DA:1000,1
DA:1001,1
DA:1002,1
DA:1004,1
DA:1005,1
DA:1006,1
DA:1007,1
DA:1009,1
DA:1010,1
DA:1011,1
DA:1012,1
DA:1015,1
DA:1016,1
DA:1017,1
DA:1020,1
DA:1021,1
DA:1022,1
DA:1023,1
DA:1026,1
DA:1027,1
DA:1028,1
DA:1029,1
DA:1031,1
DA:1032,1
DA:1033,1
DA:1036,1
DA:1037,1
DA:1038,1
DA:1039,1
DA:1040,1
DA:1041,1
DA:1042,1
DA:1044,1
DA:1045,1
DA:1046,1
DA:1047,1
DA:1048,1
DA:1049,1
DA:1052,1
DA:1053,1
DA:1054,1
DA:1055,1
DA:1056,1
DA:1057,1
DA:1058,1
DA:1060,1
DA:1061,1
DA:1062,1
DA:1063,1
DA:1064,1
DA:1065,1
DA:1068,1
DA:1069,1
DA:1071,1
DA:1072,1
DA:1073,1
DA:1074,1
DA:1075,1
DA:1076,1
DA:1079,1
DA:1080,1
DA:1081,1
DA:1083,1
DA:1084,1
DA:1085,1
BRF:0
BRH:0
LF:744
LH:716
end_of_record
SF:/Users/goshea/projects/icarus/icarus-sdk/crates/icarus-core/src/compatibility.rs
FN:55,_RNvYNtNtNtCsaLUMl0lvrps_11icarus_core13compatibility5tests13MockAsyncToolNtB6_10IcarusTool18validate_signatureB8_
FN:55,_RNvYNtNtNtCsaLUMl0lvrps_11icarus_core13compatibility5tests13MockQueryToolNtB6_10IcarusTool18validate_signatureB8_
FN:55,_RNvYNtNtNtCsaLUMl0lvrps_11icarus_core13compatibility5tests21InvalidAsyncQueryToolNtB6_10IcarusTool18validate_signatureB8_
FN:55,_RNvYNtNtNtCsaLUMl0lvrps_11icarus_core13compatibility5tests8MockToolNtB6_10IcarusTool18validate_signatureB8_
FN:20,_RNvYNtNvNtNtCsaLUMl0lvrps_11icarus_core13compatibility5testss_38test_custom_types_with_required_traits11CustomParamNtB8_11IcarusParam8validateBa_
FN:32,_RNvYNtNvNtNtCsaLUMl0lvrps_11icarus_core13compatibility5testss_38test_custom_types_with_required_traits12CustomReturnNtB8_12IcarusReturn8validateBa_
FN:143,_RNvXsB_NtCsaLUMl0lvrps_11icarus_core13compatibilityINtNtCsaNl6UpbT7bw_4core6result6ResultINtNtBS_6option6OptionNtNtCsiTraAjBDcu4_5alloc6string6StringEB1L_ENtB5_12IcarusReturn8validateB7_
FN:143,_RNvXsB_NtCsaLUMl0lvrps_11icarus_core13compatibilityINtNtCsaNl6UpbT7bw_4core6result6ResultINtNtCsiTraAjBDcu4_5alloc3vec3VecyENtNtB1u_6string6StringENtB5_12IcarusReturn8validateB7_
FN:143,_RNvXsB_NtCsaLUMl0lvrps_11icarus_core13compatibilityINtNtCsaNl6UpbT7bw_4core6result6ResultNtNtCsiTraAjBDcu4_5alloc6string6StringB1p_ENtB5_12IcarusReturn8validateB7_
FN:143,_RNvXsB_NtCsaLUMl0lvrps_11icarus_core13compatibilityINtNtCsaNl6UpbT7bw_4core6result6ResultbNtNtCsiTraAjBDcu4_5alloc6string6StringENtB5_12IcarusReturn8validateB7_
FN:143,_RNvXsB_NtCsaLUMl0lvrps_11icarus_core13compatibilityINtNtCsaNl6UpbT7bw_4core6result6ResultuNtNtCsiTraAjBDcu4_5alloc6string6StringENtB5_12IcarusReturn8validateB7_
FN:132,_RNvXsA_NtCsaLUMl0lvrps_11icarus_core13compatibilityINtNtCsiTraAjBDcu4_5alloc3vec3VecNtNtBS_6string6StringENtB5_12IcarusReturn8validateB7_
FN:132,_RNvXsA_NtCsaLUMl0lvrps_11icarus_core13compatibilityINtNtCsiTraAjBDcu4_5alloc3vec3VecbENtB5_12IcarusReturn8validateB7_
FN:132,_RNvXsA_NtCsaLUMl0lvrps_11icarus_core13compatibilityINtNtCsiTraAjBDcu4_5alloc3vec3VecyENtB5_12IcarusReturn8validateB7_
FN:20,_RNvYINtNtCsiTraAjBDcu4_5alloc3vec3VecIB3_NtNtB7_6string6StringEENtNtCsaLUMl0lvrps_11icarus_core13compatibility11IcarusParam8validateB14_
FN:20,_RNvYINtNtCsiTraAjBDcu4_5alloc3vec3VecINtNtCsaNl6UpbT7bw_4core6option6OptionyEENtNtCsaLUMl0lvrps_11icarus_core13compatibility11IcarusParam8validateB1i_
FN:20,_RNvYINtNtCsiTraAjBDcu4_5alloc3vec3VecTNtNtB7_6string6StringINtNtCsaNl6UpbT7bw_4core6option6OptionyEEENtNtCsaLUMl0lvrps_11icarus_core13compatibility11IcarusParam8validateB1F_
FN:20,_RNvYINtNtCsiTraAjBDcu4_5alloc3vec3VecyENtNtCsaLUMl0lvrps_11icarus_core13compatibility11IcarusParam8validateBF_
FN:20,_RNvYTINtNtCsiTraAjBDcu4_5alloc3vec3VecNtNtB8_6string6StringEINtNtCsaNl6UpbT7bw_4core6option6OptionyEbENtNtCsaLUMl0lvrps_11icarus_core13compatibility11IcarusParam8validateB1G_
FN:122,_RNvXsz_NtCsaLUMl0lvrps_11icarus_core13compatibilityINtNtCsaNl6UpbT7bw_4core6option6OptionIBO_NtNtCsiTraAjBDcu4_5alloc6string6StringEENtB5_12IcarusReturn8validateB7_
FN:122,_RNvXsz_NtCsaLUMl0lvrps_11icarus_core13compatibilityINtNtCsaNl6UpbT7bw_4core6option6OptionINtNtCsiTraAjBDcu4_5alloc3vec3VecNtNtB1u_6string6StringEENtB5_12IcarusReturn8validateB7_
FN:122,_RNvXsz_NtCsaLUMl0lvrps_11icarus_core13compatibilityINtNtCsaNl6UpbT7bw_4core6option6OptionNtNtCsiTraAjBDcu4_5alloc6string6StringENtB5_12IcarusReturn8validateB7_
FN:122,_RNvXsz_NtCsaLUMl0lvrps_11icarus_core13compatibilityINtNtCsaNl6UpbT7bw_4core6option6OptionNtNvNtB5_5testss_33test_option_validation_delegation8TestTypeENtB5_12IcarusReturn8validateB7_
FN:20,_RNvYINtNtCsaNl6UpbT7bw_4core6option6OptionIB3_NtNtCsiTraAjBDcu4_5alloc6string6StringEENtNtCsaLUMl0lvrps_11icarus_core13compatibility11IcarusParam8validateB1q_
FN:20,_RNvYINtNtCsaNl6UpbT7bw_4core6option6OptionINtNtCsiTraAjBDcu4_5alloc3vec3VecNtNtBJ_6string6StringEENtNtCsaLUMl0lvrps_11icarus_core13compatibility11IcarusParam8validateB1C_
FN:20,_RNvYINtNtCsaNl6UpbT7bw_4core6option6OptionINtNtCsiTraAjBDcu4_5alloc3vec3VecTblEEENtNtCsaLUMl0lvrps_11icarus_core13compatibility11IcarusParam8validateB1l_
FN:20,_RNvYINtNtCsaNl6UpbT7bw_4core6option6OptionNtNtCsiTraAjBDcu4_5alloc6string6StringENtNtCsaLUMl0lvrps_11icarus_core13compatibility11IcarusParam8validateB1l_
FN:267,_RNvNtNtCsaLUMl0lvrps_11icarus_core13compatibility5testss_21test_nested_vec_types
FN:235,_RNvNtNtCsaLUMl0lvrps_11icarus_core13compatibility5testss_21test_tuple_parameters
FN:277,_RNvNtNtCsaLUMl0lvrps_11icarus_core13compatibility5testss_21test_unit_type_return
FN:256,_RNvNtNtCsaLUMl0lvrps_11icarus_core13compatibility5testss_24test_nested_option_types
FN:224,_RNvNtNtCsaLUMl0lvrps_11icarus_core13compatibility5testss_25test_floating_point_types
FN:283,_RNvNtNtCsaLUMl0lvrps_11icarus_core13compatibility5testss_25test_result_type_variants
FN:339,_RNvNtNtCsaLUMl0lvrps_11icarus_core13compatibility5testss_27test_icarus_tool_validation
FN:292,_RNvNtNtCsaLUMl0lvrps_11icarus_core13compatibility5testss_27test_tool_result_type_alias
FN:183,_RNvNtNtCsaLUMl0lvrps_11icarus_core13compatibility5testss_29test_result_implements_return
FN:413,_RNvNtNtCsaLUMl0lvrps_11icarus_core13compatibility5testss_30test_vec_validation_for_return
FN:302,_RNvNtNtCsaLUMl0lvrps_11icarus_core13compatibility5testss_32test_validate_tool_type_function
FN:166,_RNvNtNtCsaLUMl0lvrps_11icarus_core13compatibility5testss_33test_basic_types_implement_traits
FN:396,_RNvNtNtCsaLUMl0lvrps_11icarus_core13compatibility5testss_33test_option_validation_delegation
FN:365,_RNvNtNtCsaLUMl0lvrps_11icarus_core13compatibility5testss_35test_complex_parameter_combinations
FN:357,_RNvNtNtCsaLUMl0lvrps_11icarus_core13compatibility5testss_36test_icarus_tool_invalid_async_query
FN:190,_RNvNtNtCsaLUMl0lvrps_11icarus_core13compatibility5testss_38test_all_integer_types_implement_param
FN:373,_RNvNtNtCsaLUMl0lvrps_11icarus_core13compatibility5testss_38test_custom_types_with_required_traits
FN:207,_RNvNtNtCsaLUMl0lvrps_11icarus_core13compatibility5testss_39test_all_integer_types_implement_return
FN:401,_RNvXNvNtNtCsaLUMl0lvrps_11icarus_core13compatibility5testss_33test_option_validation_delegationNtB2_8TestTypeNtB6_12IcarusReturn8validate
FN:154,_RINvNtCsaLUMl0lvrps_11icarus_core13compatibility18validate_tool_typeINtNtCsaNl6UpbT7bw_4core6option6OptionbEEB4_
FN:154,_RINvNtCsaLUMl0lvrps_11icarus_core13compatibility18validate_tool_typeINtNtCsiTraAjBDcu4_5alloc3vec3VecNtNtB19_6string6StringEEB4_
FN:154,_RINvNtCsaLUMl0lvrps_11icarus_core13compatibility18validate_tool_typeNtNtCsiTraAjBDcu4_5alloc6string6StringEB4_
FN:154,_RINvNtCsaLUMl0lvrps_11icarus_core13compatibility18validate_tool_typeyEB4_
FN:20,_RNvYaNtNtCsaLUMl0lvrps_11icarus_core13compatibility11IcarusParam8validateB7_
FN:32,_RNvYaNtNtCsaLUMl0lvrps_11icarus_core13compatibility12IcarusReturn8validateB7_
FN:20,_RNvYbNtNtCsaLUMl0lvrps_11icarus_core13compatibility11IcarusParam8validateB7_
FN:32,_RNvYbNtNtCsaLUMl0lvrps_11icarus_core13compatibility12IcarusReturn8validateB7_
FN:20,_RNvYdNtNtCsaLUMl0lvrps_11icarus_core13compatibility11IcarusParam8validateB7_
FN:32,_RNvYdNtNtCsaLUMl0lvrps_11icarus_core13compatibility12IcarusReturn8validateB7_
FN:20,_RNvYfNtNtCsaLUMl0lvrps_11icarus_core13compatibility11IcarusParam8validateB7_
FN:32,_RNvYfNtNtCsaLUMl0lvrps_11icarus_core13compatibility12IcarusReturn8validateB7_
FN:20,_RNvYhNtNtCsaLUMl0lvrps_11icarus_core13compatibility11IcarusParam8validateB7_
FN:32,_RNvYhNtNtCsaLUMl0lvrps_11icarus_core13compatibility12IcarusReturn8validateB7_
FN:20,_RNvYlNtNtCsaLUMl0lvrps_11icarus_core13compatibility11IcarusParam8validateB7_
FN:32,_RNvYlNtNtCsaLUMl0lvrps_11icarus_core13compatibility12IcarusReturn8validateB7_
FN:20,_RNvYmNtNtCsaLUMl0lvrps_11icarus_core13compatibility11IcarusParam8validateB7_
FN:32,_RNvYmNtNtCsaLUMl0lvrps_11icarus_core13compatibility12IcarusReturn8validateB7_
FN:20,_RNvYnNtNtCsaLUMl0lvrps_11icarus_core13compatibility11IcarusParam8validateB7_
FN:32,_RNvYnNtNtCsaLUMl0lvrps_11icarus_core13compatibility12IcarusReturn8validateB7_
FN:20,_RNvYoNtNtCsaLUMl0lvrps_11icarus_core13compatibility11IcarusParam8validateB7_
FN:32,_RNvYoNtNtCsaLUMl0lvrps_11icarus_core13compatibility12IcarusReturn8validateB7_
FN:20,_RNvYsNtNtCsaLUMl0lvrps_11icarus_core13compatibility11IcarusParam8validateB7_
FN:32,_RNvYsNtNtCsaLUMl0lvrps_11icarus_core13compatibility12IcarusReturn8validateB7_
FN:20,_RNvYtNtNtCsaLUMl0lvrps_11icarus_core13compatibility11IcarusParam8validateB7_
FN:32,_RNvYtNtNtCsaLUMl0lvrps_11icarus_core13compatibility12IcarusReturn8validateB7_
FN:20,_RNvYuNtNtCsaLUMl0lvrps_11icarus_core13compatibility11IcarusParam8validateB7_
FN:32,_RNvYuNtNtCsaLUMl0lvrps_11icarus_core13compatibility12IcarusReturn8validateB7_
FN:20,_RNvYxNtNtCsaLUMl0lvrps_11icarus_core13compatibility11IcarusParam8validateB7_
FN:32,_RNvYxNtNtCsaLUMl0lvrps_11icarus_core13compatibility12IcarusReturn8validateB7_
FN:20,_RNvYyNtNtCsaLUMl0lvrps_11icarus_core13compatibility11IcarusParam8validateB7_
FN:32,_RNvYyNtNtCsaLUMl0lvrps_11icarus_core13compatibility12IcarusReturn8validateB7_
FN:20,_RNvYNtNtCsiTraAjBDcu4_5alloc6string6StringNtNtCsaLUMl0lvrps_11icarus_core13compatibility11IcarusParam8validateBI_
FN:32,_RNvYNtNtCsiTraAjBDcu4_5alloc6string6StringNtNtCsaLUMl0lvrps_11icarus_core13compatibility12IcarusReturn8validateBI_
FN:20,_RNvYTNtNtCsiTraAjBDcu4_5alloc6string6StringENtNtCsaLUMl0lvrps_11icarus_core13compatibility11IcarusParam8validateBK_
FN:20,_RNvYTNtNtCsiTraAjBDcu4_5alloc6string6StringyENtNtCsaLUMl0lvrps_11icarus_core13compatibility11IcarusParam8validateBL_
FN:20,_RNvYTNtNtCsiTraAjBDcu4_5alloc6string6StringybENtNtCsaLUMl0lvrps_11icarus_core13compatibility11IcarusParam8validateBM_
FN:20,_RNvYTNtNtCsiTraAjBDcu4_5alloc6string6StringybdENtNtCsaLUMl0lvrps_11icarus_core13compatibility11IcarusParam8validateBN_
FN:20,_RNvYTNtNtCsiTraAjBDcu4_5alloc6string6StringybdlENtNtCsaLUMl0lvrps_11icarus_core13compatibility11IcarusParam8validateBO_
FN:374,_RINvXs0_NvNtNtCsaLUMl0lvrps_11icarus_core13compatibility5testss_38test_custom_types_with_required_traitsNtB6_11CustomParamNtNtCs8Ixg1ZPW7af_6candid5types10CandidType13idl_serializepEBc_
FN:382,_RINvXs1_NvNtNtCsaLUMl0lvrps_11icarus_core13compatibility5testss_38test_custom_types_with_required_traitsNtB6_12CustomReturnNtNtCs8Ixg1ZPW7af_6candid5types10CandidType13idl_serializepEBc_
FN:397,_RINvXs_NvNtNtCsaLUMl0lvrps_11icarus_core13compatibility5testss_33test_option_validation_delegationNtB5_8TestTypeNtNtCs8Ixg1ZPW7af_6candid5types10CandidType13idl_serializepEBb_
FNDA:1,_RNvYNtNtNtCsaLUMl0lvrps_11icarus_core13compatibility5tests13MockAsyncToolNtB6_10IcarusTool18validate_signatureB8_
FNDA:1,_RNvYNtNtNtCsaLUMl0lvrps_11icarus_core13compatibility5tests13MockQueryToolNtB6_10IcarusTool18validate_signatureB8_
FNDA:1,_RNvYNtNtNtCsaLUMl0lvrps_11icarus_core13compatibility5tests21InvalidAsyncQueryToolNtB6_10IcarusTool18validate_signatureB8_
FNDA:1,_RNvYNtNtNtCsaLUMl0lvrps_11icarus_core13compatibility5tests8MockToolNtB6_10IcarusTool18validate_signatureB8_
FNDA:1,_RNvYNtNvNtNtCsaLUMl0lvrps_11icarus_core13compatibility5testss_38test_custom_types_with_required_traits11CustomParamNtB8_11IcarusParam8validateBa_
FNDA:1,_RNvYNtNvNtNtCsaLUMl0lvrps_11icarus_core13compatibility5testss_38test_custom_types_with_required_traits12CustomReturnNtB8_12IcarusReturn8validateBa_
FNDA:1,_RNvXsB_NtCsaLUMl0lvrps_11icarus_core13compatibilityINtNtCsaNl6UpbT7bw_4core6result6ResultINtNtBS_6option6OptionNtNtCsiTraAjBDcu4_5alloc6string6StringEB1L_ENtB5_12IcarusReturn8validateB7_
FNDA:2,_RNvXsB_NtCsaLUMl0lvrps_11icarus_core13compatibilityINtNtCsaNl6UpbT7bw_4core6result6ResultINtNtCsiTraAjBDcu4_5alloc3vec3VecyENtNtB1u_6string6StringENtB5_12IcarusReturn8validateB7_
FNDA:1,_RNvXsB_NtCsaLUMl0lvrps_11icarus_core13compatibilityINtNtCsaNl6UpbT7bw_4core6result6ResultNtNtCsiTraAjBDcu4_5alloc6string6StringB1p_ENtB5_12IcarusReturn8validateB7_
FNDA:1,_RNvXsB_NtCsaLUMl0lvrps_11icarus_core13compatibilityINtNtCsaNl6UpbT7bw_4core6result6ResultbNtNtCsiTraAjBDcu4_5alloc6string6StringENtB5_12IcarusReturn8validateB7_
FNDA:1,_RNvXsB_NtCsaLUMl0lvrps_11icarus_core13compatibilityINtNtCsaNl6UpbT7bw_4core6result6ResultuNtNtCsiTraAjBDcu4_5alloc6string6StringENtB5_12IcarusReturn8validateB7_
FNDA:3,_RNvXsA_NtCsaLUMl0lvrps_11icarus_core13compatibilityINtNtCsiTraAjBDcu4_5alloc3vec3VecNtNtBS_6string6StringENtB5_12IcarusReturn8validateB7_
FNDA:1,_RNvXsA_NtCsaLUMl0lvrps_11icarus_core13compatibilityINtNtCsiTraAjBDcu4_5alloc3vec3VecbENtB5_12IcarusReturn8validateB7_
FNDA:1,_RNvXsA_NtCsaLUMl0lvrps_11icarus_core13compatibilityINtNtCsiTraAjBDcu4_5alloc3vec3VecyENtB5_12IcarusReturn8validateB7_
FNDA:1,_RNvYINtNtCsiTraAjBDcu4_5alloc3vec3VecIB3_NtNtB7_6string6StringEENtNtCsaLUMl0lvrps_11icarus_core13compatibility11IcarusParam8validateB14_
FNDA:1,_RNvYINtNtCsiTraAjBDcu4_5alloc3vec3VecINtNtCsaNl6UpbT7bw_4core6option6OptionyEENtNtCsaLUMl0lvrps_11icarus_core13compatibility11IcarusParam8validateB1i_
FNDA:1,_RNvYINtNtCsiTraAjBDcu4_5alloc3vec3VecTNtNtB7_6string6StringINtNtCsaNl6UpbT7bw_4core6option6OptionyEEENtNtCsaLUMl0lvrps_11icarus_core13compatibility11IcarusParam8validateB1F_
FNDA:1,_RNvYINtNtCsiTraAjBDcu4_5alloc3vec3VecyENtNtCsaLUMl0lvrps_11icarus_core13compatibility11IcarusParam8validateBF_
FNDA:1,_RNvYTINtNtCsiTraAjBDcu4_5alloc3vec3VecNtNtB8_6string6StringEINtNtCsaNl6UpbT7bw_4core6option6OptionyEbENtNtCsaLUMl0lvrps_11icarus_core13compatibility11IcarusParam8validateB1G_
FNDA:1,_RNvXsz_NtCsaLUMl0lvrps_11icarus_core13compatibilityINtNtCsaNl6UpbT7bw_4core6option6OptionIBO_NtNtCsiTraAjBDcu4_5alloc6string6StringEENtB5_12IcarusReturn8validateB7_
FNDA:1,_RNvXsz_NtCsaLUMl0lvrps_11icarus_core13compatibilityINtNtCsaNl6UpbT7bw_4core6option6OptionINtNtCsiTraAjBDcu4_5alloc3vec3VecNtNtB1u_6string6StringEENtB5_12IcarusReturn8validateB7_
FNDA:1,_RNvXsz_NtCsaLUMl0lvrps_11icarus_core13compatibilityINtNtCsaNl6UpbT7bw_4core6option6OptionNtNtCsiTraAjBDcu4_5alloc6string6StringENtB5_12IcarusReturn8validateB7_
FNDA:1,_RNvXsz_NtCsaLUMl0lvrps_11icarus_core13compatibilityINtNtCsaNl6UpbT7bw_4core6option6OptionNtNvNtB5_5testss_33test_option_validation_delegation8TestTypeENtB5_12IcarusReturn8validateB7_
FNDA:1,_RNvYINtNtCsaNl6UpbT7bw_4core6option6OptionIB3_NtNtCsiTraAjBDcu4_5alloc6string6StringEENtNtCsaLUMl0lvrps_11icarus_core13compatibility11IcarusParam8validateB1q_
FNDA:1,_RNvYINtNtCsaNl6UpbT7bw_4core6option6OptionINtNtCsiTraAjBDcu4_5alloc3vec3VecNtNtBJ_6string6StringEENtNtCsaLUMl0lvrps_11icarus_core13compatibility11IcarusParam8validateB1C_
FNDA:1,_RNvYINtNtCsaNl6UpbT7bw_4core6option6OptionINtNtCsiTraAjBDcu4_5alloc3vec3VecTblEEENtNtCsaLUMl0lvrps_11icarus_core13compatibility11IcarusParam8validateB1l_
FNDA:1,_RNvYINtNtCsaNl6UpbT7bw_4core6option6OptionNtNtCsiTraAjBDcu4_5alloc6string6StringENtNtCsaLUMl0lvrps_11icarus_core13compatibility11IcarusParam8validateB1l_
FNDA:1,_RNvNtNtCsaLUMl0lvrps_11icarus_core13compatibility5testss_21test_nested_vec_types
FNDA:1,_RNvNtNtCsaLUMl0lvrps_11icarus_core13compatibility5testss_21test_tuple_parameters
FNDA:1,_RNvNtNtCsaLUMl0lvrps_11icarus_core13compatibility5testss_21test_unit_type_return
FNDA:1,_RNvNtNtCsaLUMl0lvrps_11icarus_core13compatibility5testss_24test_nested_option_types
FNDA:1,_RNvNtNtCsaLUMl0lvrps_11icarus_core13compatibility5testss_25test_floating_point_types
FNDA:1,_RNvNtNtCsaLUMl0lvrps_11icarus_core13compatibility5testss_25test_result_type_variants
FNDA:1,_RNvNtNtCsaLUMl0lvrps_11icarus_core13compatibility5testss_27test_icarus_tool_validation
FNDA:1,_RNvNtNtCsaLUMl0lvrps_11icarus_core13compatibility5testss_27test_tool_result_type_alias
FNDA:1,_RNvNtNtCsaLUMl0lvrps_11icarus_core13compatibility5testss_29test_result_implements_return
FNDA:1,_RNvNtNtCsaLUMl0lvrps_11icarus_core13compatibility5testss_30test_vec_validation_for_return
FNDA:1,_RNvNtNtCsaLUMl0lvrps_11icarus_core13compatibility5testss_32test_validate_tool_type_function
FNDA:1,_RNvNtNtCsaLUMl0lvrps_11icarus_core13compatibility5testss_33test_basic_types_implement_traits
FNDA:1,_RNvNtNtCsaLUMl0lvrps_11icarus_core13compatibility5testss_33test_option_validation_delegation
FNDA:1,_RNvNtNtCsaLUMl0lvrps_11icarus_core13compatibility5testss_35test_complex_parameter_combinations
FNDA:1,_RNvNtNtCsaLUMl0lvrps_11icarus_core13compatibility5testss_36test_icarus_tool_invalid_async_query
FNDA:1,_RNvNtNtCsaLUMl0lvrps_11icarus_core13compatibility5testss_38test_all_integer_types_implement_param
FNDA:1,_RNvNtNtCsaLUMl0lvrps_11icarus_core13compatibility5testss_38test_custom_types_with_required_traits
FNDA:1,_RNvNtNtCsaLUMl0lvrps_11icarus_core13compatibility5testss_39test_all_integer_types_implement_return
FNDA:1,_RNvXNvNtNtCsaLUMl0lvrps_11icarus_core13compatibility5testss_33test_option_validation_delegationNtB2_8TestTypeNtB6_12IcarusReturn8validate
FNDA:1,_RINvNtCsaLUMl0lvrps_11icarus_core13compatibility18validate_tool_typeINtNtCsaNl6UpbT7bw_4core6option6OptionbEEB4_
FNDA:1,_RINvNtCsaLUMl0lvrps_11icarus_core13compatibility18validate_tool_typeINtNtCsiTraAjBDcu4_5alloc3vec3VecNtNtB19_6string6StringEEB4_
FNDA:1,_RINvNtCsaLUMl0lvrps_11icarus_core13compatibility18validate_tool_typeNtNtCsiTraAjBDcu4_5alloc6string6StringEB4_
FNDA:1,_RINvNtCsaLUMl0lvrps_11icarus_core13compatibility18validate_tool_typeyEB4_
FNDA:1,_RNvYaNtNtCsaLUMl0lvrps_11icarus_core13compatibility11IcarusParam8validateB7_
FNDA:1,_RNvYaNtNtCsaLUMl0lvrps_11icarus_core13compatibility12IcarusReturn8validateB7_
FNDA:1,_RNvYbNtNtCsaLUMl0lvrps_11icarus_core13compatibility11IcarusParam8validateB7_
FNDA:1,_RNvYbNtNtCsaLUMl0lvrps_11icarus_core13compatibility12IcarusReturn8validateB7_
FNDA:1,_RNvYdNtNtCsaLUMl0lvrps_11icarus_core13compatibility11IcarusParam8validateB7_
FNDA:1,_RNvYdNtNtCsaLUMl0lvrps_11icarus_core13compatibility12IcarusReturn8validateB7_
FNDA:1,_RNvYfNtNtCsaLUMl0lvrps_11icarus_core13compatibility11IcarusParam8validateB7_
FNDA:1,_RNvYfNtNtCsaLUMl0lvrps_11icarus_core13compatibility12IcarusReturn8validateB7_
FNDA:1,_RNvYhNtNtCsaLUMl0lvrps_11icarus_core13compatibility11IcarusParam8validateB7_
FNDA:1,_RNvYhNtNtCsaLUMl0lvrps_11icarus_core13compatibility12IcarusReturn8validateB7_
FNDA:1,_RNvYlNtNtCsaLUMl0lvrps_11icarus_core13compatibility11IcarusParam8validateB7_
FNDA:1,_RNvYlNtNtCsaLUMl0lvrps_11icarus_core13compatibility12IcarusReturn8validateB7_
FNDA:1,_RNvYmNtNtCsaLUMl0lvrps_11icarus_core13compatibility11IcarusParam8validateB7_
FNDA:1,_RNvYmNtNtCsaLUMl0lvrps_11icarus_core13compatibility12IcarusReturn8validateB7_
FNDA:1,_RNvYnNtNtCsaLUMl0lvrps_11icarus_core13compatibility11IcarusParam8validateB7_
FNDA:1,_RNvYnNtNtCsaLUMl0lvrps_11icarus_core13compatibility12IcarusReturn8validateB7_
FNDA:1,_RNvYoNtNtCsaLUMl0lvrps_11icarus_core13compatibility11IcarusParam8validateB7_
FNDA:1,_RNvYoNtNtCsaLUMl0lvrps_11icarus_core13compatibility12IcarusReturn8validateB7_
FNDA:1,_RNvYsNtNtCsaLUMl0lvrps_11icarus_core13compatibility11IcarusParam8validateB7_
FNDA:1,_RNvYsNtNtCsaLUMl0lvrps_11icarus_core13compatibility12IcarusReturn8validateB7_
FNDA:1,_RNvYtNtNtCsaLUMl0lvrps_11icarus_core13compatibility11IcarusParam8validateB7_
FNDA:1,_RNvYtNtNtCsaLUMl0lvrps_11icarus_core13compatibility12IcarusReturn8validateB7_
FNDA:1,_RNvYuNtNtCsaLUMl0lvrps_11icarus_core13compatibility11IcarusParam8validateB7_
FNDA:1,_RNvYuNtNtCsaLUMl0lvrps_11icarus_core13compatibility12IcarusReturn8validateB7_
FNDA:1,_RNvYxNtNtCsaLUMl0lvrps_11icarus_core13compatibility11IcarusParam8validateB7_
FNDA:1,_RNvYxNtNtCsaLUMl0lvrps_11icarus_core13compatibility12IcarusReturn8validateB7_
FNDA:2,_RNvYyNtNtCsaLUMl0lvrps_11icarus_core13compatibility11IcarusParam8validateB7_
FNDA:2,_RNvYyNtNtCsaLUMl0lvrps_11icarus_core13compatibility12IcarusReturn8validateB7_
FNDA:1,_RNvYNtNtCsiTraAjBDcu4_5alloc6string6StringNtNtCsaLUMl0lvrps_11icarus_core13compatibility11IcarusParam8validateBI_
FNDA:2,_RNvYNtNtCsiTraAjBDcu4_5alloc6string6StringNtNtCsaLUMl0lvrps_11icarus_core13compatibility12IcarusReturn8validateBI_
FNDA:1,_RNvYTNtNtCsiTraAjBDcu4_5alloc6string6StringENtNtCsaLUMl0lvrps_11icarus_core13compatibility11IcarusParam8validateBK_
FNDA:1,_RNvYTNtNtCsiTraAjBDcu4_5alloc6string6StringyENtNtCsaLUMl0lvrps_11icarus_core13compatibility11IcarusParam8validateBL_
FNDA:1,_RNvYTNtNtCsiTraAjBDcu4_5alloc6string6StringybENtNtCsaLUMl0lvrps_11icarus_core13compatibility11IcarusParam8validateBM_
FNDA:1,_RNvYTNtNtCsiTraAjBDcu4_5alloc6string6StringybdENtNtCsaLUMl0lvrps_11icarus_core13compatibility11IcarusParam8validateBN_
FNDA:1,_RNvYTNtNtCsiTraAjBDcu4_5alloc6string6StringybdlENtNtCsaLUMl0lvrps_11icarus_core13compatibility11IcarusParam8validateBO_
FNDA:0,_RINvXs0_NvNtNtCsaLUMl0lvrps_11icarus_core13compatibility5testss_38test_custom_types_with_required_traitsNtB6_11CustomParamNtNtCs8Ixg1ZPW7af_6candid5types10CandidType13idl_serializepEBc_
FNDA:0,_RINvXs1_NvNtNtCsaLUMl0lvrps_11icarus_core13compatibility5testss_38test_custom_types_with_required_traitsNtB6_12CustomReturnNtNtCs8Ixg1ZPW7af_6candid5types10CandidType13idl_serializepEBc_
FNDA:0,_RINvXs_NvNtNtCsaLUMl0lvrps_11icarus_core13compatibility5testss_33test_option_validation_delegationNtB5_8TestTypeNtNtCs8Ixg1ZPW7af_6candid5types10CandidType13idl_serializepEBb_
FNF:29
FNH:26
DA:20,31
DA:21,31
DA:22,31
DA:32,18
DA:33,18
DA:34,18
DA:55,4
DA:57,4
DA:58,1
DA:59,3
DA:60,3
DA:61,4
DA:122,4
DA:123,4
DA:124,4
DA:132,5
DA:133,5
DA:134,5
DA:143,6
DA:144,6
DA:145,6
DA:154,4
DA:157,4
DA:158,4
DA:166,1
DA:168,1
DA:169,1
DA:170,1
DA:173,1
DA:174,1
DA:177,1
DA:178,1
DA:179,1
DA:180,1
DA:183,1
DA:185,1
DA:186,1
DA:187,1
DA:190,1
DA:192,1
DA:193,1
DA:194,1
DA:195,1
DA:196,1
DA:199,1
DA:200,1
DA:201,1
DA:202,1
DA:203,1
DA:204,1
DA:207,1
DA:209,1
DA:210,1
DA:211,1
DA:212,1
DA:213,1
DA:216,1
DA:217,1
DA:218,1
DA:219,1
DA:220,1
DA:221,1
DA:224,1
DA:226,1
DA:227,1
DA:230,1
DA:231,1
DA:232,1
DA:235,1
DA:237,1
DA:240,1
DA:243,1
DA:246,1
DA:249,1
DA:252,1
DA:253,1
DA:256,1
DA:258,1
DA:259,1
DA:262,1
DA:263,1
DA:264,1
DA:267,1
DA:269,1
DA:270,1
DA:273,1
DA:274,1
DA:277,1
DA:279,1
DA:280,1
DA:283,1
DA:285,1
DA:286,1
DA:287,1
DA:288,1
DA:289,1
DA:292,1
DA:294,1
DA:295,1
DA:297,1
DA:298,1
DA:299,1
DA:302,1
DA:304,1
DA:305,1
DA:306,1
DA:307,1
DA:308,1
DA:339,1
DA:341,1
DA:342,1
DA:343,1
DA:344,1
DA:357,1
DA:359,1
DA:360,1
DA:361,1
DA:362,1
DA:365,1
DA:367,1
DA:368,1
DA:369,1
DA:370,1
DA:373,1
DA:374,0
DA:382,0
DA:391,1
DA:392,1
DA:393,1
DA:396,1
DA:397,0
DA:401,1
DA:402,1
DA:403,1
DA:407,1
DA:408,1
DA:409,1
DA:410,1
DA:413,1
DA:415,1
DA:416,1
DA:417,1
DA:418,1
BRF:0
BRH:0
LF:143
LH:139
end_of_record
SF:/Users/goshea/projects/icarus/icarus-sdk/crates/icarus-core/src/error.rs
FN:166,_RNvNtNtCsaLUMl0lvrps_11icarus_core5error5testss_21test_tool_error_clone
FN:198,_RNvNtNtCsaLUMl0lvrps_11icarus_core5error5testss_22test_result_type_alias
FN:121,_RNvNtNtCsaLUMl0lvrps_11icarus_core5error5testss_23test_tool_error_helpers
FN:103,_RNvNtNtCsaLUMl0lvrps_11icarus_core5error5testss_25test_icarus_error_display
FN:139,_RNvNtNtCsaLUMl0lvrps_11icarus_core5error5testss_26test_tool_error_conversion
FN:189,_RNvNtNtCsaLUMl0lvrps_11icarus_core5error5testss_27test_error_debug_formatting
FN:149,_RNvNtNtCsaLUMl0lvrps_11icarus_core5error5testss_28test_candid_error_conversion
FN:293,_RNvNtNtCsaLUMl0lvrps_11icarus_core5error5testss_28test_error_chain_propagation
FN:158,_RNvNtNtCsaLUMl0lvrps_11icarus_core5error5testss_29test_tool_error_serialization
FN:173,_RNvNtNtCsaLUMl0lvrps_11icarus_core5error5testss_32test_serde_json_error_conversion
FN:211,_RNvNtNtCsaLUMl0lvrps_11icarus_core5error5testss_33test_tool_error_variants_coverage
FN:237,_RNvNtNtCsaLUMl0lvrps_11icarus_core5error5testss_35test_icarus_error_variants_coverage
FN:265,_RNvNtNtCsaLUMl0lvrps_11icarus_core5error5testss_36test_tool_error_constructor_variants
FN:306,_RNvNtNtCsaLUMl0lvrps_11icarus_core5error5testss_41test_error_equality_through_serialization
FN:152,_RNvNvNtNtCsaLUMl0lvrps_11icarus_core5error5testss_28test_candid_error_conversion23__test_conversion_exists
FN:42,_RNvXNtCsaLUMl0lvrps_11icarus_core5errorNtB2_11IcarusErrorINtNtCsaNl6UpbT7bw_4core7convert4FromNtNtCs8Ixg1ZPW7af_6candid5error5ErrorE4from
FN:73,_RINvMs_NtCsaLUMl0lvrps_11icarus_core5errorNtB5_9ToolError13invalid_inputReEB7_
FN:88,_RINvMs_NtCsaLUMl0lvrps_11icarus_core5errorNtB5_9ToolError16operation_failedNtNtCsiTraAjBDcu4_5alloc6string6StringEB7_
FN:88,_RINvMs_NtCsaLUMl0lvrps_11icarus_core5errorNtB5_9ToolError16operation_failedReEB7_
FN:83,_RINvMs_NtCsaLUMl0lvrps_11icarus_core5errorNtB5_9ToolError17permission_deniedReEB7_
FN:93,_RINvMs_NtCsaLUMl0lvrps_11icarus_core5errorNtB5_9ToolError8internalNtNtCsiTraAjBDcu4_5alloc6string6StringEB7_
FN:93,_RINvMs_NtCsaLUMl0lvrps_11icarus_core5errorNtB5_9ToolError8internalReEB7_
FN:78,_RINvMs_NtCsaLUMl0lvrps_11icarus_core5errorNtB5_9ToolError9not_foundNtNtCsiTraAjBDcu4_5alloc6string6StringEB7_
FN:78,_RINvMs_NtCsaLUMl0lvrps_11icarus_core5errorNtB5_9ToolError9not_foundReEB7_
FNDA:1,_RNvNtNtCsaLUMl0lvrps_11icarus_core5error5testss_21test_tool_error_clone
FNDA:1,_RNvNtNtCsaLUMl0lvrps_11icarus_core5error5testss_22test_result_type_alias
FNDA:1,_RNvNtNtCsaLUMl0lvrps_11icarus_core5error5testss_23test_tool_error_helpers
FNDA:1,_RNvNtNtCsaLUMl0lvrps_11icarus_core5error5testss_25test_icarus_error_display
FNDA:1,_RNvNtNtCsaLUMl0lvrps_11icarus_core5error5testss_26test_tool_error_conversion
FNDA:1,_RNvNtNtCsaLUMl0lvrps_11icarus_core5error5testss_27test_error_debug_formatting
FNDA:1,_RNvNtNtCsaLUMl0lvrps_11icarus_core5error5testss_28test_candid_error_conversion
FNDA:1,_RNvNtNtCsaLUMl0lvrps_11icarus_core5error5testss_28test_error_chain_propagation
FNDA:1,_RNvNtNtCsaLUMl0lvrps_11icarus_core5error5testss_29test_tool_error_serialization
FNDA:1,_RNvNtNtCsaLUMl0lvrps_11icarus_core5error5testss_32test_serde_json_error_conversion
FNDA:1,_RNvNtNtCsaLUMl0lvrps_11icarus_core5error5testss_33test_tool_error_variants_coverage
FNDA:1,_RNvNtNtCsaLUMl0lvrps_11icarus_core5error5testss_35test_icarus_error_variants_coverage
FNDA:1,_RNvNtNtCsaLUMl0lvrps_11icarus_core5error5testss_36test_tool_error_constructor_variants
FNDA:1,_RNvNtNtCsaLUMl0lvrps_11icarus_core5error5testss_41test_error_equality_through_serialization
FNDA:0,_RNvNvNtNtCsaLUMl0lvrps_11icarus_core5error5testss_28test_candid_error_conversion23__test_conversion_exists
FNDA:0,_RNvXNtCsaLUMl0lvrps_11icarus_core5errorNtB2_11IcarusErrorINtNtCsaNl6UpbT7bw_4core7convert4FromNtNtCs8Ixg1ZPW7af_6candid5error5ErrorE4from
FNDA:5,_RINvMs_NtCsaLUMl0lvrps_11icarus_core5errorNtB5_9ToolError13invalid_inputReEB7_
FNDA:1,_RINvMs_NtCsaLUMl0lvrps_11icarus_core5errorNtB5_9ToolError16operation_failedNtNtCsiTraAjBDcu4_5alloc6string6StringEB7_
FNDA:3,_RINvMs_NtCsaLUMl0lvrps_11icarus_core5errorNtB5_9ToolError16operation_failedReEB7_
FNDA:3,_RINvMs_NtCsaLUMl0lvrps_11icarus_core5errorNtB5_9ToolError17permission_deniedReEB7_
FNDA:1,_RINvMs_NtCsaLUMl0lvrps_11icarus_core5errorNtB5_9ToolError8internalNtNtCsiTraAjBDcu4_5alloc6string6StringEB7_
FNDA:1,_RINvMs_NtCsaLUMl0lvrps_11icarus_core5errorNtB5_9ToolError8internalReEB7_
FNDA:1,_RINvMs_NtCsaLUMl0lvrps_11icarus_core5errorNtB5_9ToolError9not_foundNtNtCsiTraAjBDcu4_5alloc6string6StringEB7_
FNDA:2,_RINvMs_NtCsaLUMl0lvrps_11icarus_core5errorNtB5_9ToolError9not_foundReEB7_
FNF:21
FNH:19
DA:42,0
DA:43,0
DA:44,0
DA:73,5
DA:74,5
DA:75,5
DA:78,3
DA:79,3
DA:80,3
DA:83,3
DA:84,3
DA:85,3
DA:88,4
DA:89,4
DA:90,4
DA:93,2
DA:94,2
DA:95,2
DA:103,1
DA:104,1
DA:105,1
DA:107,1
DA:108,1
DA:110,1
DA:111,1
DA:113,1
DA:114,1
DA:116,1
DA:117,1
DA:118,1
DA:121,1
DA:122,1
DA:123,1
DA:125,1
DA:126,1
DA:128,1
DA:129,1
DA:131,1
DA:132,1
DA:134,1
DA:135,1
DA:136,1
DA:139,1
DA:140,1
DA:141,1
DA:142,1
DA:143,1
DA:146,1
DA:149,1
DA:152,0
DA:153,0
DA:154,0
DA:155,1
DA:158,1
DA:159,1
DA:160,1
DA:161,1
DA:162,1
DA:163,1
DA:166,1
DA:167,1
DA:168,1
DA:169,1
DA:170,1
DA:173,1
DA:175,1
DA:176,1
DA:177,1
DA:179,1
DA:180,1
DA:181,1
DA:182,1
DA:184,0
DA:186,1
DA:189,1
DA:190,1
DA:191,1
DA:192,1
DA:193,1
DA:194,1
DA:195,1
DA:198,1
DA:200,1
DA:201,1
DA:203,1
DA:204,1
DA:206,1
DA:207,1
DA:208,1
DA:211,1
DA:213,1
DA:214,1
DA:215,1
DA:216,1
DA:217,1
DA:218,1
DA:221,6
DA:223,5
DA:224,5
DA:227,5
DA:228,5
DA:231,5
DA:232,5
DA:234,1
DA:237,1
DA:239,1
DA:240,1
DA:241,1
DA:243,1
DA:244,1
DA:245,1
DA:246,1
DA:247,1
DA:248,1
DA:249,1
DA:250,1
DA:253,8
DA:255,7
DA:256,7
DA:259,7
DA:260,7
DA:262,1
DA:265,1
DA:267,1
DA:268,1
DA:269,1
DA:272,1
DA:273,1
DA:276,1
DA:277,1
DA:280,1
DA:281,1
DA:284,1
DA:285,1
DA:288,1
DA:289,1
DA:290,1
DA:293,1
DA:295,1
DA:296,1
DA:299,1
DA:300,1
DA:301,1
DA:302,1
DA:303,1
DA:306,1
DA:308,1
DA:309,1
DA:310,1
DA:311,1
DA:312,1
DA:313,1
DA:316,6
DA:317,5
DA:318,5
DA:321,5
DA:322,5
DA:324,1
BRF:0
BRH:0
LF:158
LH:151
end_of_record
SF:/Users/goshea/projects/icarus/icarus-sdk/crates/icarus-core/src/lifecycle.rs
FN:61,_RNvMNtNtCsaLUMl0lvrps_11icarus_core9lifecycle5testsNtB2_10MockServer3new
FN:336,_RNvNtNtCsaLUMl0lvrps_11icarus_core9lifecycle5testss_19test_multiple_calls
FN:156,_RNvNtNtCsaLUMl0lvrps_11icarus_core9lifecycle5testss_21test_mock_server_stop
FN:230,_RNvNtNtCsaLUMl0lvrps_11icarus_core9lifecycle5testss_22test_error_server_stop
FN:176,_RNvNtNtCsaLUMl0lvrps_11icarus_core9lifecycle5testss_23test_lifecycle_sequence
FN:163,_RNvNtNtCsaLUMl0lvrps_11icarus_core9lifecycle5testss_26test_mock_server_heartbeat
FN:239,_RNvNtNtCsaLUMl0lvrps_11icarus_core9lifecycle5testss_27test_error_server_heartbeat
FN:261,_RNvNtNtCsaLUMl0lvrps_11icarus_core9lifecycle5testss_27test_lifecycle_config_clone
FN:275,_RNvNtNtCsaLUMl0lvrps_11icarus_core9lifecycle5testss_27test_lifecycle_config_debug
FN:323,_RNvNtNtCsaLUMl0lvrps_11icarus_core9lifecycle5testss_28test_default_implementations
FN:139,_RNvNtNtCsaLUMl0lvrps_11icarus_core9lifecycle5testss_28test_mock_server_pre_upgrade
FN:378,_RNvNtNtCsaLUMl0lvrps_11icarus_core9lifecycle5testss_29test_async_trait_requirements
FN:212,_RNvNtNtCsaLUMl0lvrps_11icarus_core9lifecycle5testss_29test_error_server_pre_upgrade
FN:146,_RNvNtNtCsaLUMl0lvrps_11icarus_core9lifecycle5testss_29test_mock_server_post_upgrade
FN:221,_RNvNtNtCsaLUMl0lvrps_11icarus_core9lifecycle5testss_30test_error_server_post_upgrade
FN:248,_RNvNtNtCsaLUMl0lvrps_11icarus_core9lifecycle5testss_30test_lifecycle_config_creation
FN:129,_RNvNtNtCsaLUMl0lvrps_11icarus_core9lifecycle5testss_31test_mock_server_initialization
FN:203,_RNvNtNtCsaLUMl0lvrps_11icarus_core9lifecycle5testss_32test_error_server_initialization
FN:364,_RNvNtNtCsaLUMl0lvrps_11icarus_core9lifecycle5testss_32test_immutable_reference_methods
FN:302,_RNvNtNtCsaLUMl0lvrps_11icarus_core9lifecycle5testss_36test_lifecycle_config_extreme_values
FN:289,_RNvNtNtCsaLUMl0lvrps_11icarus_core9lifecycle5testss_40test_lifecycle_config_disabled_heartbeat
FN:123,_RNvXs0_NtNtCsaLUMl0lvrps_11icarus_core9lifecycle5testsNtB5_11ErrorServerNtB7_21IcarusServerLifecycle12on_heartbeat
FN:107,_RNvXs0_NtNtCsaLUMl0lvrps_11icarus_core9lifecycle5testsNtB5_11ErrorServerNtB7_21IcarusServerLifecycle13on_initialize
FN:111,_RNvXs0_NtNtCsaLUMl0lvrps_11icarus_core9lifecycle5testsNtB5_11ErrorServerNtB7_21IcarusServerLifecycle14on_pre_upgrade
FN:115,_RNvXs0_NtNtCsaLUMl0lvrps_11icarus_core9lifecycle5testsNtB5_11ErrorServerNtB7_21IcarusServerLifecycle15on_post_upgrade
FN:119,_RNvXs0_NtNtCsaLUMl0lvrps_11icarus_core9lifecycle5testsNtB5_11ErrorServerNtB7_21IcarusServerLifecycle7on_stop
FN:96,_RNvXs_NtNtCsaLUMl0lvrps_11icarus_core9lifecycle5testsNtB4_10MockServerNtB6_21IcarusServerLifecycle12on_heartbeat
FN:74,_RNvXs_NtNtCsaLUMl0lvrps_11icarus_core9lifecycle5testsNtB4_10MockServerNtB6_21IcarusServerLifecycle13on_initialize
FN:79,_RNvXs_NtNtCsaLUMl0lvrps_11icarus_core9lifecycle5testsNtB4_10MockServerNtB6_21IcarusServerLifecycle14on_pre_upgrade
FN:85,_RNvXs_NtNtCsaLUMl0lvrps_11icarus_core9lifecycle5testsNtB4_10MockServerNtB6_21IcarusServerLifecycle15on_post_upgrade
FN:90,_RNvXs_NtNtCsaLUMl0lvrps_11icarus_core9lifecycle5testsNtB4_10MockServerNtB6_21IcarusServerLifecycle7on_stop
FN:336,_RNCNvNtNtCsaLUMl0lvrps_11icarus_core9lifecycle5testss_19test_multiple_calls0B7_
FN:156,_RNCNvNtNtCsaLUMl0lvrps_11icarus_core9lifecycle5testss_21test_mock_server_stop0B7_
FN:230,_RNCNvNtNtCsaLUMl0lvrps_11icarus_core9lifecycle5testss_22test_error_server_stop0B7_
FN:176,_RNCNvNtNtCsaLUMl0lvrps_11icarus_core9lifecycle5testss_23test_lifecycle_sequence0B7_
FN:163,_RNCNvNtNtCsaLUMl0lvrps_11icarus_core9lifecycle5testss_26test_mock_server_heartbeat0B7_
FN:239,_RNCNvNtNtCsaLUMl0lvrps_11icarus_core9lifecycle5testss_27test_error_server_heartbeat0B7_
FN:323,_RNCNvNtNtCsaLUMl0lvrps_11icarus_core9lifecycle5testss_28test_default_implementations0B7_
FN:139,_RNCNvNtNtCsaLUMl0lvrps_11icarus_core9lifecycle5testss_28test_mock_server_pre_upgrade0B7_
FN:378,_RNCNvNtNtCsaLUMl0lvrps_11icarus_core9lifecycle5testss_29test_async_trait_requirements0B7_
FN:212,_RNCNvNtNtCsaLUMl0lvrps_11icarus_core9lifecycle5testss_29test_error_server_pre_upgrade0B7_
FN:146,_RNCNvNtNtCsaLUMl0lvrps_11icarus_core9lifecycle5testss_29test_mock_server_post_upgrade0B7_
FN:221,_RNCNvNtNtCsaLUMl0lvrps_11icarus_core9lifecycle5testss_30test_error_server_post_upgrade0B7_
FN:129,_RNCNvNtNtCsaLUMl0lvrps_11icarus_core9lifecycle5testss_31test_mock_server_initialization0B7_
FN:203,_RNCNvNtNtCsaLUMl0lvrps_11icarus_core9lifecycle5testss_32test_error_server_initialization0B7_
FN:364,_RNCNvNtNtCsaLUMl0lvrps_11icarus_core9lifecycle5testss_32test_immutable_reference_methods0B7_
FN:30,_RNvYNtNtNtCsaLUMl0lvrps_11icarus_core9lifecycle5tests13DefaultServerNtB6_21IcarusServerLifecycle12on_heartbeatB8_
FN:10,_RNvYNtNtNtCsaLUMl0lvrps_11icarus_core9lifecycle5tests13DefaultServerNtB6_21IcarusServerLifecycle13on_initializeB8_
FN:15,_RNvYNtNtNtCsaLUMl0lvrps_11icarus_core9lifecycle5tests13DefaultServerNtB6_21IcarusServerLifecycle14on_pre_upgradeB8_
FN:20,_RNvYNtNtNtCsaLUMl0lvrps_11icarus_core9lifecycle5tests13DefaultServerNtB6_21IcarusServerLifecycle15on_post_upgradeB8_
FN:25,_RNvYNtNtNtCsaLUMl0lvrps_11icarus_core9lifecycle5tests13DefaultServerNtB6_21IcarusServerLifecycle7on_stopB8_
FNDA:9,_RNvMNtNtCsaLUMl0lvrps_11icarus_core9lifecycle5testsNtB2_10MockServer3new
FNDA:1,_RNvNtNtCsaLUMl0lvrps_11icarus_core9lifecycle5testss_19test_multiple_calls
FNDA:1,_RNvNtNtCsaLUMl0lvrps_11icarus_core9lifecycle5testss_21test_mock_server_stop
FNDA:1,_RNvNtNtCsaLUMl0lvrps_11icarus_core9lifecycle5testss_22test_error_server_stop
FNDA:1,_RNvNtNtCsaLUMl0lvrps_11icarus_core9lifecycle5testss_23test_lifecycle_sequence
FNDA:1,_RNvNtNtCsaLUMl0lvrps_11icarus_core9lifecycle5testss_26test_mock_server_heartbeat
FNDA:1,_RNvNtNtCsaLUMl0lvrps_11icarus_core9lifecycle5testss_27test_error_server_heartbeat
FNDA:1,_RNvNtNtCsaLUMl0lvrps_11icarus_core9lifecycle5testss_27test_lifecycle_config_clone
FNDA:1,_RNvNtNtCsaLUMl0lvrps_11icarus_core9lifecycle5testss_27test_lifecycle_config_debug
FNDA:1,_RNvNtNtCsaLUMl0lvrps_11icarus_core9lifecycle5testss_28test_default_implementations
FNDA:1,_RNvNtNtCsaLUMl0lvrps_11icarus_core9lifecycle5testss_28test_mock_server_pre_upgrade
FNDA:1,_RNvNtNtCsaLUMl0lvrps_11icarus_core9lifecycle5testss_29test_async_trait_requirements
FNDA:1,_RNvNtNtCsaLUMl0lvrps_11icarus_core9lifecycle5testss_29test_error_server_pre_upgrade
FNDA:1,_RNvNtNtCsaLUMl0lvrps_11icarus_core9lifecycle5testss_29test_mock_server_post_upgrade
FNDA:1,_RNvNtNtCsaLUMl0lvrps_11icarus_core9lifecycle5testss_30test_error_server_post_upgrade
FNDA:1,_RNvNtNtCsaLUMl0lvrps_11icarus_core9lifecycle5testss_30test_lifecycle_config_creation
FNDA:1,_RNvNtNtCsaLUMl0lvrps_11icarus_core9lifecycle5testss_31test_mock_server_initialization
FNDA:1,_RNvNtNtCsaLUMl0lvrps_11icarus_core9lifecycle5testss_32test_error_server_initialization
FNDA:1,_RNvNtNtCsaLUMl0lvrps_11icarus_core9lifecycle5testss_32test_immutable_reference_methods
FNDA:1,_RNvNtNtCsaLUMl0lvrps_11icarus_core9lifecycle5testss_36test_lifecycle_config_extreme_values
FNDA:1,_RNvNtNtCsaLUMl0lvrps_11icarus_core9lifecycle5testss_40test_lifecycle_config_disabled_heartbeat
FNDA:1,_RNvXs0_NtNtCsaLUMl0lvrps_11icarus_core9lifecycle5testsNtB5_11ErrorServerNtB7_21IcarusServerLifecycle12on_heartbeat
FNDA:1,_RNvXs0_NtNtCsaLUMl0lvrps_11icarus_core9lifecycle5testsNtB5_11ErrorServerNtB7_21IcarusServerLifecycle13on_initialize
FNDA:1,_RNvXs0_NtNtCsaLUMl0lvrps_11icarus_core9lifecycle5testsNtB5_11ErrorServerNtB7_21IcarusServerLifecycle14on_pre_upgrade
FNDA:1,_RNvXs0_NtNtCsaLUMl0lvrps_11icarus_core9lifecycle5testsNtB5_11ErrorServerNtB7_21IcarusServerLifecycle15on_post_upgrade
FNDA:1,_RNvXs0_NtNtCsaLUMl0lvrps_11icarus_core9lifecycle5testsNtB5_11ErrorServerNtB7_21IcarusServerLifecycle7on_stop
FNDA:18,_RNvXs_NtNtCsaLUMl0lvrps_11icarus_core9lifecycle5testsNtB4_10MockServerNtB6_21IcarusServerLifecycle12on_heartbeat
FNDA:5,_RNvXs_NtNtCsaLUMl0lvrps_11icarus_core9lifecycle5testsNtB4_10MockServerNtB6_21IcarusServerLifecycle13on_initialize
FNDA:6,_RNvXs_NtNtCsaLUMl0lvrps_11icarus_core9lifecycle5testsNtB4_10MockServerNtB6_21IcarusServerLifecycle14on_pre_upgrade
FNDA:4,_RNvXs_NtNtCsaLUMl0lvrps_11icarus_core9lifecycle5testsNtB4_10MockServerNtB6_21IcarusServerLifecycle15on_post_upgrade
FNDA:6,_RNvXs_NtNtCsaLUMl0lvrps_11icarus_core9lifecycle5testsNtB4_10MockServerNtB6_21IcarusServerLifecycle7on_stop
FNDA:1,_RNCNvNtNtCsaLUMl0lvrps_11icarus_core9lifecycle5testss_19test_multiple_calls0B7_
FNDA:1,_RNCNvNtNtCsaLUMl0lvrps_11icarus_core9lifecycle5testss_21test_mock_server_stop0B7_
FNDA:1,_RNCNvNtNtCsaLUMl0lvrps_11icarus_core9lifecycle5testss_22test_error_server_stop0B7_
FNDA:1,_RNCNvNtNtCsaLUMl0lvrps_11icarus_core9lifecycle5testss_23test_lifecycle_sequence0B7_
FNDA:1,_RNCNvNtNtCsaLUMl0lvrps_11icarus_core9lifecycle5testss_26test_mock_server_heartbeat0B7_
FNDA:1,_RNCNvNtNtCsaLUMl0lvrps_11icarus_core9lifecycle5testss_27test_error_server_heartbeat0B7_
FNDA:1,_RNCNvNtNtCsaLUMl0lvrps_11icarus_core9lifecycle5testss_28test_default_implementations0B7_
FNDA:1,_RNCNvNtNtCsaLUMl0lvrps_11icarus_core9lifecycle5testss_28test_mock_server_pre_upgrade0B7_
FNDA:1,_RNCNvNtNtCsaLUMl0lvrps_11icarus_core9lifecycle5testss_29test_async_trait_requirements0B7_
FNDA:1,_RNCNvNtNtCsaLUMl0lvrps_11icarus_core9lifecycle5testss_29test_error_server_pre_upgrade0B7_
FNDA:1,_RNCNvNtNtCsaLUMl0lvrps_11icarus_core9lifecycle5testss_29test_mock_server_post_upgrade0B7_
FNDA:1,_RNCNvNtNtCsaLUMl0lvrps_11icarus_core9lifecycle5testss_30test_error_server_post_upgrade0B7_
FNDA:1,_RNCNvNtNtCsaLUMl0lvrps_11icarus_core9lifecycle5testss_31test_mock_server_initialization0B7_
FNDA:1,_RNCNvNtNtCsaLUMl0lvrps_11icarus_core9lifecycle5testss_32test_error_server_initialization0B7_
FNDA:1,_RNCNvNtNtCsaLUMl0lvrps_11icarus_core9lifecycle5testss_32test_immutable_reference_methods0B7_
FNDA:1,_RNvYNtNtNtCsaLUMl0lvrps_11icarus_core9lifecycle5tests13DefaultServerNtB6_21IcarusServerLifecycle12on_heartbeatB8_
FNDA:1,_RNvYNtNtNtCsaLUMl0lvrps_11icarus_core9lifecycle5tests13DefaultServerNtB6_21IcarusServerLifecycle13on_initializeB8_
FNDA:1,_RNvYNtNtNtCsaLUMl0lvrps_11icarus_core9lifecycle5tests13DefaultServerNtB6_21IcarusServerLifecycle14on_pre_upgradeB8_
FNDA:1,_RNvYNtNtNtCsaLUMl0lvrps_11icarus_core9lifecycle5tests13DefaultServerNtB6_21IcarusServerLifecycle15on_post_upgradeB8_
FNDA:1,_RNvYNtNtNtCsaLUMl0lvrps_11icarus_core9lifecycle5tests13DefaultServerNtB6_21IcarusServerLifecycle7on_stopB8_
FNF:51
FNH:51
DA:10,1
DA:12,1
DA:15,1
DA:17,1
DA:20,1
DA:22,1
DA:25,1
DA:27,1
DA:30,1
DA:32,1
DA:61,9
DA:62,9
DA:63,9
DA:64,9
DA:65,9
DA:66,9
DA:67,9
DA:68,9
DA:69,9
DA:74,5
DA:77,5
DA:79,6
DA:83,6
DA:85,4
DA:88,4
DA:90,6
DA:94,6
DA:96,18
DA:99,18
DA:107,1
DA:109,1
DA:111,1
DA:113,1
DA:115,1
DA:117,1
DA:119,1
DA:121,1
DA:123,1
DA:125,1
DA:129,1
DA:130,1
DA:131,1
DA:133,1
DA:134,1
DA:135,1
DA:136,1
DA:139,1
DA:140,1
DA:141,1
DA:142,1
DA:143,1
DA:146,1
DA:147,1
DA:148,1
DA:150,1
DA:151,1
DA:152,1
DA:153,1
DA:156,1
DA:157,1
DA:158,1
DA:159,1
DA:160,1
DA:163,1
DA:164,1
DA:165,1
DA:168,6
DA:169,5
DA:170,5
DA:171,5
DA:172,1
DA:173,1
DA:176,1
DA:177,1
DA:180,1
DA:181,1
DA:184,1
DA:185,1
DA:188,1
DA:191,1
DA:192,1
DA:195,1
DA:196,1
DA:199,1
DA:200,1
DA:203,1
DA:204,1
DA:205,1
DA:206,1
DA:207,1
DA:208,1
DA:209,1
DA:212,1
DA:213,1
DA:214,1
DA:215,1
DA:216,1
DA:217,1
DA:218,1
DA:221,1
DA:222,1
DA:223,1
DA:224,1
DA:225,1
DA:226,1
DA:227,1
DA:230,1
DA:231,1
DA:232,1
DA:233,1
DA:234,1
DA:235,1
DA:236,1
DA:239,1
DA:240,1
DA:241,1
DA:242,1
DA:243,1
DA:244,1
DA:245,1
DA:248,1
DA:249,1
DA:250,1
DA:251,1
DA:252,1
DA:253,1
DA:255,1
DA:256,1
DA:257,1
DA:258,1
DA:261,1
DA:262,1
DA:263,1
DA:264,1
DA:265,1
DA:266,1
DA:268,1
DA:269,1
DA:270,1
DA:271,1
DA:272,1
DA:275,1
DA:276,1
DA:277,1
DA:278,1
DA:279,1
DA:280,1
DA:282,1
DA:283,1
DA:284,1
DA:285,1
DA:286,1
DA:289,1
DA:290,1
DA:291,1
DA:292,1
DA:293,1
DA:294,1
DA:296,1
DA:297,1
DA:298,1
DA:299,1
DA:302,1
DA:303,1
DA:304,1
DA:305,1
DA:306,1
DA:307,1
DA:309,1
DA:310,1
DA:311,1
DA:312,1
DA:323,1
DA:324,1
DA:327,1
DA:328,1
DA:329,1
DA:330,1
DA:331,1
DA:332,1
DA:336,1
DA:337,1
DA:340,1
DA:341,1
DA:342,1
DA:345,11
DA:346,10
DA:347,10
DA:351,1
DA:352,1
DA:353,1
DA:354,1
DA:355,1
DA:358,1
DA:359,1
DA:360,1
DA:364,1
DA:365,1
DA:368,1
DA:369,1
DA:372,1
DA:373,1
DA:374,1
DA:378,1
DA:379,1
DA:382,1
DA:383,1
DA:384,1
DA:386,1
DA:387,1
DA:388,1
DA:389,1
BRF:0
BRH:0
LF:245
LH:245
end_of_record
SF:/Users/goshea/projects/icarus/icarus-sdk/crates/icarus-core/src/persistent.rs
FN:49,_RINvYpNtNtCsaLUMl0lvrps_11icarus_core10persistent20TypedPersistentState9get_typedpEB8_
FN:33,_RINvYpNtNtCsaLUMl0lvrps_11icarus_core10persistent20TypedPersistentState9set_typedpEB8_
FN:56,_RNCINvYpNtNtCsaLUMl0lvrps_11icarus_core10persistent20TypedPersistentState9get_typedpE0Ba_
FN:41,_RNCINvYpNtNtCsaLUMl0lvrps_11icarus_core10persistent20TypedPersistentState9set_typedpE0Ba_
FN:118,_RNCNCNvXs1_NtCsaLUMl0lvrps_11icarus_core10persistentNtB9_21MemoryPersistentStateNtB9_21IcarusPersistentState4size00Bb_
FN:79,_RNvMs_NtCsaLUMl0lvrps_11icarus_core10persistentNtB4_21MemoryPersistentState3new
FN:87,_RNvXs0_NtCsaLUMl0lvrps_11icarus_core10persistentNtB5_21MemoryPersistentStateNtNtCsaNl6UpbT7bw_4core7default7Default7default
FN:99,_RNvXs1_NtCsaLUMl0lvrps_11icarus_core10persistentNtB5_21MemoryPersistentStateNtB5_21IcarusPersistentState3get
FN:94,_RNvXs1_NtCsaLUMl0lvrps_11icarus_core10persistentNtB5_21MemoryPersistentStateNtB5_21IcarusPersistentState3set
FN:117,_RNvXs1_NtCsaLUMl0lvrps_11icarus_core10persistentNtB5_21MemoryPersistentStateNtB5_21IcarusPersistentState4size
FN:112,_RNvXs1_NtCsaLUMl0lvrps_11icarus_core10persistentNtB5_21MemoryPersistentStateNtB5_21IcarusPersistentState5clear
FN:103,_RNvXs1_NtCsaLUMl0lvrps_11icarus_core10persistentNtB5_21MemoryPersistentStateNtB5_21IcarusPersistentState6delete
FN:108,_RNvXs1_NtCsaLUMl0lvrps_11icarus_core10persistentNtB5_21MemoryPersistentStateNtB5_21IcarusPersistentState9list_keys
FNDA:0,_RINvYpNtNtCsaLUMl0lvrps_11icarus_core10persistent20TypedPersistentState9get_typedpEB8_
FNDA:0,_RINvYpNtNtCsaLUMl0lvrps_11icarus_core10persistent20TypedPersistentState9set_typedpEB8_
FNDA:0,_RNCINvYpNtNtCsaLUMl0lvrps_11icarus_core10persistent20TypedPersistentState9get_typedpE0Ba_
FNDA:0,_RNCINvYpNtNtCsaLUMl0lvrps_11icarus_core10persistent20TypedPersistentState9set_typedpE0Ba_
FNDA:0,_RNCNCNvXs1_NtCsaLUMl0lvrps_11icarus_core10persistentNtB9_21MemoryPersistentStateNtB9_21IcarusPersistentState4size00Bb_
FNDA:0,_RNvMs_NtCsaLUMl0lvrps_11icarus_core10persistentNtB4_21MemoryPersistentState3new
FNDA:0,_RNvXs0_NtCsaLUMl0lvrps_11icarus_core10persistentNtB5_21MemoryPersistentStateNtNtCsaNl6UpbT7bw_4core7default7Default7default
FNDA:0,_RNvXs1_NtCsaLUMl0lvrps_11icarus_core10persistentNtB5_21MemoryPersistentStateNtB5_21IcarusPersistentState3get
FNDA:0,_RNvXs1_NtCsaLUMl0lvrps_11icarus_core10persistentNtB5_21MemoryPersistentStateNtB5_21IcarusPersistentState3set
FNDA:0,_RNvXs1_NtCsaLUMl0lvrps_11icarus_core10persistentNtB5_21MemoryPersistentStateNtB5_21IcarusPersistentState4size
FNDA:0,_RNvXs1_NtCsaLUMl0lvrps_11icarus_core10persistentNtB5_21MemoryPersistentStateNtB5_21IcarusPersistentState5clear
FNDA:0,_RNvXs1_NtCsaLUMl0lvrps_11icarus_core10persistentNtB5_21MemoryPersistentStateNtB5_21IcarusPersistentState6delete
FNDA:0,_RNvXs1_NtCsaLUMl0lvrps_11icarus_core10persistentNtB5_21MemoryPersistentStateNtB5_21IcarusPersistentState9list_keys
FNF:13
FNH:0
DA:33,0
DA:34,0
DA:35,0
DA:36,0
DA:37,0
DA:38,0
DA:39,0
DA:41,0
DA:42,0
DA:43,0
DA:44,0
DA:45,0
DA:46,0
DA:49,0
DA:50,0
DA:51,0
DA:52,0
DA:53,0
DA:54,0
DA:56,0
DA:57,0
DA:58,0
DA:59,0
DA:60,0
DA:61,0
DA:63,0
DA:65,0
DA:66,0
DA:79,0
DA:80,0
DA:81,0
DA:82,0
DA:83,0
DA:87,0
DA:88,0
DA:89,0
DA:94,0
DA:97,0
DA:99,0
DA:101,0
DA:103,0
DA:106,0
DA:108,0
DA:110,0
DA:112,0
DA:115,0
DA:117,0
DA:118,0
DA:120,0
BRF:0
BRH:0
LF:49
LH:0
end_of_record
SF:/Users/goshea/projects/icarus/icarus-sdk/crates/icarus-core/src/protocol.rs
FN:148,_RNvNtNtCsaLUMl0lvrps_11icarus_core8protocol5testss_16test_subnet_type
FN:135,_RNvNtNtCsaLUMl0lvrps_11icarus_core8protocol5testss_20test_canister_config
FN:120,_RNvNtNtCsaLUMl0lvrps_11icarus_core8protocol5testss_23test_parameter_metadata
FN:72,_RNvNtNtCsaLUMl0lvrps_11icarus_core8protocol5testss_27test_tool_metadata_creation
FN:164,_RNvNtNtCsaLUMl0lvrps_11icarus_core8protocol5testss_33test_metadata_with_multiple_tools
FN:96,_RNvNtNtCsaLUMl0lvrps_11icarus_core8protocol5testss_34test_icarus_metadata_serialization
FN:7,_RINvXs0_NtCsaLUMl0lvrps_11icarus_core8protocolNtB6_14IcarusMetadataNtNtCs8Ixg1ZPW7af_6candid5types10CandidType13idl_serializepEB8_
FN:18,_RINvXs3_NtCsaLUMl0lvrps_11icarus_core8protocolNtB6_12ToolMetadataNtNtCs8Ixg1ZPW7af_6candid5types10CandidType13idl_serializepEB8_
FN:33,_RINvXs6_NtCsaLUMl0lvrps_11icarus_core8protocolNtB6_17ParameterMetadataNtNtCs8Ixg1ZPW7af_6candid5types10CandidType13idl_serializepEB8_
FN:46,_RINvXs9_NtCsaLUMl0lvrps_11icarus_core8protocolNtB6_14CanisterConfigNtNtCs8Ixg1ZPW7af_6candid5types10CandidType13idl_serializepEB8_
FN:57,_RINvXsc_NtCsaLUMl0lvrps_11icarus_core8protocolNtB6_10SubnetTypeNtNtCs8Ixg1ZPW7af_6candid5types10CandidType13idl_serializepEB8_
FNDA:1,_RNvNtNtCsaLUMl0lvrps_11icarus_core8protocol5testss_16test_subnet_type
FNDA:1,_RNvNtNtCsaLUMl0lvrps_11icarus_core8protocol5testss_20test_canister_config
FNDA:1,_RNvNtNtCsaLUMl0lvrps_11icarus_core8protocol5testss_23test_parameter_metadata
FNDA:1,_RNvNtNtCsaLUMl0lvrps_11icarus_core8protocol5testss_27test_tool_metadata_creation
FNDA:1,_RNvNtNtCsaLUMl0lvrps_11icarus_core8protocol5testss_33test_metadata_with_multiple_tools
FNDA:1,_RNvNtNtCsaLUMl0lvrps_11icarus_core8protocol5testss_34test_icarus_metadata_serialization
FNDA:0,_RINvXs0_NtCsaLUMl0lvrps_11icarus_core8protocolNtB6_14IcarusMetadataNtNtCs8Ixg1ZPW7af_6candid5types10CandidType13idl_serializepEB8_
FNDA:0,_RINvXs3_NtCsaLUMl0lvrps_11icarus_core8protocolNtB6_12ToolMetadataNtNtCs8Ixg1ZPW7af_6candid5types10CandidType13idl_serializepEB8_
FNDA:0,_RINvXs6_NtCsaLUMl0lvrps_11icarus_core8protocolNtB6_17ParameterMetadataNtNtCs8Ixg1ZPW7af_6candid5types10CandidType13idl_serializepEB8_
FNDA:0,_RINvXs9_NtCsaLUMl0lvrps_11icarus_core8protocolNtB6_14CanisterConfigNtNtCs8Ixg1ZPW7af_6candid5types10CandidType13idl_serializepEB8_
FNDA:0,_RINvXsc_NtCsaLUMl0lvrps_11icarus_core8protocolNtB6_10SubnetTypeNtNtCs8Ixg1ZPW7af_6candid5types10CandidType13idl_serializepEB8_
FNF:11
FNH:6
DA:7,0
DA:18,0
DA:33,0
DA:46,0
DA:57,0
DA:72,1
DA:73,1
DA:74,1
DA:75,1
DA:76,1
DA:77,1
DA:78,1
DA:80,1
DA:81,1
DA:82,1
DA:83,1
DA:84,1
DA:85,1
DA:86,1
DA:88,1
DA:89,1
DA:90,1
DA:91,1
DA:92,1
DA:93,1
DA:96,1
DA:97,1
DA:98,1
DA:99,1
DA:100,1
DA:101,1
DA:102,1
DA:103,1
DA:104,1
DA:105,1
DA:106,1
DA:107,1
DA:110,1
DA:111,1
DA:113,1
DA:114,1
DA:115,1
DA:116,1
DA:117,1
DA:120,1
DA:121,1
DA:122,1
DA:123,1
DA:124,1
DA:125,1
DA:126,1
DA:128,1
DA:129,1
DA:130,1
DA:131,1
DA:132,1
DA:135,1
DA:136,1
DA:137,1
DA:138,1
DA:139,1
DA:140,1
DA:142,1
DA:143,1
DA:144,1
DA:145,1
DA:148,1
DA:149,1
DA:150,1
DA:151,1
DA:154,1
DA:155,1
DA:156,1
DA:159,1
DA:160,1
DA:161,1
DA:164,1
DA:165,1
DA:166,1
DA:167,1
DA:168,1
DA:169,1
DA:170,1
DA:171,1
DA:172,1
DA:173,1
DA:174,1
DA:175,1
DA:176,1
DA:177,1
DA:178,1
DA:179,1
DA:180,1
DA:181,1
DA:182,1
DA:183,1
DA:184,1
DA:187,1
DA:188,1
DA:189,1
DA:190,1
DA:191,1
DA:193,1
DA:194,1
DA:195,1
DA:196,1
DA:197,1
BRF:0
BRH:0
LF:107
LH:102
end_of_record
SF:/Users/goshea/projects/icarus/icarus-sdk/crates/icarus-core/src/registry.rs
FN:225,_RNCNvNtNtCsaLUMl0lvrps_11icarus_core8registry5testss_13test_get_tool0B7_
FN:160,_RNCNvNtNtCsaLUMl0lvrps_11icarus_core8registry5testss_18test_register_tool0B7_
FN:202,_RNCNvNtNtCsaLUMl0lvrps_11icarus_core8registry5testss_20test_unregister_tool0B7_
FN:245,_RNCNvNtNtCsaLUMl0lvrps_11icarus_core8registry5testss_21test_list_tools_empty0B7_
FN:271,_RNCNvNtNtCsaLUMl0lvrps_11icarus_core8registry5testss_23test_registry_lifecycle0B7_
FN:237,_RNCNvNtNtCsaLUMl0lvrps_11icarus_core8registry5testss_25test_get_nonexistent_tool0B7_
FN:253,_RNCNvNtNtCsaLUMl0lvrps_11icarus_core8registry5testss_25test_list_tools_populated0B7_
FN:355,_RNCNvNtNtCsaLUMl0lvrps_11icarus_core8registry5testss_25test_rmcp_tool_conversion0B7_
FN:308,_RNCNvNtNtCsaLUMl0lvrps_11icarus_core8registry5testss_27test_tool_info_preservation0B7_
FN:170,_RNCNvNtNtCsaLUMl0lvrps_11icarus_core8registry5testss_28test_register_multiple_tools0B7_
FN:215,_RNCNvNtNtCsaLUMl0lvrps_11icarus_core8registry5testss_32test_unregister_nonexistent_tool0B7_
FN:326,_RNCNvNtNtCsaLUMl0lvrps_11icarus_core8registry5testss_35test_storage_requirements_preserved0B7_
FN:185,_RNCNvNtNtCsaLUMl0lvrps_11icarus_core8registry5testss_39test_register_duplicate_tool_overwrites0B7_
FN:31,_RNvMNtCsaLUMl0lvrps_11icarus_core8registryNtB2_19DefaultToolRegistry3new
FN:61,_RNvXs0_NtCsaLUMl0lvrps_11icarus_core8registryNtB5_19DefaultToolRegistryNtB5_18IcarusToolRegistry10list_tools
FN:46,_RNvXs0_NtCsaLUMl0lvrps_11icarus_core8registryNtB5_19DefaultToolRegistryNtB5_18IcarusToolRegistry13register_tool
FN:52,_RNvXs0_NtCsaLUMl0lvrps_11icarus_core8registryNtB5_19DefaultToolRegistryNtB5_18IcarusToolRegistry15unregister_tool
FN:57,_RNvXs0_NtCsaLUMl0lvrps_11icarus_core8registryNtB5_19DefaultToolRegistryNtB5_18IcarusToolRegistry8get_tool
FN:39,_RNvXs_NtCsaLUMl0lvrps_11icarus_core8registryNtB4_19DefaultToolRegistryNtNtCsaNl6UpbT7bw_4core7default7Default7default
FN:58,_RNCNCNvXs0_NtCsaLUMl0lvrps_11icarus_core8registryNtB9_19DefaultToolRegistryNtB9_18IcarusToolRegistry8get_tool00Bb_
FN:80,_RNvMNtNtCsaLUMl0lvrps_11icarus_core8registry5testsNtB2_8MockTool3new
FN:225,_RNvNtNtCsaLUMl0lvrps_11icarus_core8registry5testss_13test_get_tool
FN:154,_RNvNtNtCsaLUMl0lvrps_11icarus_core8registry5testss_17test_new_registry
FN:160,_RNvNtNtCsaLUMl0lvrps_11icarus_core8registry5testss_18test_register_tool
FN:202,_RNvNtNtCsaLUMl0lvrps_11icarus_core8registry5testss_20test_unregister_tool
FN:148,_RNvNtNtCsaLUMl0lvrps_11icarus_core8registry5testss_21test_default_registry
FN:245,_RNvNtNtCsaLUMl0lvrps_11icarus_core8registry5testss_21test_list_tools_empty
FN:271,_RNvNtNtCsaLUMl0lvrps_11icarus_core8registry5testss_23test_registry_lifecycle
FN:237,_RNvNtNtCsaLUMl0lvrps_11icarus_core8registry5testss_25test_get_nonexistent_tool
FN:253,_RNvNtNtCsaLUMl0lvrps_11icarus_core8registry5testss_25test_list_tools_populated
FN:355,_RNvNtNtCsaLUMl0lvrps_11icarus_core8registry5testss_25test_rmcp_tool_conversion
FN:308,_RNvNtNtCsaLUMl0lvrps_11icarus_core8registry5testss_27test_tool_info_preservation
FN:170,_RNvNtNtCsaLUMl0lvrps_11icarus_core8registry5testss_28test_register_multiple_tools
FN:215,_RNvNtNtCsaLUMl0lvrps_11icarus_core8registry5testss_32test_unregister_nonexistent_tool
FN:326,_RNvNtNtCsaLUMl0lvrps_11icarus_core8registry5testss_35test_storage_requirements_preserved
FN:185,_RNvNtNtCsaLUMl0lvrps_11icarus_core8registry5testss_39test_register_duplicate_tool_overwrites
FN:121,_RNvXs_NtNtCsaLUMl0lvrps_11icarus_core8registry5testsNtB4_8MockToolNtNtB8_4tool10IcarusTool20storage_requirements
FN:117,_RNvXs_NtNtCsaLUMl0lvrps_11icarus_core8registry5testsNtB4_8MockToolNtNtB8_4tool10IcarusTool23requires_stable_storage
FN:99,_RNvXs_NtNtCsaLUMl0lvrps_11icarus_core8registry5testsNtB4_8MockToolNtNtB8_4tool10IcarusTool4info
FN:132,_RNvXs_NtNtCsaLUMl0lvrps_11icarus_core8registry5testsNtB4_8MockToolNtNtB8_4tool10IcarusTool7execute
FN:88,_RNvMNtNtCsaLUMl0lvrps_11icarus_core8registry5testsNtB2_8MockTool11new_failing
FNDA:1,_RNCNvNtNtCsaLUMl0lvrps_11icarus_core8registry5testss_13test_get_tool0B7_
FNDA:1,_RNCNvNtNtCsaLUMl0lvrps_11icarus_core8registry5testss_18test_register_tool0B7_
FNDA:1,_RNCNvNtNtCsaLUMl0lvrps_11icarus_core8registry5testss_20test_unregister_tool0B7_
FNDA:1,_RNCNvNtNtCsaLUMl0lvrps_11icarus_core8registry5testss_21test_list_tools_empty0B7_
FNDA:1,_RNCNvNtNtCsaLUMl0lvrps_11icarus_core8registry5testss_23test_registry_lifecycle0B7_
FNDA:1,_RNCNvNtNtCsaLUMl0lvrps_11icarus_core8registry5testss_25test_get_nonexistent_tool0B7_
FNDA:1,_RNCNvNtNtCsaLUMl0lvrps_11icarus_core8registry5testss_25test_list_tools_populated0B7_
FNDA:1,_RNCNvNtNtCsaLUMl0lvrps_11icarus_core8registry5testss_25test_rmcp_tool_conversion0B7_
FNDA:1,_RNCNvNtNtCsaLUMl0lvrps_11icarus_core8registry5testss_27test_tool_info_preservation0B7_
FNDA:1,_RNCNvNtNtCsaLUMl0lvrps_11icarus_core8registry5testss_28test_register_multiple_tools0B7_
FNDA:1,_RNCNvNtNtCsaLUMl0lvrps_11icarus_core8registry5testss_32test_unregister_nonexistent_tool0B7_
FNDA:1,_RNCNvNtNtCsaLUMl0lvrps_11icarus_core8registry5testss_35test_storage_requirements_preserved0B7_
FNDA:1,_RNCNvNtNtCsaLUMl0lvrps_11icarus_core8registry5testss_39test_register_duplicate_tool_overwrites0B7_
FNDA:15,_RNvMNtCsaLUMl0lvrps_11icarus_core8registryNtB2_19DefaultToolRegistry3new
FNDA:6,_RNvXs0_NtCsaLUMl0lvrps_11icarus_core8registryNtB5_19DefaultToolRegistryNtB5_18IcarusToolRegistry10list_tools
FNDA:17,_RNvXs0_NtCsaLUMl0lvrps_11icarus_core8registryNtB5_19DefaultToolRegistryNtB5_18IcarusToolRegistry13register_tool
FNDA:4,_RNvXs0_NtCsaLUMl0lvrps_11icarus_core8registryNtB5_19DefaultToolRegistryNtB5_18IcarusToolRegistry15unregister_tool
FNDA:9,_RNvXs0_NtCsaLUMl0lvrps_11icarus_core8registryNtB5_19DefaultToolRegistryNtB5_18IcarusToolRegistry8get_tool
FNDA:1,_RNvXs_NtCsaLUMl0lvrps_11icarus_core8registryNtB4_19DefaultToolRegistryNtNtCsaNl6UpbT7bw_4core7default7Default7default
FNDA:8,_RNCNCNvXs0_NtCsaLUMl0lvrps_11icarus_core8registryNtB9_19DefaultToolRegistryNtB9_18IcarusToolRegistry8get_tool00Bb_
FNDA:17,_RNvMNtNtCsaLUMl0lvrps_11icarus_core8registry5testsNtB2_8MockTool3new
FNDA:1,_RNvNtNtCsaLUMl0lvrps_11icarus_core8registry5testss_13test_get_tool
FNDA:1,_RNvNtNtCsaLUMl0lvrps_11icarus_core8registry5testss_17test_new_registry
FNDA:1,_RNvNtNtCsaLUMl0lvrps_11icarus_core8registry5testss_18test_register_tool
FNDA:1,_RNvNtNtCsaLUMl0lvrps_11icarus_core8registry5testss_20test_unregister_tool
FNDA:1,_RNvNtNtCsaLUMl0lvrps_11icarus_core8registry5testss_21test_default_registry
FNDA:1,_RNvNtNtCsaLUMl0lvrps_11icarus_core8registry5testss_21test_list_tools_empty
FNDA:1,_RNvNtNtCsaLUMl0lvrps_11icarus_core8registry5testss_23test_registry_lifecycle
FNDA:1,_RNvNtNtCsaLUMl0lvrps_11icarus_core8registry5testss_25test_get_nonexistent_tool
FNDA:1,_RNvNtNtCsaLUMl0lvrps_11icarus_core8registry5testss_25test_list_tools_populated
FNDA:1,_RNvNtNtCsaLUMl0lvrps_11icarus_core8registry5testss_25test_rmcp_tool_conversion
FNDA:1,_RNvNtNtCsaLUMl0lvrps_11icarus_core8registry5testss_27test_tool_info_preservation
FNDA:1,_RNvNtNtCsaLUMl0lvrps_11icarus_core8registry5testss_28test_register_multiple_tools
FNDA:1,_RNvNtNtCsaLUMl0lvrps_11icarus_core8registry5testss_32test_unregister_nonexistent_tool
FNDA:1,_RNvNtNtCsaLUMl0lvrps_11icarus_core8registry5testss_35test_storage_requirements_preserved
FNDA:1,_RNvNtNtCsaLUMl0lvrps_11icarus_core8registry5testss_39test_register_duplicate_tool_overwrites
FNDA:2,_RNvXs_NtNtCsaLUMl0lvrps_11icarus_core8registry5testsNtB4_8MockToolNtNtB8_4tool10IcarusTool20storage_requirements
FNDA:4,_RNvXs_NtNtCsaLUMl0lvrps_11icarus_core8registry5testsNtB4_8MockToolNtNtB8_4tool10IcarusTool23requires_stable_storage
FNDA:23,_RNvXs_NtNtCsaLUMl0lvrps_11icarus_core8registry5testsNtB4_8MockToolNtNtB8_4tool10IcarusTool4info
FNDA:0,_RNvXs_NtNtCsaLUMl0lvrps_11icarus_core8registry5testsNtB4_8MockToolNtNtB8_4tool10IcarusTool7execute
FNDA:0,_RNvMNtNtCsaLUMl0lvrps_11icarus_core8registry5testsNtB2_8MockTool11new_failing
FNF:41
FNH:39
DA:31,15
DA:32,15
DA:33,15
DA:34,15
DA:35,15
DA:39,1
DA:40,1
DA:41,1
DA:46,17
DA:50,17
DA:52,4
DA:55,4
DA:57,9
DA:58,8
DA:59,9
DA:61,6
DA:63,6
DA:80,17
DA:81,17
DA:82,17
DA:83,17
DA:84,17
DA:85,17
DA:86,17
DA:88,0
DA:89,0
DA:90,0
DA:91,0
DA:92,0
DA:93,0
DA:94,0
DA:99,23
DA:100,23
DA:101,23
DA:102,23
DA:103,23
DA:104,23
DA:105,23
DA:106,23
DA:107,23
DA:108,23
DA:109,23
DA:110,23
DA:111,23
DA:112,23
DA:113,23
DA:114,23
DA:115,23
DA:117,4
DA:118,4
DA:119,4
DA:121,2
DA:122,2
DA:123,1
DA:124,1
DA:125,1
DA:126,1
DA:128,1
DA:130,2
DA:132,0
DA:144,0
DA:148,1
DA:149,1
DA:150,1
DA:151,1
DA:154,1
DA:155,1
DA:156,1
DA:157,1
DA:160,1
DA:161,1
DA:162,1
DA:164,1
DA:165,1
DA:166,1
DA:167,1
DA:170,1
DA:171,1
DA:173,1
DA:174,1
DA:175,1
DA:177,1
DA:178,1
DA:179,1
DA:181,1
DA:182,1
DA:185,1
DA:186,1
DA:188,1
DA:189,1
DA:191,1
DA:192,1
DA:194,1
DA:195,1
DA:197,1
DA:198,1
DA:199,1
DA:202,1
DA:203,1
DA:204,1
DA:206,1
DA:207,1
DA:209,1
DA:210,1
DA:211,1
DA:212,1
DA:215,1
DA:216,1
DA:219,1
DA:220,1
DA:221,1
DA:222,1
DA:225,1
DA:226,1
DA:227,1
DA:229,1
DA:231,1
DA:232,1
DA:233,1
DA:234,1
DA:237,1
DA:238,1
DA:240,1
DA:241,1
DA:242,1
DA:245,1
DA:246,1
DA:248,1
DA:249,1
DA:250,1
DA:253,1
DA:254,1
DA:256,1
DA:257,1
DA:258,1
DA:260,1
DA:261,1
DA:262,1
DA:264,1
DA:265,1
DA:267,1
DA:268,1
DA:271,1
DA:272,1
DA:275,1
DA:276,1
DA:279,1
DA:280,1
DA:281,1
DA:282,1
DA:283,1
DA:284,1
DA:285,1
DA:286,1
DA:288,1
DA:291,1
DA:292,1
DA:295,1
DA:296,1
DA:299,1
DA:300,1
DA:303,1
DA:304,1
DA:305,1
DA:308,1
DA:309,1
DA:310,1
DA:312,1
DA:314,1
DA:315,1
DA:317,1
DA:318,1
DA:319,1
DA:320,1
DA:321,1
DA:322,1
DA:323,1
DA:326,1
DA:327,1
DA:330,1
DA:332,1
DA:334,1
DA:335,1
DA:337,1
DA:338,1
DA:340,1
DA:341,1
DA:343,1
DA:344,1
DA:346,1
DA:347,1
DA:348,1
DA:350,1
DA:351,1
DA:352,1
DA:355,1
DA:356,1
DA:357,1
DA:359,1
DA:361,1
DA:362,1
DA:364,1
DA:365,1
DA:366,1
DA:367,1
DA:368,1
BRF:0
BRH:0
LF:232
LH:223
end_of_record
SF:/Users/goshea/projects/icarus/icarus-sdk/crates/icarus-core/src/response.rs
FN:30,_RINvMNtCsaLUMl0lvrps_11icarus_core8responseNtB3_11ToolSuccess12with_messageReEB5_
FN:71,_RINvMs0_NtCsaLUMl0lvrps_11icarus_core8responseNtB6_10ToolStatus5errorReEB8_
FN:62,_RINvMs0_NtCsaLUMl0lvrps_11icarus_core8responseNtB6_10ToolStatus7successReEB8_
FN:87,_RINvNtCsaLUMl0lvrps_11icarus_core8response12tool_successNtNvNtB2_5testss_24test_tool_success_helper8TestDataEB4_
FN:93,_RINvNtCsaLUMl0lvrps_11icarus_core8response7tool_okReEB4_
FN:89,_RNCINvNtCsaLUMl0lvrps_11icarus_core8response12tool_successNtNvNtB4_5testss_24test_tool_success_helper8TestDataE0B6_
FN:22,_RNvMNtCsaLUMl0lvrps_11icarus_core8responseINtB2_11ToolSuccessNtNvNtB2_5testss_29test_tool_success_with_struct10CustomDataE3newB4_
FN:22,_RNvMNtCsaLUMl0lvrps_11icarus_core8responseNtB2_11ToolSuccess3newB4_
FN:207,_RNvNtNtCsaLUMl0lvrps_11icarus_core8response5testss_19test_tool_ok_helper
FN:108,_RNvNtNtCsaLUMl0lvrps_11icarus_core8response5testss_21test_tool_success_new
FN:160,_RNvNtNtCsaLUMl0lvrps_11icarus_core8response5testss_22test_tool_status_error
FN:126,_RNvNtNtCsaLUMl0lvrps_11icarus_core8response5testss_23test_tool_success_empty
FN:151,_RNvNtNtCsaLUMl0lvrps_11icarus_core8response5testss_24test_tool_status_success
FN:189,_RNvNtNtCsaLUMl0lvrps_11icarus_core8response5testss_24test_tool_success_helper
FN:169,_RNvNtNtCsaLUMl0lvrps_11icarus_core8response5testss_29test_tool_status_with_details
FN:214,_RNvNtNtCsaLUMl0lvrps_11icarus_core8response5testss_29test_tool_success_with_struct
FN:179,_RNvNtNtCsaLUMl0lvrps_11icarus_core8response5testss_30test_tool_status_serialization
FN:117,_RNvNtNtCsaLUMl0lvrps_11icarus_core8response5testss_30test_tool_success_with_message
FN:133,_RNvNtNtCsaLUMl0lvrps_11icarus_core8response5testss_31test_tool_success_serialization
FN:142,_RNvNtNtCsaLUMl0lvrps_11icarus_core8response5testss_42test_tool_success_no_message_serialization
FN:80,_RNvMs0_NtCsaLUMl0lvrps_11icarus_core8responseNtB5_10ToolStatus12with_details
FN:38,_RNvMs_NtCsaLUMl0lvrps_11icarus_core8responseNtB4_11ToolSuccess5empty
FNDA:2,_RINvMNtCsaLUMl0lvrps_11icarus_core8responseNtB3_11ToolSuccess12with_messageReEB5_
FNDA:2,_RINvMs0_NtCsaLUMl0lvrps_11icarus_core8responseNtB6_10ToolStatus5errorReEB8_
FNDA:2,_RINvMs0_NtCsaLUMl0lvrps_11icarus_core8responseNtB6_10ToolStatus7successReEB8_
FNDA:1,_RINvNtCsaLUMl0lvrps_11icarus_core8response12tool_successNtNvNtB2_5testss_24test_tool_success_helper8TestDataEB4_
FNDA:1,_RINvNtCsaLUMl0lvrps_11icarus_core8response7tool_okReEB4_
FNDA:0,_RNCINvNtCsaLUMl0lvrps_11icarus_core8response12tool_successNtNvNtB4_5testss_24test_tool_success_helper8TestDataE0B6_
FNDA:1,_RNvMNtCsaLUMl0lvrps_11icarus_core8responseINtB2_11ToolSuccessNtNvNtB2_5testss_29test_tool_success_with_struct10CustomDataE3newB4_
FNDA:4,_RNvMNtCsaLUMl0lvrps_11icarus_core8responseNtB2_11ToolSuccess3newB4_
FNDA:1,_RNvNtNtCsaLUMl0lvrps_11icarus_core8response5testss_19test_tool_ok_helper
FNDA:1,_RNvNtNtCsaLUMl0lvrps_11icarus_core8response5testss_21test_tool_success_new
FNDA:1,_RNvNtNtCsaLUMl0lvrps_11icarus_core8response5testss_22test_tool_status_error
FNDA:1,_RNvNtNtCsaLUMl0lvrps_11icarus_core8response5testss_23test_tool_success_empty
FNDA:1,_RNvNtNtCsaLUMl0lvrps_11icarus_core8response5testss_24test_tool_status_success
FNDA:1,_RNvNtNtCsaLUMl0lvrps_11icarus_core8response5testss_24test_tool_success_helper
FNDA:1,_RNvNtNtCsaLUMl0lvrps_11icarus_core8response5testss_29test_tool_status_with_details
FNDA:1,_RNvNtNtCsaLUMl0lvrps_11icarus_core8response5testss_29test_tool_success_with_struct
FNDA:1,_RNvNtNtCsaLUMl0lvrps_11icarus_core8response5testss_30test_tool_status_serialization
FNDA:1,_RNvNtNtCsaLUMl0lvrps_11icarus_core8response5testss_30test_tool_success_with_message
FNDA:1,_RNvNtNtCsaLUMl0lvrps_11icarus_core8response5testss_31test_tool_success_serialization
FNDA:1,_RNvNtNtCsaLUMl0lvrps_11icarus_core8response5testss_42test_tool_success_no_message_serialization
FNDA:2,_RNvMs0_NtCsaLUMl0lvrps_11icarus_core8responseNtB5_10ToolStatus12with_details
FNDA:1,_RNvMs_NtCsaLUMl0lvrps_11icarus_core8responseNtB4_11ToolSuccess5empty
FNF:21
FNH:20
DA:22,5
DA:23,5
DA:24,5
DA:25,5
DA:26,5
DA:27,5
DA:30,2
DA:31,2
DA:32,2
DA:33,2
DA:38,1
DA:39,1
DA:40,1
DA:41,1
DA:42,1
DA:43,1
DA:62,2
DA:63,2
DA:64,2
DA:65,2
DA:66,2
DA:67,2
DA:68,2
DA:71,2
DA:72,2
DA:73,2
DA:74,2
DA:75,2
DA:76,2
DA:77,2
DA:80,2
DA:81,2
DA:82,2
DA:83,2
DA:87,1
DA:88,1
DA:89,1
DA:90,1
DA:93,1
DA:94,1
DA:95,1
DA:96,1
DA:97,1
DA:98,1
DA:108,1
DA:109,1
DA:110,1
DA:112,1
DA:113,1
DA:114,1
DA:117,1
DA:118,1
DA:119,1
DA:121,1
DA:122,1
DA:123,1
DA:126,1
DA:127,1
DA:128,1
DA:129,1
DA:130,1
DA:133,1
DA:134,1
DA:136,1
DA:137,1
DA:138,1
DA:139,1
DA:142,1
DA:143,1
DA:144,1
DA:146,1
DA:147,1
DA:148,1
DA:151,1
DA:152,1
DA:154,1
DA:155,1
DA:156,1
DA:157,1
DA:160,1
DA:161,1
DA:163,1
DA:164,1
DA:165,1
DA:166,1
DA:169,1
DA:170,1
DA:171,1
DA:173,1
DA:174,1
DA:175,1
DA:176,1
DA:179,1
DA:180,1
DA:182,1
DA:183,1
DA:184,1
DA:185,1
DA:186,1
DA:189,1
DA:196,1
DA:197,1
DA:198,1
DA:199,1
DA:201,1
DA:202,1
DA:203,1
DA:204,1
DA:207,1
DA:208,1
DA:209,1
DA:210,1
DA:211,1
DA:214,1
DA:221,1
DA:222,1
DA:223,1
DA:224,1
DA:226,1
DA:227,1
DA:228,1
DA:230,1
DA:231,1
BRF:0
BRH:0
LF:124
LH:123
end_of_record
SF:/Users/goshea/projects/icarus/icarus-sdk/crates/icarus-core/src/server.rs
FN:39,_RNCNvMNtCsaLUMl0lvrps_11icarus_core6serverNtB4_7Version5parse0B6_
FN:43,_RNCNvMNtCsaLUMl0lvrps_11icarus_core6serverNtB4_7Version5parses0_0B6_
FN:41,_RNCNvMNtCsaLUMl0lvrps_11icarus_core6serverNtB4_7Version5parses_0B6_
FN:111,_RNvYpNtNtCsaLUMl0lvrps_11icarus_core6server12IcarusServer11canister_idB7_
FN:101,_RNvYpNtNtCsaLUMl0lvrps_11icarus_core6server12IcarusServer14on_pre_upgradeB7_
FN:106,_RNvYpNtNtCsaLUMl0lvrps_11icarus_core6server12IcarusServer15on_post_upgradeB7_
FN:91,_RNvYpNtNtCsaLUMl0lvrps_11icarus_core6server12IcarusServer16on_canister_initB7_
FN:96,_RNvYpNtNtCsaLUMl0lvrps_11icarus_core6server12IcarusServer19on_canister_upgradeB7_
FN:124,_RNvNtNtCsaLUMl0lvrps_11icarus_core6server5testss_16test_version_new
FN:237,_RNvNtNtCsaLUMl0lvrps_11icarus_core6server5testss_18test_version_clone
FN:247,_RNvNtNtCsaLUMl0lvrps_11icarus_core6server5testss_18test_version_debug
FN:132,_RNvNtNtCsaLUMl0lvrps_11icarus_core6server5testss_20test_version_display
FN:159,_RNvNtNtCsaLUMl0lvrps_11icarus_core6server5testss_21test_version_equality
FN:169,_RNvNtNtCsaLUMl0lvrps_11icarus_core6server5testss_21test_version_ordering
FN:256,_RNvNtNtCsaLUMl0lvrps_11icarus_core6server5testss_23test_version_edge_cases
FN:138,_RNvNtNtCsaLUMl0lvrps_11icarus_core6server5testss_24test_version_parse_valid
FN:189,_RNvNtNtCsaLUMl0lvrps_11icarus_core6server5testss_26test_version_compatibility
FN:213,_RNvNtNtCsaLUMl0lvrps_11icarus_core6server5testss_29test_version_breaking_changes
FN:277,_RNvNtNtCsaLUMl0lvrps_11icarus_core6server5testss_29test_version_parse_edge_cases
FN:144,_RNvNtNtCsaLUMl0lvrps_11icarus_core6server5testss_33test_version_parse_invalid_format
FN:151,_RNvNtNtCsaLUMl0lvrps_11icarus_core6server5testss_34test_version_parse_invalid_numbers
FN:50,_RNvMNtCsaLUMl0lvrps_11icarus_core6serverNtB2_7Version18is_compatible_with
FN:58,_RNvMNtCsaLUMl0lvrps_11icarus_core6serverNtB2_7Version23is_breaking_change_from
FN:23,_RNvMNtCsaLUMl0lvrps_11icarus_core6serverNtB2_7Version3new
FN:32,_RNvMNtCsaLUMl0lvrps_11icarus_core6serverNtB2_7Version5parse
FN:70,_RNvXs0_NtCsaLUMl0lvrps_11icarus_core6serverNtB5_7VersionNtNtCsaNl6UpbT7bw_4core3cmp10PartialOrd11partial_cmp
FN:76,_RNvXs1_NtCsaLUMl0lvrps_11icarus_core6serverNtB5_7VersionNtNtCsaNl6UpbT7bw_4core3cmp3Ord3cmp
FN:64,_RNvXs_NtCsaLUMl0lvrps_11icarus_core6serverNtB4_7VersionNtNtCsaNl6UpbT7bw_4core3fmt7Display3fmt
FNDA:3,_RNCNvMNtCsaLUMl0lvrps_11icarus_core6serverNtB4_7Version5parse0B6_
FNDA:2,_RNCNvMNtCsaLUMl0lvrps_11icarus_core6serverNtB4_7Version5parses0_0B6_
FNDA:2,_RNCNvMNtCsaLUMl0lvrps_11icarus_core6serverNtB4_7Version5parses_0B6_
FNDA:0,_RNvYpNtNtCsaLUMl0lvrps_11icarus_core6server12IcarusServer11canister_idB7_
FNDA:0,_RNvYpNtNtCsaLUMl0lvrps_11icarus_core6server12IcarusServer14on_pre_upgradeB7_
FNDA:0,_RNvYpNtNtCsaLUMl0lvrps_11icarus_core6server12IcarusServer15on_post_upgradeB7_
FNDA:0,_RNvYpNtNtCsaLUMl0lvrps_11icarus_core6server12IcarusServer16on_canister_initB7_
FNDA:0,_RNvYpNtNtCsaLUMl0lvrps_11icarus_core6server12IcarusServer19on_canister_upgradeB7_
FNDA:1,_RNvNtNtCsaLUMl0lvrps_11icarus_core6server5testss_16test_version_new
FNDA:1,_RNvNtNtCsaLUMl0lvrps_11icarus_core6server5testss_18test_version_clone
FNDA:1,_RNvNtNtCsaLUMl0lvrps_11icarus_core6server5testss_18test_version_debug
FNDA:1,_RNvNtNtCsaLUMl0lvrps_11icarus_core6server5testss_20test_version_display
FNDA:1,_RNvNtNtCsaLUMl0lvrps_11icarus_core6server5testss_21test_version_equality
FNDA:1,_RNvNtNtCsaLUMl0lvrps_11icarus_core6server5testss_21test_version_ordering
FNDA:1,_RNvNtNtCsaLUMl0lvrps_11icarus_core6server5testss_23test_version_edge_cases
FNDA:1,_RNvNtNtCsaLUMl0lvrps_11icarus_core6server5testss_24test_version_parse_valid
FNDA:1,_RNvNtNtCsaLUMl0lvrps_11icarus_core6server5testss_26test_version_compatibility
FNDA:1,_RNvNtNtCsaLUMl0lvrps_11icarus_core6server5testss_29test_version_breaking_changes
FNDA:1,_RNvNtNtCsaLUMl0lvrps_11icarus_core6server5testss_29test_version_parse_edge_cases
FNDA:1,_RNvNtNtCsaLUMl0lvrps_11icarus_core6server5testss_33test_version_parse_invalid_format
FNDA:1,_RNvNtNtCsaLUMl0lvrps_11icarus_core6server5testss_34test_version_parse_invalid_numbers
FNDA:10,_RNvMNtCsaLUMl0lvrps_11icarus_core6serverNtB2_7Version18is_compatible_with
FNDA:7,_RNvMNtCsaLUMl0lvrps_11icarus_core6serverNtB2_7Version23is_breaking_change_from
FNDA:29,_RNvMNtCsaLUMl0lvrps_11icarus_core6serverNtB2_7Version3new
FNDA:13,_RNvMNtCsaLUMl0lvrps_11icarus_core6serverNtB2_7Version5parse
FNDA:14,_RNvXs0_NtCsaLUMl0lvrps_11icarus_core6serverNtB5_7VersionNtNtCsaNl6UpbT7bw_4core3cmp10PartialOrd11partial_cmp
FNDA:14,_RNvXs1_NtCsaLUMl0lvrps_11icarus_core6serverNtB5_7VersionNtNtCsaNl6UpbT7bw_4core3cmp3Ord3cmp
FNDA:3,_RNvXs_NtCsaLUMl0lvrps_11icarus_core6serverNtB4_7VersionNtNtCsaNl6UpbT7bw_4core3fmt7Display3fmt
FNF:28
FNH:23
DA:23,29
DA:24,29
DA:25,29
DA:26,29
DA:27,29
DA:28,29
DA:29,29
DA:32,13
DA:33,13
DA:34,13
DA:35,3
DA:36,10
DA:38,10
DA:39,10
DA:40,7
DA:41,7
DA:42,5
DA:43,5
DA:45,3
DA:46,13
DA:50,10
DA:51,10
DA:52,3
DA:53,7
DA:54,7
DA:55,10
DA:58,7
DA:59,7
DA:60,7
DA:64,3
DA:65,3
DA:66,3
DA:70,14
DA:71,14
DA:72,14
DA:76,14
DA:77,14
DA:78,11
DA:79,4
DA:80,7
DA:82,3
DA:84,14
DA:91,0
DA:93,0
DA:96,0
DA:98,0
DA:101,0
DA:103,0
DA:106,0
DA:108,0
DA:111,0
DA:112,0
DA:113,0
DA:124,1
DA:125,1
DA:126,1
DA:127,1
DA:128,1
DA:129,1
DA:132,1
DA:133,1
DA:134,1
DA:135,1
DA:138,1
DA:139,1
DA:140,1
DA:141,1
DA:144,1
DA:145,1
DA:146,1
DA:147,1
DA:148,1
DA:151,1
DA:152,1
DA:153,1
DA:154,1
DA:155,1
DA:156,1
DA:159,1
DA:160,1
DA:161,1
DA:162,1
DA:164,1
DA:165,1
DA:166,1
DA:169,1
DA:170,1
DA:171,1
DA:172,1
DA:173,1
DA:176,1
DA:177,1
DA:180,1
DA:181,1
DA:184,1
DA:185,1
DA:186,1
DA:189,1
DA:190,1
DA:191,1
DA:192,1
DA:193,1
DA:196,1
DA:197,1
DA:198,1
DA:201,1
DA:204,1
DA:205,1
DA:208,1
DA:209,1
DA:210,1
DA:213,1
DA:214,1
DA:215,1
DA:216,1
DA:217,1
DA:218,1
DA:221,1
DA:222,1
DA:223,1
DA:226,1
DA:227,1
DA:230,1
DA:233,1
DA:234,1
DA:237,1
DA:238,1
DA:239,1
DA:240,1
DA:241,1
DA:242,1
DA:243,1
DA:244,1
DA:247,1
DA:248,1
DA:249,1
DA:250,1
DA:251,1
DA:252,1
DA:253,1
DA:256,1
DA:258,1
DA:259,1
DA:262,1
DA:263,1
DA:266,1
DA:269,1
DA:272,1
DA:273,1
DA:274,1
DA:277,1
DA:279,1
DA:280,1
DA:283,1
DA:284,1
DA:285,1
DA:286,1
BRF:0
BRH:0
LF:160
LH:149
end_of_record
SF:/Users/goshea/projects/icarus/icarus-sdk/crates/icarus-core/src/session.rs
FN:208,_RINvMs0_NtCsaLUMl0lvrps_11icarus_core7sessionNtB6_14SessionContext12get_metadataINtNtCsiTraAjBDcu4_5alloc3vec3VecNtNtB1l_6string6StringEEB8_
FN:208,_RINvMs0_NtCsaLUMl0lvrps_11icarus_core7sessionNtB6_14SessionContext12get_metadataNtNtCs5wLgFgtV6z4_10serde_json5value5ValueEB8_
FN:208,_RINvMs0_NtCsaLUMl0lvrps_11icarus_core7sessionNtB6_14SessionContext12get_metadataNtNtCsiTraAjBDcu4_5alloc6string6StringEB8_
FN:208,_RINvMs0_NtCsaLUMl0lvrps_11icarus_core7sessionNtB6_14SessionContext12get_metadatabEB8_
FN:208,_RINvMs0_NtCsaLUMl0lvrps_11icarus_core7sessionNtB6_14SessionContext12get_metadatalEB8_
FN:216,_RINvMs0_NtCsaLUMl0lvrps_11icarus_core7sessionNtB6_14SessionContext12set_metadataNtNtCs5wLgFgtV6z4_10serde_json5value5ValueEB8_
FN:216,_RINvMs0_NtCsaLUMl0lvrps_11icarus_core7sessionNtB6_14SessionContext12set_metadataReEB8_
FN:216,_RINvMs0_NtCsaLUMl0lvrps_11icarus_core7sessionNtB6_14SessionContext12set_metadatabEB8_
FN:216,_RINvMs0_NtCsaLUMl0lvrps_11icarus_core7sessionNtB6_14SessionContext12set_metadatalEB8_
FN:212,_RNCINvMs0_NtCsaLUMl0lvrps_11icarus_core7sessionNtB8_14SessionContext12get_metadataINtNtCsiTraAjBDcu4_5alloc3vec3VecNtNtB1n_6string6StringEE0Ba_
FN:212,_RNCINvMs0_NtCsaLUMl0lvrps_11icarus_core7sessionNtB8_14SessionContext12get_metadataNtNtCs5wLgFgtV6z4_10serde_json5value5ValueE0Ba_
FN:212,_RNCINvMs0_NtCsaLUMl0lvrps_11icarus_core7sessionNtB8_14SessionContext12get_metadataNtNtCsiTraAjBDcu4_5alloc6string6StringE0Ba_
FN:212,_RNCINvMs0_NtCsaLUMl0lvrps_11icarus_core7sessionNtB8_14SessionContext12get_metadatabE0Ba_
FN:212,_RNCINvMs0_NtCsaLUMl0lvrps_11icarus_core7sessionNtB8_14SessionContext12get_metadatalE0Ba_
FN:169,_RNCNCNvXs5_NtCsaLUMl0lvrps_11icarus_core7sessionNtB9_20MemorySessionManagerNtB9_14SessionManager15cleanup_expired00Bb_
FN:170,_RNCNCNvXs5_NtCsaLUMl0lvrps_11icarus_core7sessionNtB9_20MemorySessionManagerNtB9_14SessionManager15cleanup_expired0s_0Bb_
FN:99,_RNCNvMs_NtCsaLUMl0lvrps_11icarus_core7sessionNtB6_20MemorySessionManager8get_time0B8_
FN:231,_RNvMNtNtCsaLUMl0lvrps_11icarus_core7session5testsNtB4_20MemorySessionManager13set_mock_time
FN:200,_RNvMs0_NtCsaLUMl0lvrps_11icarus_core7sessionNtB5_14SessionContext3new
FN:112,_RNvMs_NtCsaLUMl0lvrps_11icarus_core7sessionNtB4_20MemorySessionManager19generate_session_id
FN:89,_RNvMs_NtCsaLUMl0lvrps_11icarus_core7sessionNtB4_20MemorySessionManager3new
FN:98,_RNvMs_NtCsaLUMl0lvrps_11icarus_core7sessionNtB4_20MemorySessionManager8get_time
FN:70,_RNvXNtCsaLUMl0lvrps_11icarus_core7sessionNtB2_13SessionConfigNtNtCsaNl6UpbT7bw_4core7default7Default7default
FN:139,_RNvXs5_NtCsaLUMl0lvrps_11icarus_core7sessionNtB5_20MemorySessionManagerNtB5_14SessionManager11get_session
FN:182,_RNvXs5_NtCsaLUMl0lvrps_11icarus_core7sessionNtB5_20MemorySessionManagerNtB5_14SessionManager13touch_session
FN:124,_RNvXs5_NtCsaLUMl0lvrps_11icarus_core7sessionNtB5_20MemorySessionManagerNtB5_14SessionManager14create_session
FN:148,_RNvXs5_NtCsaLUMl0lvrps_11icarus_core7sessionNtB5_20MemorySessionManagerNtB5_14SessionManager14delete_session
FN:143,_RNvXs5_NtCsaLUMl0lvrps_11icarus_core7sessionNtB5_20MemorySessionManagerNtB5_14SessionManager14update_session
FN:162,_RNvXs5_NtCsaLUMl0lvrps_11icarus_core7sessionNtB5_20MemorySessionManagerNtB5_14SessionManager15cleanup_expired
FN:153,_RNvXs5_NtCsaLUMl0lvrps_11icarus_core7sessionNtB5_20MemorySessionManagerNtB5_14SessionManager20list_active_sessions
FN:465,_RNCNvNtNtCsaLUMl0lvrps_11icarus_core7session5testss_18test_touch_session0B7_
FN:364,_RNCNvNtNtCsaLUMl0lvrps_11icarus_core7session5testss_19test_update_session0B7_
FN:626,_RNCNvNtNtCsaLUMl0lvrps_11icarus_core7session5testss_23test_session_edge_cases0B7_
FN:386,_RNCNvNtNtCsaLUMl0lvrps_11icarus_core7session5testss_28test_get_nonexistent_session0B7_
FN:425,_RNCNvNtNtCsaLUMl0lvrps_11icarus_core7session5testss_29test_cleanup_expired_sessions0B7_
FN:335,_RNCNvNtNtCsaLUMl0lvrps_11icarus_core7session5testss_29test_create_multiple_sessions0B7_
FN:324,_RNCNvNtNtCsaLUMl0lvrps_11icarus_core7session5testss_29test_create_session_anonymous0B7_
FN:487,_RNCNvNtNtCsaLUMl0lvrps_11icarus_core7session5testss_30test_touch_nonexistent_session0B7_
FN:395,_RNCNvNtNtCsaLUMl0lvrps_11icarus_core7session5testss_31test_delete_nonexistent_session0B7_
FN:456,_RNCNvNtNtCsaLUMl0lvrps_11icarus_core7session5testss_32test_cleanup_expired_no_sessions0B7_
FN:405,_RNCNvNtNtCsaLUMl0lvrps_11icarus_core7session5testss_32test_list_active_sessions_filter0B7_
FN:295,_RNCNvNtNtCsaLUMl0lvrps_11icarus_core7session5testss_33test_memory_session_manager_basic0B7_
FN:571,_RNCNvNtNtCsaLUMl0lvrps_11icarus_core7session5testss_42test_session_manager_concurrent_operations0B7_
FN:465,_RNvNtNtCsaLUMl0lvrps_11icarus_core7session5testss_18test_touch_session
FN:364,_RNvNtNtCsaLUMl0lvrps_11icarus_core7session5testss_19test_update_session
FN:626,_RNvNtNtCsaLUMl0lvrps_11icarus_core7session5testss_23test_session_edge_cases
FN:559,_RNvNtNtCsaLUMl0lvrps_11icarus_core7session5testss_26test_session_id_generation
FN:269,_RNvNtNtCsaLUMl0lvrps_11icarus_core7session5testss_26test_session_serialization
FN:242,_RNvNtNtCsaLUMl0lvrps_11icarus_core7session5testss_27test_session_config_default
FN:386,_RNvNtNtCsaLUMl0lvrps_11icarus_core7session5testss_28test_get_nonexistent_session
FN:425,_RNvNtNtCsaLUMl0lvrps_11icarus_core7session5testss_29test_cleanup_expired_sessions
FN:335,_RNvNtNtCsaLUMl0lvrps_11icarus_core7session5testss_29test_create_multiple_sessions
FN:324,_RNvNtNtCsaLUMl0lvrps_11icarus_core7session5testss_29test_create_session_anonymous
FN:497,_RNvNtNtCsaLUMl0lvrps_11icarus_core7session5testss_29test_session_context_creation
FN:516,_RNvNtNtCsaLUMl0lvrps_11icarus_core7session5testss_29test_session_context_metadata
FN:487,_RNvNtNtCsaLUMl0lvrps_11icarus_core7session5testss_30test_touch_nonexistent_session
FN:395,_RNvNtNtCsaLUMl0lvrps_11icarus_core7session5testss_31test_delete_nonexistent_session
FN:456,_RNvNtNtCsaLUMl0lvrps_11icarus_core7session5testss_32test_cleanup_expired_no_sessions
FN:405,_RNvNtNtCsaLUMl0lvrps_11icarus_core7session5testss_32test_list_active_sessions_filter
FN:295,_RNvNtNtCsaLUMl0lvrps_11icarus_core7session5testss_33test_memory_session_manager_basic
FN:251,_RNvNtNtCsaLUMl0lvrps_11icarus_core7session5testss_33test_session_config_serialization
FN:571,_RNvNtNtCsaLUMl0lvrps_11icarus_core7session5testss_42test_session_manager_concurrent_operations
FN:236,_RNvMNtNtCsaLUMl0lvrps_11icarus_core7session5testsNtB4_20MemorySessionManager15clear_mock_time
FN:47,_RNvYpNtNtCsaLUMl0lvrps_11icarus_core7session14SessionManager13touch_sessionB7_
FNDA:1,_RINvMs0_NtCsaLUMl0lvrps_11icarus_core7sessionNtB6_14SessionContext12get_metadataINtNtCsiTraAjBDcu4_5alloc3vec3VecNtNtB1l_6string6StringEEB8_
FNDA:1,_RINvMs0_NtCsaLUMl0lvrps_11icarus_core7sessionNtB6_14SessionContext12get_metadataNtNtCs5wLgFgtV6z4_10serde_json5value5ValueEB8_
FNDA:2,_RINvMs0_NtCsaLUMl0lvrps_11icarus_core7sessionNtB6_14SessionContext12get_metadataNtNtCsiTraAjBDcu4_5alloc6string6StringEB8_
FNDA:1,_RINvMs0_NtCsaLUMl0lvrps_11icarus_core7sessionNtB6_14SessionContext12get_metadatabEB8_
FNDA:1,_RINvMs0_NtCsaLUMl0lvrps_11icarus_core7sessionNtB6_14SessionContext12get_metadatalEB8_
FNDA:1,_RINvMs0_NtCsaLUMl0lvrps_11icarus_core7sessionNtB6_14SessionContext12set_metadataNtNtCs5wLgFgtV6z4_10serde_json5value5ValueEB8_
FNDA:1,_RINvMs0_NtCsaLUMl0lvrps_11icarus_core7sessionNtB6_14SessionContext12set_metadataReEB8_
FNDA:1,_RINvMs0_NtCsaLUMl0lvrps_11icarus_core7sessionNtB6_14SessionContext12set_metadatabEB8_
FNDA:1,_RINvMs0_NtCsaLUMl0lvrps_11icarus_core7sessionNtB6_14SessionContext12set_metadatalEB8_
FNDA:1,_RNCINvMs0_NtCsaLUMl0lvrps_11icarus_core7sessionNtB8_14SessionContext12get_metadataINtNtCsiTraAjBDcu4_5alloc3vec3VecNtNtB1n_6string6StringEE0Ba_
FNDA:1,_RNCINvMs0_NtCsaLUMl0lvrps_11icarus_core7sessionNtB8_14SessionContext12get_metadataNtNtCs5wLgFgtV6z4_10serde_json5value5ValueE0Ba_
FNDA:1,_RNCINvMs0_NtCsaLUMl0lvrps_11icarus_core7sessionNtB8_14SessionContext12get_metadataNtNtCsiTraAjBDcu4_5alloc6string6StringE0Ba_
FNDA:1,_RNCINvMs0_NtCsaLUMl0lvrps_11icarus_core7sessionNtB8_14SessionContext12get_metadatabE0Ba_
FNDA:1,_RNCINvMs0_NtCsaLUMl0lvrps_11icarus_core7sessionNtB8_14SessionContext12get_metadatalE0Ba_
FNDA:3,_RNCNCNvXs5_NtCsaLUMl0lvrps_11icarus_core7sessionNtB9_20MemorySessionManagerNtB9_14SessionManager15cleanup_expired00Bb_
FNDA:2,_RNCNCNvXs5_NtCsaLUMl0lvrps_11icarus_core7sessionNtB9_20MemorySessionManagerNtB9_14SessionManager15cleanup_expired0s_0Bb_
FNDA:22,_RNCNvMs_NtCsaLUMl0lvrps_11icarus_core7sessionNtB6_20MemorySessionManager8get_time0B8_
FNDA:6,_RNvMNtNtCsaLUMl0lvrps_11icarus_core7session5testsNtB4_20MemorySessionManager13set_mock_time
FNDA:3,_RNvMs0_NtCsaLUMl0lvrps_11icarus_core7sessionNtB5_14SessionContext3new
FNDA:27,_RNvMs_NtCsaLUMl0lvrps_11icarus_core7sessionNtB4_20MemorySessionManager19generate_session_id
FNDA:13,_RNvMs_NtCsaLUMl0lvrps_11icarus_core7sessionNtB4_20MemorySessionManager3new
FNDA:28,_RNvMs_NtCsaLUMl0lvrps_11icarus_core7sessionNtB4_20MemorySessionManager8get_time
FNDA:14,_RNvXNtCsaLUMl0lvrps_11icarus_core7sessionNtB2_13SessionConfigNtNtCsaNl6UpbT7bw_4core7default7Default7default
FNDA:33,_RNvXs5_NtCsaLUMl0lvrps_11icarus_core7sessionNtB5_20MemorySessionManagerNtB5_14SessionManager11get_session
FNDA:2,_RNvXs5_NtCsaLUMl0lvrps_11icarus_core7sessionNtB5_20MemorySessionManagerNtB5_14SessionManager13touch_session
FNDA:25,_RNvXs5_NtCsaLUMl0lvrps_11icarus_core7sessionNtB5_20MemorySessionManagerNtB5_14SessionManager14create_session
FNDA:5,_RNvXs5_NtCsaLUMl0lvrps_11icarus_core7sessionNtB5_20MemorySessionManagerNtB5_14SessionManager14delete_session
FNDA:9,_RNvXs5_NtCsaLUMl0lvrps_11icarus_core7sessionNtB5_20MemorySessionManagerNtB5_14SessionManager14update_session
FNDA:2,_RNvXs5_NtCsaLUMl0lvrps_11icarus_core7sessionNtB5_20MemorySessionManagerNtB5_14SessionManager15cleanup_expired
FNDA:5,_RNvXs5_NtCsaLUMl0lvrps_11icarus_core7sessionNtB5_20MemorySessionManagerNtB5_14SessionManager20list_active_sessions
FNDA:1,_RNCNvNtNtCsaLUMl0lvrps_11icarus_core7session5testss_18test_touch_session0B7_
FNDA:1,_RNCNvNtNtCsaLUMl0lvrps_11icarus_core7session5testss_19test_update_session0B7_
FNDA:1,_RNCNvNtNtCsaLUMl0lvrps_11icarus_core7session5testss_23test_session_edge_cases0B7_
FNDA:1,_RNCNvNtNtCsaLUMl0lvrps_11icarus_core7session5testss_28test_get_nonexistent_session0B7_
FNDA:1,_RNCNvNtNtCsaLUMl0lvrps_11icarus_core7session5testss_29test_cleanup_expired_sessions0B7_
FNDA:1,_RNCNvNtNtCsaLUMl0lvrps_11icarus_core7session5testss_29test_create_multiple_sessions0B7_
FNDA:1,_RNCNvNtNtCsaLUMl0lvrps_11icarus_core7session5testss_29test_create_session_anonymous0B7_
FNDA:1,_RNCNvNtNtCsaLUMl0lvrps_11icarus_core7session5testss_30test_touch_nonexistent_session0B7_
FNDA:1,_RNCNvNtNtCsaLUMl0lvrps_11icarus_core7session5testss_31test_delete_nonexistent_session0B7_
FNDA:1,_RNCNvNtNtCsaLUMl0lvrps_11icarus_core7session5testss_32test_cleanup_expired_no_sessions0B7_
FNDA:1,_RNCNvNtNtCsaLUMl0lvrps_11icarus_core7session5testss_32test_list_active_sessions_filter0B7_
FNDA:1,_RNCNvNtNtCsaLUMl0lvrps_11icarus_core7session5testss_33test_memory_session_manager_basic0B7_
FNDA:1,_RNCNvNtNtCsaLUMl0lvrps_11icarus_core7session5testss_42test_session_manager_concurrent_operations0B7_
FNDA:1,_RNvNtNtCsaLUMl0lvrps_11icarus_core7session5testss_18test_touch_session
FNDA:1,_RNvNtNtCsaLUMl0lvrps_11icarus_core7session5testss_19test_update_session
FNDA:1,_RNvNtNtCsaLUMl0lvrps_11icarus_core7session5testss_23test_session_edge_cases
FNDA:1,_RNvNtNtCsaLUMl0lvrps_11icarus_core7session5testss_26test_session_id_generation
FNDA:1,_RNvNtNtCsaLUMl0lvrps_11icarus_core7session5testss_26test_session_serialization
FNDA:1,_RNvNtNtCsaLUMl0lvrps_11icarus_core7session5testss_27test_session_config_default
FNDA:1,_RNvNtNtCsaLUMl0lvrps_11icarus_core7session5testss_28test_get_nonexistent_session
FNDA:1,_RNvNtNtCsaLUMl0lvrps_11icarus_core7session5testss_29test_cleanup_expired_sessions
FNDA:1,_RNvNtNtCsaLUMl0lvrps_11icarus_core7session5testss_29test_create_multiple_sessions
FNDA:1,_RNvNtNtCsaLUMl0lvrps_11icarus_core7session5testss_29test_create_session_anonymous
FNDA:1,_RNvNtNtCsaLUMl0lvrps_11icarus_core7session5testss_29test_session_context_creation
FNDA:1,_RNvNtNtCsaLUMl0lvrps_11icarus_core7session5testss_29test_session_context_metadata
FNDA:1,_RNvNtNtCsaLUMl0lvrps_11icarus_core7session5testss_30test_touch_nonexistent_session
FNDA:1,_RNvNtNtCsaLUMl0lvrps_11icarus_core7session5testss_31test_delete_nonexistent_session
FNDA:1,_RNvNtNtCsaLUMl0lvrps_11icarus_core7session5testss_32test_cleanup_expired_no_sessions
FNDA:1,_RNvNtNtCsaLUMl0lvrps_11icarus_core7session5testss_32test_list_active_sessions_filter
FNDA:1,_RNvNtNtCsaLUMl0lvrps_11icarus_core7session5testss_33test_memory_session_manager_basic
FNDA:1,_RNvNtNtCsaLUMl0lvrps_11icarus_core7session5testss_33test_session_config_serialization
FNDA:1,_RNvNtNtCsaLUMl0lvrps_11icarus_core7session5testss_42test_session_manager_concurrent_operations
FNDA:0,_RNvMNtNtCsaLUMl0lvrps_11icarus_core7session5testsNtB4_20MemorySessionManager15clear_mock_time
FNDA:0,_RNvYpNtNtCsaLUMl0lvrps_11icarus_core7session14SessionManager13touch_sessionB7_
FNF:53
FNH:51
DA:47,0
DA:53,0
DA:70,14
DA:71,14
DA:72,14
DA:73,14
DA:74,14
DA:75,14
DA:76,14
DA:77,14
DA:89,13
DA:90,13
DA:91,13
DA:92,13
DA:93,13
DA:94,13
DA:95,13
DA:98,28
DA:99,28
DA:100,22
DA:101,22
DA:102,22
DA:103,22
DA:104,22
DA:105,28
DA:112,27
DA:114,27
DA:115,27
DA:116,27
DA:117,27
DA:118,27
DA:119,27
DA:124,25
DA:137,25
DA:139,33
DA:141,33
DA:143,9
DA:146,9
DA:148,5
DA:151,5
DA:153,5
DA:160,5
DA:162,2
DA:169,3
DA:170,2
DA:179,2
DA:182,2
DA:188,2
DA:200,3
DA:201,3
DA:202,3
DA:203,3
DA:204,3
DA:205,3
DA:208,6
DA:209,6
DA:210,6
DA:211,6
DA:212,6
DA:213,6
DA:216,4
DA:217,4
DA:218,4
DA:219,4
DA:220,4
DA:221,4
DA:231,6
DA:232,6
DA:233,6
DA:236,0
DA:237,0
DA:238,0
DA:242,1
DA:243,1
DA:244,1
DA:245,1
DA:246,1
DA:247,1
DA:248,1
DA:251,1
DA:252,1
DA:253,1
DA:254,1
DA:255,1
DA:256,1
DA:257,1
DA:259,1
DA:260,1
DA:262,1
DA:263,1
DA:264,1
DA:265,1
DA:266,1
DA:269,1
DA:270,1
DA:271,1
DA:272,1
DA:274,1
DA:275,1
DA:276,1
DA:277,1
DA:278,1
DA:279,1
DA:280,1
DA:281,1
DA:283,1
DA:284,1
DA:286,1
DA:287,1
DA:288,1
DA:289,1
DA:290,1
DA:291,1
DA:292,1
DA:295,1
DA:296,1
DA:297,1
DA:300,1
DA:301,1
DA:302,1
DA:303,1
DA:304,1
DA:305,1
DA:306,1
DA:309,1
DA:310,1
DA:311,1
DA:314,1
DA:315,1
DA:318,1
DA:319,1
DA:320,1
DA:321,1
DA:324,1
DA:325,1
DA:326,1
DA:328,1
DA:329,1
DA:330,1
DA:331,1
DA:332,1
DA:335,1
DA:336,1
DA:337,1
DA:339,1
DA:340,1
DA:341,1
DA:342,1
DA:343,1
DA:344,1
DA:345,1
DA:346,1
DA:347,1
DA:350,1
DA:351,1
DA:352,1
DA:355,1
DA:356,1
DA:357,1
DA:359,1
DA:360,1
DA:361,1
DA:364,1
DA:365,1
DA:366,1
DA:368,1
DA:369,1
DA:370,1
DA:371,1
DA:374,1
DA:375,1
DA:377,1
DA:380,1
DA:381,1
DA:382,1
DA:383,1
DA:386,1
DA:387,1
DA:388,1
DA:390,1
DA:391,1
DA:392,1
DA:395,1
DA:396,1
DA:397,1
DA:400,1
DA:401,1
DA:402,1
DA:405,1
DA:406,1
DA:407,1
DA:409,1
DA:410,1
DA:411,1
DA:414,1
DA:415,1
DA:416,1
DA:417,1
DA:419,1
DA:420,1
DA:421,1
DA:422,1
DA:425,1
DA:426,1
DA:427,1
DA:429,1
DA:430,1
DA:433,1
DA:435,1
DA:436,1
DA:438,1
DA:439,1
DA:446,1
DA:447,1
DA:449,1
DA:450,1
DA:451,1
DA:452,1
DA:453,1
DA:456,1
DA:457,1
DA:458,1
DA:460,1
DA:461,1
DA:462,1
DA:465,1
DA:466,1
DA:467,1
DA:469,1
DA:470,1
DA:472,1
DA:473,1
DA:474,1
DA:475,1
DA:476,1
DA:479,1
DA:480,1
DA:482,1
DA:483,1
DA:484,1
DA:487,1
DA:488,1
DA:489,1
DA:492,1
DA:493,1
DA:494,1
DA:497,1
DA:498,1
DA:499,1
DA:500,1
DA:501,1
DA:502,1
DA:503,1
DA:504,1
DA:505,1
DA:507,1
DA:508,1
DA:509,1
DA:511,1
DA:512,1
DA:513,1
DA:516,1
DA:517,1
DA:518,1
DA:519,1
DA:520,1
DA:521,1
DA:522,1
DA:523,1
DA:524,1
DA:526,1
DA:529,1
DA:530,1
DA:531,1
DA:532,1
DA:533,1
DA:534,1
DA:537,1
DA:538,1
DA:540,1
DA:541,1
DA:543,1
DA:544,1
DA:546,1
DA:547,1
DA:550,1
DA:551,1
DA:554,1
DA:555,1
DA:556,1
DA:559,1
DA:560,1
DA:562,1
DA:563,1
DA:565,1
DA:566,1
DA:567,1
DA:568,1
DA:571,1
DA:572,1
DA:573,1
DA:576,1
DA:577,11
DA:578,10
DA:579,10
DA:580,10
DA:581,10
DA:582,10
DA:586,11
DA:587,10
DA:588,10
DA:592,10
DA:593,10
DA:594,5
DA:595,5
DA:596,5
DA:600,1
DA:601,1
DA:604,10
DA:605,10
DA:606,3
DA:607,7
DA:611,1
DA:612,1
DA:615,10
DA:616,10
DA:617,10
DA:618,3
DA:619,1
DA:620,7
DA:621,1
DA:622,1
DA:623,1
DA:626,1
DA:627,1
DA:628,1
DA:631,1
DA:632,1
DA:635,1
DA:636,1
DA:637,1
DA:638,1
DA:639,1
DA:640,1
DA:643,1
DA:644,1
DA:645,1
BRF:0
BRH:0
LF:379
LH:374
end_of_record
SF:/Users/goshea/projects/icarus/icarus-sdk/crates/icarus-core/src/state.rs
FN:436,_RNvNtNtCsaLUMl0lvrps_11icarus_core5state5testss_20test_migration_chain
FN:421,_RNvNtNtCsaLUMl0lvrps_11icarus_core5state5testss_20test_user_empty_name
FN:411,_RNvNtNtCsaLUMl0lvrps_11icarus_core5state5testss_23test_counter_zero_value
FN:241,_RNvNtNtCsaLUMl0lvrps_11icarus_core5state5testss_24test_state_version_clone
FN:253,_RNvNtNtCsaLUMl0lvrps_11icarus_core5state5testss_24test_state_version_debug
FN:348,_RNvNtNtCsaLUMl0lvrps_11icarus_core5state5testss_25test_state_metadata_clone
FN:365,_RNvNtNtCsaLUMl0lvrps_11icarus_core5state5testss_25test_state_metadata_debug
FN:401,_RNvNtNtCsaLUMl0lvrps_11icarus_core5state5testss_27test_counter_extreme_values
FN:230,_RNvNtNtCsaLUMl0lvrps_11icarus_core5state5testss_27test_state_version_creation
FN:453,_RNvNtNtCsaLUMl0lvrps_11icarus_core5state5testss_27test_storable_trait_methods
FN:330,_RNvNtNtCsaLUMl0lvrps_11icarus_core5state5testss_28test_state_metadata_creation
FN:161,_RNvNtNtCsaLUMl0lvrps_11icarus_core5state5testss_28test_storable_user_constants
FN:193,_RNvNtNtCsaLUMl0lvrps_11icarus_core5state5testss_29test_storable_user_large_name
FN:279,_RNvNtNtCsaLUMl0lvrps_11icarus_core5state5testss_31test_migratable_current_version
FN:321,_RNvNtNtCsaLUMl0lvrps_11icarus_core5state5testss_31test_migratable_invalid_v1_data
FN:284,_RNvNtNtCsaLUMl0lvrps_11icarus_core5state5testss_31test_migratable_v2_no_migration
FN:178,_RNvNtNtCsaLUMl0lvrps_11icarus_core5state5testss_31test_storable_counter_constants
FN:222,_RNvNtNtCsaLUMl0lvrps_11icarus_core5state5testss_31test_storable_user_invalid_json
FN:265,_RNvNtNtCsaLUMl0lvrps_11icarus_core5state5testss_32test_state_version_serialization
FN:147,_RNvNtNtCsaLUMl0lvrps_11icarus_core5state5testss_32test_storable_user_serialization
FN:382,_RNvNtNtCsaLUMl0lvrps_11icarus_core5state5testss_33test_state_metadata_serialization
FN:298,_RNvNtNtCsaLUMl0lvrps_11icarus_core5state5testss_34test_migratable_v1_to_v2_migration
FN:311,_RNvNtNtCsaLUMl0lvrps_11icarus_core5state5testss_35test_migratable_unsupported_version
FN:167,_RNvNtNtCsaLUMl0lvrps_11icarus_core5state5testss_35test_storable_counter_serialization
FN:184,_RNvNtNtCsaLUMl0lvrps_11icarus_core5state5testss_36test_storable_counter_invalid_length
FN:208,_RNvNtNtCsaLUMl0lvrps_11icarus_core5state5testss_37test_storable_user_special_characters
FN:62,_RNvXNtNtCsaLUMl0lvrps_11icarus_core5state5testsNtB2_8TestUserNtB4_8Storable10from_bytes
FN:58,_RNvXNtNtCsaLUMl0lvrps_11icarus_core5state5testsNtB2_8TestUserNtB4_8Storable8to_bytes
FN:106,_RNvXs0_NtNtCsaLUMl0lvrps_11icarus_core5state5testsNtB5_10TestConfigNtB7_8Storable10from_bytes
FN:102,_RNvXs0_NtNtCsaLUMl0lvrps_11icarus_core5state5testsNtB5_10TestConfigNtB7_8Storable8to_bytes
FN:119,_RNvXs1_NtNtCsaLUMl0lvrps_11icarus_core5state5testsNtB5_10TestConfigNtB7_10Migratable12migrate_from
FN:115,_RNvXs1_NtNtCsaLUMl0lvrps_11icarus_core5state5testsNtB5_10TestConfigNtB7_10Migratable15current_version
FN:81,_RNvXs_NtNtCsaLUMl0lvrps_11icarus_core5state5testsNtB4_11TestCounterNtB6_8Storable10from_bytes
FN:77,_RNvXs_NtNtCsaLUMl0lvrps_11icarus_core5state5testsNtB4_11TestCounterNtB6_8Storable8to_bytes
FNDA:1,_RNvNtNtCsaLUMl0lvrps_11icarus_core5state5testss_20test_migration_chain
FNDA:1,_RNvNtNtCsaLUMl0lvrps_11icarus_core5state5testss_20test_user_empty_name
FNDA:1,_RNvNtNtCsaLUMl0lvrps_11icarus_core5state5testss_23test_counter_zero_value
FNDA:1,_RNvNtNtCsaLUMl0lvrps_11icarus_core5state5testss_24test_state_version_clone
FNDA:1,_RNvNtNtCsaLUMl0lvrps_11icarus_core5state5testss_24test_state_version_debug
FNDA:1,_RNvNtNtCsaLUMl0lvrps_11icarus_core5state5testss_25test_state_metadata_clone
FNDA:1,_RNvNtNtCsaLUMl0lvrps_11icarus_core5state5testss_25test_state_metadata_debug
FNDA:1,_RNvNtNtCsaLUMl0lvrps_11icarus_core5state5testss_27test_counter_extreme_values
FNDA:1,_RNvNtNtCsaLUMl0lvrps_11icarus_core5state5testss_27test_state_version_creation
FNDA:1,_RNvNtNtCsaLUMl0lvrps_11icarus_core5state5testss_27test_storable_trait_methods
FNDA:1,_RNvNtNtCsaLUMl0lvrps_11icarus_core5state5testss_28test_state_metadata_creation
FNDA:1,_RNvNtNtCsaLUMl0lvrps_11icarus_core5state5testss_28test_storable_user_constants
FNDA:1,_RNvNtNtCsaLUMl0lvrps_11icarus_core5state5testss_29test_storable_user_large_name
FNDA:1,_RNvNtNtCsaLUMl0lvrps_11icarus_core5state5testss_31test_migratable_current_version
FNDA:1,_RNvNtNtCsaLUMl0lvrps_11icarus_core5state5testss_31test_migratable_invalid_v1_data
FNDA:1,_RNvNtNtCsaLUMl0lvrps_11icarus_core5state5testss_31test_migratable_v2_no_migration
FNDA:1,_RNvNtNtCsaLUMl0lvrps_11icarus_core5state5testss_31test_storable_counter_constants
FNDA:1,_RNvNtNtCsaLUMl0lvrps_11icarus_core5state5testss_31test_storable_user_invalid_json
FNDA:1,_RNvNtNtCsaLUMl0lvrps_11icarus_core5state5testss_32test_state_version_serialization
FNDA:1,_RNvNtNtCsaLUMl0lvrps_11icarus_core5state5testss_32test_storable_user_serialization
FNDA:1,_RNvNtNtCsaLUMl0lvrps_11icarus_core5state5testss_33test_state_metadata_serialization
FNDA:1,_RNvNtNtCsaLUMl0lvrps_11icarus_core5state5testss_34test_migratable_v1_to_v2_migration
FNDA:1,_RNvNtNtCsaLUMl0lvrps_11icarus_core5state5testss_35test_migratable_unsupported_version
FNDA:1,_RNvNtNtCsaLUMl0lvrps_11icarus_core5state5testss_35test_storable_counter_serialization
FNDA:1,_RNvNtNtCsaLUMl0lvrps_11icarus_core5state5testss_36test_storable_counter_invalid_length
FNDA:1,_RNvNtNtCsaLUMl0lvrps_11icarus_core5state5testss_37test_storable_user_special_characters
FNDA:5,_RNvXNtNtCsaLUMl0lvrps_11icarus_core5state5testsNtB2_8TestUserNtB4_8Storable10from_bytes
FNDA:5,_RNvXNtNtCsaLUMl0lvrps_11icarus_core5state5testsNtB2_8TestUserNtB4_8Storable8to_bytes
FNDA:2,_RNvXs0_NtNtCsaLUMl0lvrps_11icarus_core5state5testsNtB5_10TestConfigNtB7_8Storable10from_bytes
FNDA:2,_RNvXs0_NtNtCsaLUMl0lvrps_11icarus_core5state5testsNtB5_10TestConfigNtB7_8Storable8to_bytes
FNDA:6,_RNvXs1_NtNtCsaLUMl0lvrps_11icarus_core5state5testsNtB5_10TestConfigNtB7_10Migratable12migrate_from
FNDA:1,_RNvXs1_NtNtCsaLUMl0lvrps_11icarus_core5state5testsNtB5_10TestConfigNtB7_10Migratable15current_version
FNDA:4,_RNvXs_NtNtCsaLUMl0lvrps_11icarus_core5state5testsNtB4_11TestCounterNtB6_8Storable10from_bytes
FNDA:3,_RNvXs_NtNtCsaLUMl0lvrps_11icarus_core5state5testsNtB4_11TestCounterNtB6_8Storable8to_bytes
FNF:34
FNH:34
DA:58,5
DA:59,5
DA:60,5
DA:62,5
DA:63,5
DA:64,5
DA:77,3
DA:78,3
DA:79,3
DA:81,4
DA:82,4
DA:83,1
DA:84,3
DA:85,3
DA:86,3
DA:87,4
DA:102,2
DA:103,2
DA:104,2
DA:106,2
DA:107,2
DA:108,2
DA:115,1
DA:116,1
DA:117,1
DA:119,6
DA:120,6
DA:129,3
DA:131,2
DA:132,2
DA:133,2
DA:134,2
DA:135,2
DA:139,2
DA:141,1
DA:143,6
DA:147,1
DA:148,1
DA:149,1
DA:150,1
DA:151,1
DA:152,1
DA:154,1
DA:155,1
DA:157,1
DA:158,1
DA:161,1
DA:162,1
DA:163,1
DA:164,1
DA:167,1
DA:168,1
DA:170,1
DA:171,1
DA:173,1
DA:174,1
DA:175,1
DA:178,1
DA:179,1
DA:180,1
DA:181,1
DA:184,1
DA:185,1
DA:186,1
DA:187,1
DA:188,1
DA:189,1
DA:190,1
DA:193,1
DA:194,1
DA:195,1
DA:196,1
DA:197,1
DA:198,1
DA:200,1
DA:201,1
DA:203,1
DA:204,1
DA:205,1
DA:208,1
DA:209,1
DA:210,1
DA:211,1
DA:212,1
DA:213,1
DA:215,1
DA:216,1
DA:218,1
DA:219,1
DA:222,1
DA:223,1
DA:224,1
DA:225,1
DA:226,1
DA:227,1
DA:230,1
DA:231,1
DA:232,1
DA:233,1
DA:234,1
DA:236,1
DA:237,1
DA:238,1
DA:241,1
DA:242,1
DA:243,1
DA:244,1
DA:245,1
DA:247,1
DA:248,1
DA:249,1
DA:250,1
DA:253,1
DA:254,1
DA:255,1
DA:256,1
DA:257,1
DA:259,1
DA:260,1
DA:261,1
DA:262,1
DA:265,1
DA:266,1
DA:267,1
DA:268,1
DA:269,1
DA:271,1
DA:272,1
DA:274,1
DA:275,1
DA:276,1
DA:279,1
DA:280,1
DA:281,1
DA:284,1
DA:285,1
DA:286,1
DA:287,1
DA:288,1
DA:289,1
DA:291,1
DA:292,1
DA:294,1
DA:295,1
DA:298,1
DA:300,1
DA:301,1
DA:303,1
DA:305,1
DA:306,1
DA:307,1
DA:308,1
DA:311,1
DA:312,1
DA:313,1
DA:315,1
DA:316,1
DA:317,1
DA:318,1
DA:321,1
DA:322,1
DA:323,1
DA:325,1
DA:326,1
DA:327,1
DA:330,1
DA:331,1
DA:332,1
DA:333,1
DA:334,1
DA:336,1
DA:337,1
DA:338,1
DA:339,1
DA:340,1
DA:342,1
DA:343,1
DA:344,1
DA:345,1
DA:348,1
DA:349,1
DA:350,1
DA:351,1
DA:352,1
DA:353,1
DA:354,1
DA:355,1
DA:356,1
DA:358,1
DA:359,1
DA:360,1
DA:361,1
DA:362,1
DA:365,1
DA:366,1
DA:367,1
DA:368,1
DA:369,1
DA:370,1
DA:371,1
DA:372,1
DA:373,1
DA:375,1
DA:376,1
DA:377,1
DA:378,1
DA:379,1
DA:382,1
DA:383,1
DA:384,1
DA:385,1
DA:386,1
DA:387,1
DA:388,1
DA:389,1
DA:390,1
DA:392,1
DA:393,1
DA:395,1
DA:396,1
DA:397,1
DA:398,1
DA:401,1
DA:402,1
DA:404,1
DA:405,1
DA:407,1
DA:408,1
DA:411,1
DA:412,1
DA:414,1
DA:415,1
DA:417,1
DA:418,1
DA:421,1
DA:422,1
DA:423,1
DA:424,1
DA:425,1
DA:426,1
DA:428,1
DA:429,1
DA:431,1
DA:432,1
DA:433,1
DA:436,1
DA:438,1
DA:439,1
DA:442,1
DA:445,1
DA:447,1
DA:448,1
DA:449,1
DA:450,1
DA:453,1
DA:455,1
DA:456,1
DA:457,1
DA:458,1
DA:459,1
DA:462,1
DA:463,1
DA:464,1
DA:465,1
BRF:0
BRH:0
LF:264
LH:264
end_of_record
SF:/Users/goshea/projects/icarus/icarus-sdk/crates/icarus-core/src/tool.rs
FN:46,_RNvYNtNtNtCsaLUMl0lvrps_11icarus_core8registry5tests8MockToolNtNtB8_4tool10IcarusTool12to_rmcp_toolB8_
FN:76,_RNvYNtNtCsaLUMl0lvrps_11icarus_core7builder9BuiltToolNtNtB6_4tool10IcarusTool20storage_requirementsB6_
FN:71,_RNvYNtNtCsaLUMl0lvrps_11icarus_core7builder9BuiltToolNtNtB6_4tool10IcarusTool23requires_stable_storageB6_
FNDA:1,_RNvYNtNtNtCsaLUMl0lvrps_11icarus_core8registry5tests8MockToolNtNtB8_4tool10IcarusTool12to_rmcp_toolB8_
FNDA:0,_RNvYNtNtCsaLUMl0lvrps_11icarus_core7builder9BuiltToolNtNtB6_4tool10IcarusTool20storage_requirementsB6_
FNDA:0,_RNvYNtNtCsaLUMl0lvrps_11icarus_core7builder9BuiltToolNtNtB6_4tool10IcarusTool23requires_stable_storageB6_
FNF:3
FNH:1
DA:46,1
DA:50,1
DA:53,1
DA:54,1
DA:56,0
DA:59,1
DA:60,1
DA:61,1
DA:62,1
DA:63,1
DA:64,1
DA:65,1
DA:66,1
DA:67,1
DA:68,1
DA:71,0
DA:72,0
DA:73,0
DA:76,0
DA:77,0
DA:78,0
BRF:0
BRH:0
LF:21
LH:14
end_of_record
SF:/Users/goshea/projects/icarus/icarus-sdk/crates/icarus-derive/src/lib.rs
FN:458,_RNCNvCs4sls2lKyawE_13icarus_derive11icarus_tool0B3_
FN:459,_RNCNvCs4sls2lKyawE_13icarus_derive11icarus_tools_0B3_
FN:155,_RNCNvCs4sls2lKyawE_13icarus_derive18derive_icarus_type0B3_
FN:384,_RNCNvCs4sls2lKyawE_13icarus_derive22derive_icarus_storable0B3_
FN:398,_RNCNvCs4sls2lKyawE_13icarus_derive22derive_icarus_storables_0B3_
FN:39,_RNCNvCs4sls2lKyawE_13icarus_derive23derive_icarus_tool_impl0B3_
FN:55,_RNCNvCs4sls2lKyawE_13icarus_derive23derive_icarus_tool_impls0_0B3_
FN:54,_RNCNvCs4sls2lKyawE_13icarus_derive23derive_icarus_tool_impls_0B3_
FN:454,_RNvCs4sls2lKyawE_13icarus_derive11icarus_tool
FN:440,_RNvCs4sls2lKyawE_13icarus_derive12icarus_tools
FN:517,_RNvCs4sls2lKyawE_13icarus_derive13icarus_module
FN:114,_RNvCs4sls2lKyawE_13icarus_derive13icarus_server
FN:546,_RNvCs4sls2lKyawE_13icarus_derive15icarus_canister
FN:23,_RNvCs4sls2lKyawE_13icarus_derive18derive_icarus_tool
FN:142,_RNvCs4sls2lKyawE_13icarus_derive18derive_icarus_type
FN:232,_RNvCs4sls2lKyawE_13icarus_derive21derive_icarus_storage
FN:371,_RNvCs4sls2lKyawE_13icarus_derive22derive_icarus_storable
FN:32,_RNvCs4sls2lKyawE_13icarus_derive23derive_icarus_tool_impl
FN:597,_RNvCs4sls2lKyawE_13icarus_derive17parse_size_string
FN:585,_RNvCs4sls2lKyawE_13icarus_derive18is_stable_map_type
FN:559,_RNvCs4sls2lKyawE_13icarus_derive19extract_type_string
FN:591,_RNvCs4sls2lKyawE_13icarus_derive19is_stable_cell_type
FN:565,_RNvCs4sls2lKyawE_13icarus_derive22rust_type_to_json_type
FN:679,_RNvNtCs4sls2lKyawE_13icarus_derive5testss_22test_parse_size_string
FN:649,_RNvNtCs4sls2lKyawE_13icarus_derive5testss_23test_is_stable_map_type
FN:617,_RNvNtCs4sls2lKyawE_13icarus_derive5testss_24test_extract_type_string
FN:664,_RNvNtCs4sls2lKyawE_13icarus_derive5testss_24test_is_stable_cell_type
FN:629,_RNvNtCs4sls2lKyawE_13icarus_derive5testss_27test_rust_type_to_json_type
FN:702,_RNvNtCs4sls2lKyawE_13icarus_derive5testss_33test_parse_size_string_edge_cases
FN:454,_RNvCsdJxqUgS89VV_13icarus_derive11icarus_tool
FN:440,_RNvCsdJxqUgS89VV_13icarus_derive12icarus_tools
FN:517,_RNvCsdJxqUgS89VV_13icarus_derive13icarus_module
FN:114,_RNvCsdJxqUgS89VV_13icarus_derive13icarus_server
FN:546,_RNvCsdJxqUgS89VV_13icarus_derive15icarus_canister
FN:597,_RNvCsdJxqUgS89VV_13icarus_derive17parse_size_string
FN:23,_RNvCsdJxqUgS89VV_13icarus_derive18derive_icarus_tool
FN:142,_RNvCsdJxqUgS89VV_13icarus_derive18derive_icarus_type
FN:585,_RNvCsdJxqUgS89VV_13icarus_derive18is_stable_map_type
FN:591,_RNvCsdJxqUgS89VV_13icarus_derive19is_stable_cell_type
FN:232,_RNvCsdJxqUgS89VV_13icarus_derive21derive_icarus_storage
FN:371,_RNvCsdJxqUgS89VV_13icarus_derive22derive_icarus_storable
FN:32,_RNvCsdJxqUgS89VV_13icarus_derive23derive_icarus_tool_impl
FN:458,_RNCNvCsdJxqUgS89VV_13icarus_derive11icarus_tool0B3_
FN:459,_RNCNvCsdJxqUgS89VV_13icarus_derive11icarus_tools_0B3_
FN:155,_RNCNvCsdJxqUgS89VV_13icarus_derive18derive_icarus_type0B3_
FN:384,_RNCNvCsdJxqUgS89VV_13icarus_derive22derive_icarus_storable0B3_
FN:398,_RNCNvCsdJxqUgS89VV_13icarus_derive22derive_icarus_storables_0B3_
FN:39,_RNCNvCsdJxqUgS89VV_13icarus_derive23derive_icarus_tool_impl0B3_
FN:55,_RNCNvCsdJxqUgS89VV_13icarus_derive23derive_icarus_tool_impls0_0B3_
FN:54,_RNCNvCsdJxqUgS89VV_13icarus_derive23derive_icarus_tool_impls_0B3_
FN:559,_RNvCsdJxqUgS89VV_13icarus_derive19extract_type_string
FN:565,_RNvCsdJxqUgS89VV_13icarus_derive22rust_type_to_json_type
FNDA:0,_RNCNvCs4sls2lKyawE_13icarus_derive11icarus_tool0B3_
FNDA:0,_RNCNvCs4sls2lKyawE_13icarus_derive11icarus_tools_0B3_
FNDA:0,_RNCNvCs4sls2lKyawE_13icarus_derive18derive_icarus_type0B3_
FNDA:0,_RNCNvCs4sls2lKyawE_13icarus_derive22derive_icarus_storable0B3_
FNDA:0,_RNCNvCs4sls2lKyawE_13icarus_derive22derive_icarus_storables_0B3_
FNDA:0,_RNCNvCs4sls2lKyawE_13icarus_derive23derive_icarus_tool_impl0B3_
FNDA:0,_RNCNvCs4sls2lKyawE_13icarus_derive23derive_icarus_tool_impls0_0B3_
FNDA:0,_RNCNvCs4sls2lKyawE_13icarus_derive23derive_icarus_tool_impls_0B3_
FNDA:0,_RNvCs4sls2lKyawE_13icarus_derive11icarus_tool
FNDA:0,_RNvCs4sls2lKyawE_13icarus_derive12icarus_tools
FNDA:0,_RNvCs4sls2lKyawE_13icarus_derive13icarus_module
FNDA:0,_RNvCs4sls2lKyawE_13icarus_derive13icarus_server
FNDA:0,_RNvCs4sls2lKyawE_13icarus_derive15icarus_canister
FNDA:0,_RNvCs4sls2lKyawE_13icarus_derive18derive_icarus_tool
FNDA:0,_RNvCs4sls2lKyawE_13icarus_derive18derive_icarus_type
FNDA:0,_RNvCs4sls2lKyawE_13icarus_derive21derive_icarus_storage
FNDA:0,_RNvCs4sls2lKyawE_13icarus_derive22derive_icarus_storable
FNDA:0,_RNvCs4sls2lKyawE_13icarus_derive23derive_icarus_tool_impl
FNDA:17,_RNvCs4sls2lKyawE_13icarus_derive17parse_size_string
FNDA:4,_RNvCs4sls2lKyawE_13icarus_derive18is_stable_map_type
FNDA:2,_RNvCs4sls2lKyawE_13icarus_derive19extract_type_string
FNDA:4,_RNvCs4sls2lKyawE_13icarus_derive19is_stable_cell_type
FNDA:14,_RNvCs4sls2lKyawE_13icarus_derive22rust_type_to_json_type
FNDA:1,_RNvNtCs4sls2lKyawE_13icarus_derive5testss_22test_parse_size_string
FNDA:1,_RNvNtCs4sls2lKyawE_13icarus_derive5testss_23test_is_stable_map_type
FNDA:1,_RNvNtCs4sls2lKyawE_13icarus_derive5testss_24test_extract_type_string
FNDA:1,_RNvNtCs4sls2lKyawE_13icarus_derive5testss_24test_is_stable_cell_type
FNDA:1,_RNvNtCs4sls2lKyawE_13icarus_derive5testss_27test_rust_type_to_json_type
FNDA:1,_RNvNtCs4sls2lKyawE_13icarus_derive5testss_33test_parse_size_string_edge_cases
FNDA:0,_RNvCsdJxqUgS89VV_13icarus_derive11icarus_tool
FNDA:0,_RNvCsdJxqUgS89VV_13icarus_derive12icarus_tools
FNDA:0,_RNvCsdJxqUgS89VV_13icarus_derive13icarus_module
FNDA:0,_RNvCsdJxqUgS89VV_13icarus_derive13icarus_server
FNDA:0,_RNvCsdJxqUgS89VV_13icarus_derive15icarus_canister
FNDA:0,_RNvCsdJxqUgS89VV_13icarus_derive17parse_size_string
FNDA:0,_RNvCsdJxqUgS89VV_13icarus_derive18derive_icarus_tool
FNDA:0,_RNvCsdJxqUgS89VV_13icarus_derive18derive_icarus_type
FNDA:0,_RNvCsdJxqUgS89VV_13icarus_derive18is_stable_map_type
FNDA:0,_RNvCsdJxqUgS89VV_13icarus_derive19is_stable_cell_type
FNDA:0,_RNvCsdJxqUgS89VV_13icarus_derive21derive_icarus_storage
FNDA:4,_RNvCsdJxqUgS89VV_13icarus_derive22derive_icarus_storable
FNDA:0,_RNvCsdJxqUgS89VV_13icarus_derive23derive_icarus_tool_impl
FNDA:0,_RNCNvCsdJxqUgS89VV_13icarus_derive11icarus_tool0B3_
FNDA:0,_RNCNvCsdJxqUgS89VV_13icarus_derive11icarus_tools_0B3_
FNDA:0,_RNCNvCsdJxqUgS89VV_13icarus_derive18derive_icarus_type0B3_
FNDA:4,_RNCNvCsdJxqUgS89VV_13icarus_derive22derive_icarus_storable0B3_
FNDA:0,_RNCNvCsdJxqUgS89VV_13icarus_derive22derive_icarus_storables_0B3_
FNDA:0,_RNCNvCsdJxqUgS89VV_13icarus_derive23derive_icarus_tool_impl0B3_
FNDA:0,_RNCNvCsdJxqUgS89VV_13icarus_derive23derive_icarus_tool_impls0_0B3_
FNDA:0,_RNCNvCsdJxqUgS89VV_13icarus_derive23derive_icarus_tool_impls_0B3_
FNDA:0,_RNvCsdJxqUgS89VV_13icarus_derive19extract_type_string
FNDA:0,_RNvCsdJxqUgS89VV_13icarus_derive22rust_type_to_json_type
FNF:29
FNH:13
DA:23,0
DA:24,0
DA:26,0
DA:27,0
DA:28,0
DA:30,0
DA:32,0
DA:34,0
DA:35,0
DA:37,0
DA:38,0
DA:39,0
DA:40,0
DA:41,0
DA:42,0
DA:43,0
DA:44,0
DA:45,0
DA:47,0
DA:49,0
DA:50,0
DA:53,0
DA:54,0
DA:55,0
DA:58,0
DA:104,0
DA:105,0
DA:114,0
DA:115,0
DA:116,0
DA:117,0
DA:118,0
DA:142,0
DA:143,0
DA:144,0
DA:147,0
DA:150,0
DA:151,0
DA:153,0
DA:154,0
DA:155,0
DA:156,0
DA:157,0
DA:158,0
DA:159,0
DA:160,0
DA:161,0
DA:162,0
DA:163,0
DA:164,0
DA:165,0
DA:166,0
DA:167,0
DA:168,0
DA:170,0
DA:172,0
DA:173,0
DA:174,0
DA:177,0
DA:178,0
DA:180,0
DA:189,0
DA:209,0
DA:210,0
DA:232,0
DA:233,0
DA:235,0
DA:236,0
DA:237,0
DA:238,0
DA:239,0
DA:240,0
DA:242,0
DA:243,0
DA:244,0
DA:245,0
DA:246,0
DA:249,0
DA:250,0
DA:258,0
DA:259,0
DA:270,0
DA:281,0
DA:284,0
DA:285,0
DA:291,0
DA:292,0
DA:294,0
DA:314,0
DA:315,0
DA:316,0
DA:319,0
DA:339,0
DA:341,0
DA:342,0
DA:343,0
DA:344,0
DA:345,0
DA:346,0
DA:349,0
DA:350,0
DA:351,0
DA:353,0
DA:371,4
DA:372,4
DA:373,4
DA:376,4
DA:379,4
DA:380,4
DA:382,12
DA:383,8
DA:384,4
DA:385,4
DA:386,4
DA:387,4
DA:388,0
DA:389,0
DA:390,0
DA:391,0
DA:392,0
DA:393,0
DA:395,0
DA:397,4
DA:398,4
DA:399,4
DA:402,4
DA:403,4
DA:405,0
DA:414,4
DA:435,4
DA:436,4
DA:440,0
DA:441,0
DA:442,0
DA:443,0
DA:444,0
DA:454,0
DA:455,0
DA:458,0
DA:459,0
DA:462,0
DA:463,0
DA:464,0
DA:465,0
DA:466,0
DA:467,0
DA:468,0
DA:469,0
DA:470,0
DA:471,0
DA:474,0
DA:475,0
DA:479,0
DA:483,0
DA:489,0
DA:490,0
DA:517,0
DA:518,0
DA:521,0
DA:522,0
DA:524,0
DA:528,0
DA:529,0
DA:530,0
DA:532,0
DA:546,0
DA:548,0
DA:551,0
DA:552,0
DA:553,0
DA:555,0
DA:559,2
DA:560,2
DA:561,2
DA:565,14
DA:566,14
DA:568,14
DA:569,13
DA:570,9
DA:571,8
DA:572,7
DA:573,6
DA:574,5
DA:576,5
DA:578,4
DA:579,2
DA:580,1
DA:582,14
DA:585,4
DA:586,4
DA:587,4
DA:588,4
DA:591,4
DA:592,4
DA:593,4
DA:594,4
DA:597,17
DA:598,17
DA:599,17
DA:600,8
DA:601,9
DA:602,3
DA:603,6
DA:604,2
DA:607,4
DA:609,17
DA:617,1
DA:618,1
DA:619,1
DA:620,1
DA:622,1
DA:623,1
DA:624,1
DA:625,1
DA:626,1
DA:629,1
DA:630,1
DA:631,1
DA:632,1
DA:633,1
DA:634,1
DA:635,1
DA:636,1
DA:637,1
DA:638,1
DA:639,1
DA:640,1
DA:641,1
DA:644,1
DA:645,1
DA:646,1
DA:649,1
DA:650,1
DA:651,1
DA:653,1
DA:654,1
DA:656,1
DA:657,1
DA:659,1
DA:660,1
DA:661,1
DA:664,1
DA:665,1
DA:666,1
DA:668,1
DA:669,1
DA:671,1
DA:672,1
DA:674,1
DA:675,1
DA:676,1
DA:679,1
DA:680,1
DA:681,1
DA:682,1
DA:683,1
DA:684,1
DA:687,1
DA:688,1
DA:691,1
DA:692,1
DA:693,1
DA:694,1
DA:702,1
DA:704,1
DA:705,1
DA:708,1
DA:709,1
DA:710,1
DA:713,1
DA:716,1
DA:717,1
BRF:0
BRH:0
LF:281
LH:122
end_of_record
SF:/Users/goshea/projects/icarus/icarus-sdk/crates/icarus-derive/src/server.rs
FN:15,_RNCNvNtCs4sls2lKyawE_13icarus_derive6server20expand_icarus_server0B5_
FN:31,_RNCNvNtCs4sls2lKyawE_13icarus_derive6server20expand_icarus_servers0_0B5_
FN:30,_RNCNvNtCs4sls2lKyawE_13icarus_derive6server20expand_icarus_servers_0B5_
FN:10,_RNvNtCs4sls2lKyawE_13icarus_derive6server20expand_icarus_server
FN:15,_RNCNvNtCsdJxqUgS89VV_13icarus_derive6server20expand_icarus_server0B5_
FN:31,_RNCNvNtCsdJxqUgS89VV_13icarus_derive6server20expand_icarus_servers0_0B5_
FN:30,_RNCNvNtCsdJxqUgS89VV_13icarus_derive6server20expand_icarus_servers_0B5_
FN:10,_RNvNtCsdJxqUgS89VV_13icarus_derive6server20expand_icarus_server
FNDA:0,_RNCNvNtCs4sls2lKyawE_13icarus_derive6server20expand_icarus_server0B5_
FNDA:0,_RNCNvNtCs4sls2lKyawE_13icarus_derive6server20expand_icarus_servers0_0B5_
FNDA:0,_RNCNvNtCs4sls2lKyawE_13icarus_derive6server20expand_icarus_servers_0B5_
FNDA:0,_RNvNtCs4sls2lKyawE_13icarus_derive6server20expand_icarus_server
FNDA:0,_RNCNvNtCsdJxqUgS89VV_13icarus_derive6server20expand_icarus_server0B5_
FNDA:0,_RNCNvNtCsdJxqUgS89VV_13icarus_derive6server20expand_icarus_servers0_0B5_
FNDA:0,_RNCNvNtCsdJxqUgS89VV_13icarus_derive6server20expand_icarus_servers_0B5_
FNDA:0,_RNvNtCsdJxqUgS89VV_13icarus_derive6server20expand_icarus_server
FNF:4
FNH:0
DA:10,0
DA:12,0
DA:13,0
DA:15,0
DA:16,0
DA:17,0
DA:18,0
DA:19,0
DA:20,0
DA:21,0
DA:23,0
DA:25,0
DA:27,0
DA:29,0
DA:30,0
DA:31,0
DA:34,0
DA:115,0
BRF:0
BRH:0
LF:21
LH:0
end_of_record
SF:/Users/goshea/projects/icarus/icarus-sdk/crates/icarus-derive/src/tools.rs
FN:1079,_RNCNCNCNvNtCs4sls2lKyawE_13icarus_derive5tools22expand_icarus_canisters0_000B9_
FN:36,_RNCNCNvNtCs4sls2lKyawE_13icarus_derive5tools19expand_icarus_toolss_00B7_
FN:1077,_RNCNCNvNtCs4sls2lKyawE_13icarus_derive5tools22expand_icarus_canisters0_00B7_
FN:245,_RNCNvNtCs4sls2lKyawE_13icarus_derive5tools16extract_is_query0B5_
FN:330,_RNCNvNtCs4sls2lKyawE_13icarus_derive5tools17extract_is_public0B5_
FN:310,_RNCNvNtCs4sls2lKyawE_13icarus_derive5tools17extract_tool_icon0B5_
FN:227,_RNCNvNtCs4sls2lKyawE_13icarus_derive5tools17extract_tool_name0B5_
FN:290,_RNCNvNtCs4sls2lKyawE_13icarus_derive5tools18extract_tool_title0B5_
FN:26,_RNCNvNtCs4sls2lKyawE_13icarus_derive5tools19expand_icarus_tools0B5_
FN:56,_RNCNvNtCs4sls2lKyawE_13icarus_derive5tools19expand_icarus_toolss0_0B5_
FN:32,_RNCNvNtCs4sls2lKyawE_13icarus_derive5tools19expand_icarus_toolss_0B5_
FN:796,_RNCNvNtCs4sls2lKyawE_13icarus_derive5tools20expand_icarus_module0B5_
FN:822,_RNCNvNtCs4sls2lKyawE_13icarus_derive5tools20expand_icarus_modules_0B5_
FN:134,_RNCNvNtCs4sls2lKyawE_13icarus_derive5tools21generate_query_method0B5_
FN:139,_RNCNvNtCs4sls2lKyawE_13icarus_derive5tools21generate_query_methods_0B5_
FN:1066,_RNCNvNtCs4sls2lKyawE_13icarus_derive5tools22expand_icarus_canister0B5_
FN:1075,_RNCNvNtCs4sls2lKyawE_13icarus_derive5tools22expand_icarus_canisters0_0B5_
FN:1085,_RNCNvNtCs4sls2lKyawE_13icarus_derive5tools22expand_icarus_canisters1_0B5_
FN:1096,_RNCNvNtCs4sls2lKyawE_13icarus_derive5tools22expand_icarus_canisters2_0B5_
FN:1121,_RNCNvNtCs4sls2lKyawE_13icarus_derive5tools22expand_icarus_canisters3_0B5_
FN:1143,_RNCNvNtCs4sls2lKyawE_13icarus_derive5tools22expand_icarus_canisters4_0B5_
FN:1067,_RNCNvNtCs4sls2lKyawE_13icarus_derive5tools22expand_icarus_canisters_0B5_
FN:182,_RNCNvNtCs4sls2lKyawE_13icarus_derive5tools22generate_update_method0B5_
FN:187,_RNCNvNtCs4sls2lKyawE_13icarus_derive5tools22generate_update_methods_0B5_
FN:269,_RNCNvNtCs4sls2lKyawE_13icarus_derive5tools24extract_tool_description0B5_
FN:546,_RNCNvNtCs4sls2lKyawE_13icarus_derive5tools27extract_function_parameters0B5_
FN:372,_RNCNvNtCs4sls2lKyawE_13icarus_derive5tools28generate_async_update_method0B5_
FN:377,_RNCNvNtCs4sls2lKyawE_13icarus_derive5tools28generate_async_update_methods_0B5_
FN:902,_RNvMs0_NtCs4sls2lKyawE_13icarus_derive5toolsNtB5_19ToolMetadataBuilder17generate_metadata
FN:869,_RNvMs0_NtCs4sls2lKyawE_13icarus_derive5toolsNtB5_19ToolMetadataBuilder3new
FN:885,_RNvMs0_NtCs4sls2lKyawE_13icarus_derive5toolsNtB5_19ToolMetadataBuilder9from_refs
FN:503,_RNvMs_NtCs4sls2lKyawE_13icarus_derive5toolsNtB4_19ProcessedAttributes22has_canister_attribute
FN:507,_RNvMs_NtCs4sls2lKyawE_13icarus_derive5toolsNtB4_19ProcessedAttributes30needs_authentication_injection
FN:491,_RNvMs_NtCs4sls2lKyawE_13icarus_derive5toolsNtB4_19ProcessedAttributes3new
FN:241,_RNvNtCs4sls2lKyawE_13icarus_derive5tools16extract_is_query
FN:326,_RNvNtCs4sls2lKyawE_13icarus_derive5tools17extract_is_public
FN:306,_RNvNtCs4sls2lKyawE_13icarus_derive5tools17extract_tool_icon
FN:223,_RNvNtCs4sls2lKyawE_13icarus_derive5tools17extract_tool_name
FN:286,_RNvNtCs4sls2lKyawE_13icarus_derive5tools18extract_tool_title
FN:12,_RNvNtCs4sls2lKyawE_13icarus_derive5tools19expand_icarus_tools
FN:1047,_RNvNtCs4sls2lKyawE_13icarus_derive5tools19type_to_candid_type
FN:1036,_RNvNtCs4sls2lKyawE_13icarus_derive5tools19type_to_json_schema
FN:750,_RNvNtCs4sls2lKyawE_13icarus_derive5tools20expand_icarus_module
FN:127,_RNvNtCs4sls2lKyawE_13icarus_derive5tools21generate_query_method
FN:1058,_RNvNtCs4sls2lKyawE_13icarus_derive5tools22expand_icarus_canister
FN:575,_RNvNtCs4sls2lKyawE_13icarus_derive5tools22generate_init_function
FN:175,_RNvNtCs4sls2lKyawE_13icarus_derive5tools22generate_update_method
FN:601,_RNvNtCs4sls2lKyawE_13icarus_derive5tools23generate_auth_functions
FN:259,_RNvNtCs4sls2lKyawE_13icarus_derive5tools24extract_tool_description
FN:562,_RNvNtCs4sls2lKyawE_13icarus_derive5tools24inject_authenticate_call
FN:542,_RNvNtCs4sls2lKyawE_13icarus_derive5tools27extract_function_parameters
FN:348,_RNvNtCs4sls2lKyawE_13icarus_derive5tools27generate_async_query_method
FN:513,_RNvNtCs4sls2lKyawE_13icarus_derive5tools27process_function_attributes
FN:365,_RNvNtCs4sls2lKyawE_13icarus_derive5tools28generate_async_update_method
FN:716,_RNvNtCs4sls2lKyawE_13icarus_derive5tools28generate_list_tools_function
FN:439,_RNvXNtCs4sls2lKyawE_13icarus_derive5toolsNtB2_12ModuleConfigNtNtCsfZdZo8Jz4Of_3syn5parse5Parse5parse
FN:1079,_RNCNCNCNvNtCsdJxqUgS89VV_13icarus_derive5tools22expand_icarus_canisters0_000B9_
FN:36,_RNCNCNvNtCsdJxqUgS89VV_13icarus_derive5tools19expand_icarus_toolss_00B7_
FN:1077,_RNCNCNvNtCsdJxqUgS89VV_13icarus_derive5tools22expand_icarus_canisters0_00B7_
FN:245,_RNCNvNtCsdJxqUgS89VV_13icarus_derive5tools16extract_is_query0B5_
FN:330,_RNCNvNtCsdJxqUgS89VV_13icarus_derive5tools17extract_is_public0B5_
FN:310,_RNCNvNtCsdJxqUgS89VV_13icarus_derive5tools17extract_tool_icon0B5_
FN:227,_RNCNvNtCsdJxqUgS89VV_13icarus_derive5tools17extract_tool_name0B5_
FN:290,_RNCNvNtCsdJxqUgS89VV_13icarus_derive5tools18extract_tool_title0B5_
FN:26,_RNCNvNtCsdJxqUgS89VV_13icarus_derive5tools19expand_icarus_tools0B5_
FN:56,_RNCNvNtCsdJxqUgS89VV_13icarus_derive5tools19expand_icarus_toolss0_0B5_
FN:32,_RNCNvNtCsdJxqUgS89VV_13icarus_derive5tools19expand_icarus_toolss_0B5_
FN:796,_RNCNvNtCsdJxqUgS89VV_13icarus_derive5tools20expand_icarus_module0B5_
FN:822,_RNCNvNtCsdJxqUgS89VV_13icarus_derive5tools20expand_icarus_modules_0B5_
FN:134,_RNCNvNtCsdJxqUgS89VV_13icarus_derive5tools21generate_query_method0B5_
FN:139,_RNCNvNtCsdJxqUgS89VV_13icarus_derive5tools21generate_query_methods_0B5_
FN:1066,_RNCNvNtCsdJxqUgS89VV_13icarus_derive5tools22expand_icarus_canister0B5_
FN:1075,_RNCNvNtCsdJxqUgS89VV_13icarus_derive5tools22expand_icarus_canisters0_0B5_
FN:1085,_RNCNvNtCsdJxqUgS89VV_13icarus_derive5tools22expand_icarus_canisters1_0B5_
FN:1096,_RNCNvNtCsdJxqUgS89VV_13icarus_derive5tools22expand_icarus_canisters2_0B5_
FN:1121,_RNCNvNtCsdJxqUgS89VV_13icarus_derive5tools22expand_icarus_canisters3_0B5_
FN:1143,_RNCNvNtCsdJxqUgS89VV_13icarus_derive5tools22expand_icarus_canisters4_0B5_
FN:1067,_RNCNvNtCsdJxqUgS89VV_13icarus_derive5tools22expand_icarus_canisters_0B5_
FN:182,_RNCNvNtCsdJxqUgS89VV_13icarus_derive5tools22generate_update_method0B5_
FN:187,_RNCNvNtCsdJxqUgS89VV_13icarus_derive5tools22generate_update_methods_0B5_
FN:269,_RNCNvNtCsdJxqUgS89VV_13icarus_derive5tools24extract_tool_description0B5_
FN:546,_RNCNvNtCsdJxqUgS89VV_13icarus_derive5tools27extract_function_parameters0B5_
FN:372,_RNCNvNtCsdJxqUgS89VV_13icarus_derive5tools28generate_async_update_method0B5_
FN:377,_RNCNvNtCsdJxqUgS89VV_13icarus_derive5tools28generate_async_update_methods_0B5_
FN:902,_RNvMs0_NtCsdJxqUgS89VV_13icarus_derive5toolsNtB5_19ToolMetadataBuilder17generate_metadata
FN:869,_RNvMs0_NtCsdJxqUgS89VV_13icarus_derive5toolsNtB5_19ToolMetadataBuilder3new
FN:885,_RNvMs0_NtCsdJxqUgS89VV_13icarus_derive5toolsNtB5_19ToolMetadataBuilder9from_refs
FN:503,_RNvMs_NtCsdJxqUgS89VV_13icarus_derive5toolsNtB4_19ProcessedAttributes22has_canister_attribute
FN:507,_RNvMs_NtCsdJxqUgS89VV_13icarus_derive5toolsNtB4_19ProcessedAttributes30needs_authentication_injection
FN:491,_RNvMs_NtCsdJxqUgS89VV_13icarus_derive5toolsNtB4_19ProcessedAttributes3new
FN:241,_RNvNtCsdJxqUgS89VV_13icarus_derive5tools16extract_is_query
FN:326,_RNvNtCsdJxqUgS89VV_13icarus_derive5tools17extract_is_public
FN:306,_RNvNtCsdJxqUgS89VV_13icarus_derive5tools17extract_tool_icon
FN:223,_RNvNtCsdJxqUgS89VV_13icarus_derive5tools17extract_tool_name
FN:286,_RNvNtCsdJxqUgS89VV_13icarus_derive5tools18extract_tool_title
FN:12,_RNvNtCsdJxqUgS89VV_13icarus_derive5tools19expand_icarus_tools
FN:1047,_RNvNtCsdJxqUgS89VV_13icarus_derive5tools19type_to_candid_type
FN:1036,_RNvNtCsdJxqUgS89VV_13icarus_derive5tools19type_to_json_schema
FN:750,_RNvNtCsdJxqUgS89VV_13icarus_derive5tools20expand_icarus_module
FN:127,_RNvNtCsdJxqUgS89VV_13icarus_derive5tools21generate_query_method
FN:1058,_RNvNtCsdJxqUgS89VV_13icarus_derive5tools22expand_icarus_canister
FN:575,_RNvNtCsdJxqUgS89VV_13icarus_derive5tools22generate_init_function
FN:175,_RNvNtCsdJxqUgS89VV_13icarus_derive5tools22generate_update_method
FN:601,_RNvNtCsdJxqUgS89VV_13icarus_derive5tools23generate_auth_functions
FN:259,_RNvNtCsdJxqUgS89VV_13icarus_derive5tools24extract_tool_description
FN:562,_RNvNtCsdJxqUgS89VV_13icarus_derive5tools24inject_authenticate_call
FN:542,_RNvNtCsdJxqUgS89VV_13icarus_derive5tools27extract_function_parameters
FN:348,_RNvNtCsdJxqUgS89VV_13icarus_derive5tools27generate_async_query_method
FN:513,_RNvNtCsdJxqUgS89VV_13icarus_derive5tools27process_function_attributes
FN:365,_RNvNtCsdJxqUgS89VV_13icarus_derive5tools28generate_async_update_method
FN:716,_RNvNtCsdJxqUgS89VV_13icarus_derive5tools28generate_list_tools_function
FN:439,_RNvXNtCsdJxqUgS89VV_13icarus_derive5toolsNtB2_12ModuleConfigNtNtCsfZdZo8Jz4Of_3syn5parse5Parse5parse
FNDA:0,_RNCNCNCNvNtCs4sls2lKyawE_13icarus_derive5tools22expand_icarus_canisters0_000B9_
FNDA:0,_RNCNCNvNtCs4sls2lKyawE_13icarus_derive5tools19expand_icarus_toolss_00B7_
FNDA:0,_RNCNCNvNtCs4sls2lKyawE_13icarus_derive5tools22expand_icarus_canisters0_00B7_
FNDA:0,_RNCNvNtCs4sls2lKyawE_13icarus_derive5tools16extract_is_query0B5_
FNDA:0,_RNCNvNtCs4sls2lKyawE_13icarus_derive5tools17extract_is_public0B5_
FNDA:0,_RNCNvNtCs4sls2lKyawE_13icarus_derive5tools17extract_tool_icon0B5_
FNDA:0,_RNCNvNtCs4sls2lKyawE_13icarus_derive5tools17extract_tool_name0B5_
FNDA:0,_RNCNvNtCs4sls2lKyawE_13icarus_derive5tools18extract_tool_title0B5_
FNDA:0,_RNCNvNtCs4sls2lKyawE_13icarus_derive5tools19expand_icarus_tools0B5_
FNDA:0,_RNCNvNtCs4sls2lKyawE_13icarus_derive5tools19expand_icarus_toolss0_0B5_
FNDA:0,_RNCNvNtCs4sls2lKyawE_13icarus_derive5tools19expand_icarus_toolss_0B5_
FNDA:0,_RNCNvNtCs4sls2lKyawE_13icarus_derive5tools20expand_icarus_module0B5_
FNDA:0,_RNCNvNtCs4sls2lKyawE_13icarus_derive5tools20expand_icarus_modules_0B5_
FNDA:0,_RNCNvNtCs4sls2lKyawE_13icarus_derive5tools21generate_query_method0B5_
FNDA:0,_RNCNvNtCs4sls2lKyawE_13icarus_derive5tools21generate_query_methods_0B5_
FNDA:0,_RNCNvNtCs4sls2lKyawE_13icarus_derive5tools22expand_icarus_canister0B5_
FNDA:0,_RNCNvNtCs4sls2lKyawE_13icarus_derive5tools22expand_icarus_canisters0_0B5_
FNDA:0,_RNCNvNtCs4sls2lKyawE_13icarus_derive5tools22expand_icarus_canisters1_0B5_
FNDA:0,_RNCNvNtCs4sls2lKyawE_13icarus_derive5tools22expand_icarus_canisters2_0B5_
FNDA:0,_RNCNvNtCs4sls2lKyawE_13icarus_derive5tools22expand_icarus_canisters3_0B5_
FNDA:0,_RNCNvNtCs4sls2lKyawE_13icarus_derive5tools22expand_icarus_canisters4_0B5_
FNDA:0,_RNCNvNtCs4sls2lKyawE_13icarus_derive5tools22expand_icarus_canisters_0B5_
FNDA:0,_RNCNvNtCs4sls2lKyawE_13icarus_derive5tools22generate_update_method0B5_
FNDA:0,_RNCNvNtCs4sls2lKyawE_13icarus_derive5tools22generate_update_methods_0B5_
FNDA:0,_RNCNvNtCs4sls2lKyawE_13icarus_derive5tools24extract_tool_description0B5_
FNDA:0,_RNCNvNtCs4sls2lKyawE_13icarus_derive5tools27extract_function_parameters0B5_
FNDA:0,_RNCNvNtCs4sls2lKyawE_13icarus_derive5tools28generate_async_update_method0B5_
FNDA:0,_RNCNvNtCs4sls2lKyawE_13icarus_derive5tools28generate_async_update_methods_0B5_
FNDA:0,_RNvMs0_NtCs4sls2lKyawE_13icarus_derive5toolsNtB5_19ToolMetadataBuilder17generate_metadata
FNDA:0,_RNvMs0_NtCs4sls2lKyawE_13icarus_derive5toolsNtB5_19ToolMetadataBuilder3new
FNDA:0,_RNvMs0_NtCs4sls2lKyawE_13icarus_derive5toolsNtB5_19ToolMetadataBuilder9from_refs
FNDA:0,_RNvMs_NtCs4sls2lKyawE_13icarus_derive5toolsNtB4_19ProcessedAttributes22has_canister_attribute
FNDA:0,_RNvMs_NtCs4sls2lKyawE_13icarus_derive5toolsNtB4_19ProcessedAttributes30needs_authentication_injection
FNDA:0,_RNvMs_NtCs4sls2lKyawE_13icarus_derive5toolsNtB4_19ProcessedAttributes3new
FNDA:0,_RNvNtCs4sls2lKyawE_13icarus_derive5tools16extract_is_query
FNDA:0,_RNvNtCs4sls2lKyawE_13icarus_derive5tools17extract_is_public
FNDA:0,_RNvNtCs4sls2lKyawE_13icarus_derive5tools17extract_tool_icon
FNDA:0,_RNvNtCs4sls2lKyawE_13icarus_derive5tools17extract_tool_name
FNDA:0,_RNvNtCs4sls2lKyawE_13icarus_derive5tools18extract_tool_title
FNDA:0,_RNvNtCs4sls2lKyawE_13icarus_derive5tools19expand_icarus_tools
FNDA:0,_RNvNtCs4sls2lKyawE_13icarus_derive5tools19type_to_candid_type
FNDA:0,_RNvNtCs4sls2lKyawE_13icarus_derive5tools19type_to_json_schema
FNDA:0,_RNvNtCs4sls2lKyawE_13icarus_derive5tools20expand_icarus_module
FNDA:0,_RNvNtCs4sls2lKyawE_13icarus_derive5tools21generate_query_method
FNDA:0,_RNvNtCs4sls2lKyawE_13icarus_derive5tools22expand_icarus_canister
FNDA:0,_RNvNtCs4sls2lKyawE_13icarus_derive5tools22generate_init_function
FNDA:0,_RNvNtCs4sls2lKyawE_13icarus_derive5tools22generate_update_method
FNDA:0,_RNvNtCs4sls2lKyawE_13icarus_derive5tools23generate_auth_functions
FNDA:0,_RNvNtCs4sls2lKyawE_13icarus_derive5tools24extract_tool_description
FNDA:0,_RNvNtCs4sls2lKyawE_13icarus_derive5tools24inject_authenticate_call
FNDA:0,_RNvNtCs4sls2lKyawE_13icarus_derive5tools27extract_function_parameters
FNDA:0,_RNvNtCs4sls2lKyawE_13icarus_derive5tools27generate_async_query_method
FNDA:0,_RNvNtCs4sls2lKyawE_13icarus_derive5tools27process_function_attributes
FNDA:0,_RNvNtCs4sls2lKyawE_13icarus_derive5tools28generate_async_update_method
FNDA:0,_RNvNtCs4sls2lKyawE_13icarus_derive5tools28generate_list_tools_function
FNDA:0,_RNvXNtCs4sls2lKyawE_13icarus_derive5toolsNtB2_12ModuleConfigNtNtCsfZdZo8Jz4Of_3syn5parse5Parse5parse
FNDA:0,_RNCNCNCNvNtCsdJxqUgS89VV_13icarus_derive5tools22expand_icarus_canisters0_000B9_
FNDA:0,_RNCNCNvNtCsdJxqUgS89VV_13icarus_derive5tools19expand_icarus_toolss_00B7_
FNDA:0,_RNCNCNvNtCsdJxqUgS89VV_13icarus_derive5tools22expand_icarus_canisters0_00B7_
FNDA:0,_RNCNvNtCsdJxqUgS89VV_13icarus_derive5tools16extract_is_query0B5_
FNDA:0,_RNCNvNtCsdJxqUgS89VV_13icarus_derive5tools17extract_is_public0B5_
FNDA:0,_RNCNvNtCsdJxqUgS89VV_13icarus_derive5tools17extract_tool_icon0B5_
FNDA:0,_RNCNvNtCsdJxqUgS89VV_13icarus_derive5tools17extract_tool_name0B5_
FNDA:0,_RNCNvNtCsdJxqUgS89VV_13icarus_derive5tools18extract_tool_title0B5_
FNDA:0,_RNCNvNtCsdJxqUgS89VV_13icarus_derive5tools19expand_icarus_tools0B5_
FNDA:0,_RNCNvNtCsdJxqUgS89VV_13icarus_derive5tools19expand_icarus_toolss0_0B5_
FNDA:0,_RNCNvNtCsdJxqUgS89VV_13icarus_derive5tools19expand_icarus_toolss_0B5_
FNDA:0,_RNCNvNtCsdJxqUgS89VV_13icarus_derive5tools20expand_icarus_module0B5_
FNDA:0,_RNCNvNtCsdJxqUgS89VV_13icarus_derive5tools20expand_icarus_modules_0B5_
FNDA:0,_RNCNvNtCsdJxqUgS89VV_13icarus_derive5tools21generate_query_method0B5_
FNDA:0,_RNCNvNtCsdJxqUgS89VV_13icarus_derive5tools21generate_query_methods_0B5_
FNDA:0,_RNCNvNtCsdJxqUgS89VV_13icarus_derive5tools22expand_icarus_canister0B5_
FNDA:0,_RNCNvNtCsdJxqUgS89VV_13icarus_derive5tools22expand_icarus_canisters0_0B5_
FNDA:0,_RNCNvNtCsdJxqUgS89VV_13icarus_derive5tools22expand_icarus_canisters1_0B5_
FNDA:0,_RNCNvNtCsdJxqUgS89VV_13icarus_derive5tools22expand_icarus_canisters2_0B5_
FNDA:0,_RNCNvNtCsdJxqUgS89VV_13icarus_derive5tools22expand_icarus_canisters3_0B5_
FNDA:0,_RNCNvNtCsdJxqUgS89VV_13icarus_derive5tools22expand_icarus_canisters4_0B5_
FNDA:0,_RNCNvNtCsdJxqUgS89VV_13icarus_derive5tools22expand_icarus_canisters_0B5_
FNDA:0,_RNCNvNtCsdJxqUgS89VV_13icarus_derive5tools22generate_update_method0B5_
FNDA:0,_RNCNvNtCsdJxqUgS89VV_13icarus_derive5tools22generate_update_methods_0B5_
FNDA:0,_RNCNvNtCsdJxqUgS89VV_13icarus_derive5tools24extract_tool_description0B5_
FNDA:0,_RNCNvNtCsdJxqUgS89VV_13icarus_derive5tools27extract_function_parameters0B5_
FNDA:0,_RNCNvNtCsdJxqUgS89VV_13icarus_derive5tools28generate_async_update_method0B5_
FNDA:0,_RNCNvNtCsdJxqUgS89VV_13icarus_derive5tools28generate_async_update_methods_0B5_
FNDA:0,_RNvMs0_NtCsdJxqUgS89VV_13icarus_derive5toolsNtB5_19ToolMetadataBuilder17generate_metadata
FNDA:0,_RNvMs0_NtCsdJxqUgS89VV_13icarus_derive5toolsNtB5_19ToolMetadataBuilder3new
FNDA:0,_RNvMs0_NtCsdJxqUgS89VV_13icarus_derive5toolsNtB5_19ToolMetadataBuilder9from_refs
FNDA:0,_RNvMs_NtCsdJxqUgS89VV_13icarus_derive5toolsNtB4_19ProcessedAttributes22has_canister_attribute
FNDA:0,_RNvMs_NtCsdJxqUgS89VV_13icarus_derive5toolsNtB4_19ProcessedAttributes30needs_authentication_injection
FNDA:0,_RNvMs_NtCsdJxqUgS89VV_13icarus_derive5toolsNtB4_19ProcessedAttributes3new
FNDA:0,_RNvNtCsdJxqUgS89VV_13icarus_derive5tools16extract_is_query
FNDA:0,_RNvNtCsdJxqUgS89VV_13icarus_derive5tools17extract_is_public
FNDA:0,_RNvNtCsdJxqUgS89VV_13icarus_derive5tools17extract_tool_icon
FNDA:0,_RNvNtCsdJxqUgS89VV_13icarus_derive5tools17extract_tool_name
FNDA:0,_RNvNtCsdJxqUgS89VV_13icarus_derive5tools18extract_tool_title
FNDA:0,_RNvNtCsdJxqUgS89VV_13icarus_derive5tools19expand_icarus_tools
FNDA:0,_RNvNtCsdJxqUgS89VV_13icarus_derive5tools19type_to_candid_type
FNDA:0,_RNvNtCsdJxqUgS89VV_13icarus_derive5tools19type_to_json_schema
FNDA:0,_RNvNtCsdJxqUgS89VV_13icarus_derive5tools20expand_icarus_module
FNDA:0,_RNvNtCsdJxqUgS89VV_13icarus_derive5tools21generate_query_method
FNDA:0,_RNvNtCsdJxqUgS89VV_13icarus_derive5tools22expand_icarus_canister
FNDA:0,_RNvNtCsdJxqUgS89VV_13icarus_derive5tools22generate_init_function
FNDA:0,_RNvNtCsdJxqUgS89VV_13icarus_derive5tools22generate_update_method
FNDA:0,_RNvNtCsdJxqUgS89VV_13icarus_derive5tools23generate_auth_functions
FNDA:0,_RNvNtCsdJxqUgS89VV_13icarus_derive5tools24extract_tool_description
FNDA:0,_RNvNtCsdJxqUgS89VV_13icarus_derive5tools24inject_authenticate_call
FNDA:0,_RNvNtCsdJxqUgS89VV_13icarus_derive5tools27extract_function_parameters
FNDA:0,_RNvNtCsdJxqUgS89VV_13icarus_derive5tools27generate_async_query_method
FNDA:0,_RNvNtCsdJxqUgS89VV_13icarus_derive5tools27process_function_attributes
FNDA:0,_RNvNtCsdJxqUgS89VV_13icarus_derive5tools28generate_async_update_method
FNDA:0,_RNvNtCsdJxqUgS89VV_13icarus_derive5tools28generate_list_tools_function
FNDA:0,_RNvXNtCsdJxqUgS89VV_13icarus_derive5toolsNtB2_12ModuleConfigNtNtCsfZdZo8Jz4Of_3syn5parse5Parse5parse
FNF:56
FNH:0
DA:12,0
DA:13,0
DA:16,0
DA:17,0
DA:19,0
DA:20,0
DA:22,0
DA:23,0
DA:24,0
DA:25,0
DA:26,0
DA:27,0
DA:28,0
DA:29,0
DA:32,0
DA:33,0
DA:34,0
DA:35,0
DA:36,0
DA:38,0
DA:41,0
DA:45,0
DA:47,0
DA:48,0
DA:49,0
DA:52,0
DA:53,0
DA:54,0
DA:55,0
DA:56,0
DA:57,0
DA:58,0
DA:59,0
DA:61,0
DA:64,0
DA:66,0
DA:67,0
DA:70,0
DA:87,0
DA:89,0
DA:92,0
DA:94,0
DA:95,0
DA:96,0
DA:97,0
DA:98,0
DA:101,0
DA:105,0
DA:106,0
DA:108,0
DA:112,0
DA:125,0
DA:127,0
DA:128,0
DA:129,0
DA:130,0
DA:131,0
DA:132,0
DA:134,0
DA:135,0
DA:136,0
DA:139,0
DA:140,0
DA:141,0
DA:143,0
DA:144,0
DA:146,0
DA:152,0
DA:173,0
DA:175,0
DA:176,0
DA:177,0
DA:178,0
DA:179,0
DA:180,0
DA:182,0
DA:183,0
DA:184,0
DA:187,0
DA:188,0
DA:189,0
DA:191,0
DA:192,0
DA:194,0
DA:200,0
DA:221,0
DA:223,0
DA:225,0
DA:227,0
DA:228,0
DA:229,0
DA:230,0
DA:231,0
DA:232,0
DA:233,0
DA:234,0
DA:235,0
DA:236,0
DA:238,0
DA:239,0
DA:241,0
DA:243,0
DA:245,0
DA:246,0
DA:247,0
DA:248,0
DA:249,0
DA:250,0
DA:251,0
DA:252,0
DA:253,0
DA:254,0
DA:256,0
DA:257,0
DA:259,0
DA:261,0
DA:263,0
DA:264,0
DA:265,0
DA:268,0
DA:269,0
DA:270,0
DA:271,0
DA:272,0
DA:273,0
DA:274,0
DA:275,0
DA:276,0
DA:277,0
DA:278,0
DA:280,0
DA:282,0
DA:284,0
DA:286,0
DA:288,0
DA:289,0
DA:290,0
DA:291,0
DA:292,0
DA:293,0
DA:294,0
DA:295,0
DA:296,0
DA:297,0
DA:298,0
DA:299,0
DA:300,0
DA:302,0
DA:304,0
DA:306,0
DA:308,0
DA:309,0
DA:310,0
DA:311,0
DA:312,0
DA:313,0
DA:314,0
DA:315,0
DA:316,0
DA:317,0
DA:318,0
DA:319,0
DA:320,0
DA:322,0
DA:324,0
DA:326,0
DA:328,0
DA:330,0
DA:331,0
DA:332,0
DA:333,0
DA:334,0
DA:335,0
DA:336,0
DA:337,0
DA:338,0
DA:339,0
DA:340,0
DA:341,0
DA:342,0
DA:344,0
DA:345,0
DA:348,0
DA:349,0
DA:350,0
DA:351,0
DA:352,0
DA:353,0
DA:354,0
DA:362,0
DA:365,0
DA:366,0
DA:367,0
DA:368,0
DA:369,0
DA:370,0
DA:372,0
DA:373,0
DA:374,0
DA:377,0
DA:378,0
DA:379,0
DA:381,0
DA:382,0
DA:384,0
DA:390,0
DA:426,0
DA:439,0
DA:440,0
DA:443,0
DA:444,0
DA:445,0
DA:448,0
DA:449,0
DA:450,0
DA:451,0
DA:453,0
DA:454,0
DA:455,0
DA:456,0
DA:458,0
DA:459,0
DA:460,0
DA:461,0
DA:462,0
DA:463,0
DA:464,0
DA:469,0
DA:470,0
DA:471,0
DA:474,0
DA:475,0
DA:491,0
DA:492,0
DA:493,0
DA:494,0
DA:495,0
DA:496,0
DA:497,0
DA:498,0
DA:499,0
DA:500,0
DA:501,0
DA:503,0
DA:504,0
DA:505,0
DA:507,0
DA:508,0
DA:509,0
DA:513,0
DA:514,0
DA:516,0
DA:517,0
DA:518,0
DA:519,0
DA:520,0
DA:521,0
DA:522,0
DA:523,0
DA:524,0
DA:525,0
DA:526,0
DA:527,0
DA:528,0
DA:529,0
DA:530,0
DA:531,0
DA:532,0
DA:533,0
DA:534,0
DA:535,0
DA:538,0
DA:539,0
DA:542,0
DA:543,0
DA:544,0
DA:545,0
DA:546,0
DA:547,0
DA:548,0
DA:549,0
DA:551,0
DA:554,0
DA:556,0
DA:557,0
DA:558,0
DA:562,0
DA:566,0
DA:571,0
DA:572,0
DA:575,0
DA:576,0
DA:598,0
DA:601,0
DA:602,0
DA:713,0
DA:716,0
DA:717,0
DA:718,0
DA:719,0
DA:720,0
DA:721,0
DA:723,0
DA:747,0
DA:750,0
DA:751,0
DA:752,0
DA:755,0
DA:756,0
DA:759,0
DA:764,0
DA:765,0
DA:768,0
DA:769,0
DA:771,0
DA:773,0
DA:775,0
DA:776,0
DA:777,0
DA:778,0
DA:780,0
DA:781,0
DA:782,0
DA:783,0
DA:784,0
DA:785,0
DA:788,0
DA:789,0
DA:790,0
DA:793,0
DA:794,0
DA:795,0
DA:796,0
DA:797,0
DA:798,0
DA:799,0
DA:800,0
DA:804,0
DA:805,0
DA:806,0
DA:807,0
DA:808,0
DA:809,0
DA:810,0
DA:811,0
DA:812,0
DA:813,0
DA:814,0
DA:815,0
DA:819,0
DA:820,0
DA:821,0
DA:822,0
DA:823,0
DA:824,0
DA:825,0
DA:826,0
DA:827,0
DA:828,0
DA:830,0
DA:831,0
DA:833,0
DA:836,0
DA:839,0
DA:840,0
DA:843,0
DA:856,0
DA:869,0
DA:870,0
DA:871,0
DA:872,0
DA:873,0
DA:874,0
DA:875,0
DA:876,0
DA:877,0
DA:878,0
DA:879,0
DA:880,0
DA:881,0
DA:882,0
DA:883,0
DA:885,0
DA:886,0
DA:887,0
DA:888,0
DA:889,0
DA:890,0
DA:891,0
DA:892,0
DA:893,0
DA:894,0
DA:895,0
DA:896,0
DA:897,0
DA:898,0
DA:899,0
DA:902,0
DA:904,0
DA:905,0
DA:906,0
DA:907,0
DA:910,0
DA:911,0
DA:912,0
DA:913,0
DA:915,0
DA:916,0
DA:919,0
DA:926,0
DA:927,0
DA:928,0
DA:930,0
DA:931,0
DA:934,0
DA:935,0
DA:936,0
DA:937,0
DA:940,0
DA:941,0
DA:943,0
DA:947,0
DA:982,0
DA:1036,0
DA:1038,0
DA:1039,0
DA:1040,0
DA:1041,0
DA:1043,0
DA:1044,0
DA:1047,0
DA:1049,0
DA:1050,0
DA:1051,0
DA:1052,0
DA:1054,0
DA:1055,0
DA:1058,0
DA:1060,0
DA:1063,0
DA:1064,0
DA:1066,0
DA:1067,0
DA:1069,0
DA:1071,0
DA:1072,0
DA:1073,0
DA:1074,0
DA:1075,0
DA:1077,0
DA:1078,0
DA:1079,0
DA:1081,0
DA:1083,0
DA:1084,0
DA:1085,0
DA:1088,0
DA:1089,0
DA:1092,0
DA:1093,0
DA:1094,0
DA:1095,0
DA:1096,0
DA:1097,0
DA:1098,0
DA:1099,0
DA:1101,0
DA:1104,0
DA:1106,0
DA:1107,0
DA:1110,0
DA:1111,0
DA:1113,0
DA:1114,0
DA:1115,0
DA:1119,0
DA:1120,0
DA:1121,0
DA:1122,0
DA:1123,0
DA:1124,0
DA:1125,0
DA:1128,0
DA:1143,0
DA:1144,0
DA:1145,0
DA:1146,0
DA:1148,0
DA:1149,0
DA:1152,0
DA:1153,0
DA:1154,0
DA:1158,0
BRF:0
BRH:0
LF:521
LH:0
end_of_record
SF:/Users/goshea/projects/icarus/icarus-sdk/crates/icarus-derive/src/validation.rs
FN:32,_RNvMNtCs4sls2lKyawE_13icarus_derive10validationNtB2_16ValidationResult11add_warning
FN:19,_RNvMNtCs4sls2lKyawE_13icarus_derive10validationNtB2_16ValidationResult3new
FN:27,_RNvMNtCs4sls2lKyawE_13icarus_derive10validationNtB2_16ValidationResult9add_error
FN:127,_RNvNtCs4sls2lKyawE_13icarus_derive10validation14has_references
FN:86,_RNvNtCs4sls2lKyawE_13icarus_derive10validation14is_result_type
FN:140,_RNvNtCs4sls2lKyawE_13icarus_derive10validation17is_simple_pattern
FN:145,_RNvNtCs4sls2lKyawE_13icarus_derive10validation19validate_async_sync
FN:96,_RNvNtCs4sls2lKyawE_13icarus_derive10validation19validate_parameters
FN:69,_RNvNtCs4sls2lKyawE_13icarus_derive10validation20validate_return_type
FN:38,_RNvNtCs4sls2lKyawE_13icarus_derive10validation22validate_tool_function
FN:199,_RNCNvNtNtCs4sls2lKyawE_13icarus_derive10validation5testss_23test_must_return_result0B7_
FN:212,_RNCNvNtNtCs4sls2lKyawE_13icarus_derive10validation5testss_23test_no_self_parameters0B7_
FN:279,_RNCNvNtNtCs4sls2lKyawE_13icarus_derive10validation5testss_24test_void_return_warning0B7_
FN:251,_RNCNvNtNtCs4sls2lKyawE_13icarus_derive10validation5testss_25test_reference_parameters0B7_
FN:225,_RNCNvNtNtCs4sls2lKyawE_13icarus_derive10validation5testss_26test_both_query_and_update0B7_
FN:183,_RNCNvNtNtCs4sls2lKyawE_13icarus_derive10validation5testss_26test_query_cannot_be_async0B7_
FN:265,_RNCNvNtNtCs4sls2lKyawE_13icarus_derive10validation5testss_28test_complex_pattern_warning0B7_
FN:238,_RNCNvNtNtCs4sls2lKyawE_13icarus_derive10validation5testss_29test_neither_query_nor_update0B7_
FN:406,_RNCNvNtNtCs4sls2lKyawE_13icarus_derive10validation5testss_35test_mixed_valid_invalid_parameters0B7_
FN:337,_RNvNtNtCs4sls2lKyawE_13icarus_derive10validation5testss_19test_has_references
FN:322,_RNvNtNtCs4sls2lKyawE_13icarus_derive10validation5testss_19test_is_result_type
FN:283,_RNvNtNtCs4sls2lKyawE_13icarus_derive10validation5testss_21test_sync_query_valid
FN:352,_RNvNtNtCs4sls2lKyawE_13icarus_derive10validation5testss_22test_is_simple_pattern
FN:309,_RNvNtNtCs4sls2lKyawE_13icarus_derive10validation5testss_22test_sync_update_valid
FN:296,_RNvNtNtCs4sls2lKyawE_13icarus_derive10validation5testss_23test_async_update_valid
FN:187,_RNvNtNtCs4sls2lKyawE_13icarus_derive10validation5testss_23test_must_return_result
FN:203,_RNvNtNtCs4sls2lKyawE_13icarus_derive10validation5testss_23test_no_self_parameters
FN:161,_RNvNtNtCs4sls2lKyawE_13icarus_derive10validation5testss_24test_valid_tool_function
FN:269,_RNvNtNtCs4sls2lKyawE_13icarus_derive10validation5testss_24test_void_return_warning
FN:242,_RNvNtNtCs4sls2lKyawE_13icarus_derive10validation5testss_25test_reference_parameters
FN:216,_RNvNtNtCs4sls2lKyawE_13icarus_derive10validation5testss_26test_both_query_and_update
FN:174,_RNvNtNtCs4sls2lKyawE_13icarus_derive10validation5testss_26test_query_cannot_be_async
FN:255,_RNvNtNtCs4sls2lKyawE_13icarus_derive10validation5testss_28test_complex_pattern_warning
FN:384,_RNvNtNtCs4sls2lKyawE_13icarus_derive10validation5testss_29test_multiple_parameter_types
FN:229,_RNvNtNtCs4sls2lKyawE_13icarus_derive10validation5testss_29test_neither_query_nor_update
FN:397,_RNvNtNtCs4sls2lKyawE_13icarus_derive10validation5testss_35test_mixed_valid_invalid_parameters
FN:364,_RNvNtNtCs4sls2lKyawE_13icarus_derive10validation5testss_35test_validation_result_accumulation
FN:32,_RNvMNtCsdJxqUgS89VV_13icarus_derive10validationNtB2_16ValidationResult11add_warning
FN:19,_RNvMNtCsdJxqUgS89VV_13icarus_derive10validationNtB2_16ValidationResult3new
FN:27,_RNvMNtCsdJxqUgS89VV_13icarus_derive10validationNtB2_16ValidationResult9add_error
FN:127,_RNvNtCsdJxqUgS89VV_13icarus_derive10validation14has_references
FN:86,_RNvNtCsdJxqUgS89VV_13icarus_derive10validation14is_result_type
FN:140,_RNvNtCsdJxqUgS89VV_13icarus_derive10validation17is_simple_pattern
FN:145,_RNvNtCsdJxqUgS89VV_13icarus_derive10validation19validate_async_sync
FN:96,_RNvNtCsdJxqUgS89VV_13icarus_derive10validation19validate_parameters
FN:69,_RNvNtCsdJxqUgS89VV_13icarus_derive10validation20validate_return_type
FN:38,_RNvNtCsdJxqUgS89VV_13icarus_derive10validation22validate_tool_function
FNDA:3,_RNvMNtCs4sls2lKyawE_13icarus_derive10validationNtB2_16ValidationResult11add_warning
FNDA:15,_RNvMNtCs4sls2lKyawE_13icarus_derive10validationNtB2_16ValidationResult3new
FNDA:9,_RNvMNtCs4sls2lKyawE_13icarus_derive10validationNtB2_16ValidationResult9add_error
FNDA:12,_RNvNtCs4sls2lKyawE_13icarus_derive10validation14has_references
FNDA:17,_RNvNtCs4sls2lKyawE_13icarus_derive10validation14is_result_type
FNDA:11,_RNvNtCs4sls2lKyawE_13icarus_derive10validation17is_simple_pattern
FNDA:14,_RNvNtCs4sls2lKyawE_13icarus_derive10validation19validate_async_sync
FNDA:14,_RNvNtCs4sls2lKyawE_13icarus_derive10validation19validate_parameters
FNDA:14,_RNvNtCs4sls2lKyawE_13icarus_derive10validation20validate_return_type
FNDA:14,_RNvNtCs4sls2lKyawE_13icarus_derive10validation22validate_tool_function
FNDA:1,_RNCNvNtNtCs4sls2lKyawE_13icarus_derive10validation5testss_23test_must_return_result0B7_
FNDA:1,_RNCNvNtNtCs4sls2lKyawE_13icarus_derive10validation5testss_23test_no_self_parameters0B7_
FNDA:1,_RNCNvNtNtCs4sls2lKyawE_13icarus_derive10validation5testss_24test_void_return_warning0B7_
FNDA:1,_RNCNvNtNtCs4sls2lKyawE_13icarus_derive10validation5testss_25test_reference_parameters0B7_
FNDA:1,_RNCNvNtNtCs4sls2lKyawE_13icarus_derive10validation5testss_26test_both_query_and_update0B7_
FNDA:1,_RNCNvNtNtCs4sls2lKyawE_13icarus_derive10validation5testss_26test_query_cannot_be_async0B7_
FNDA:1,_RNCNvNtNtCs4sls2lKyawE_13icarus_derive10validation5testss_28test_complex_pattern_warning0B7_
FNDA:1,_RNCNvNtNtCs4sls2lKyawE_13icarus_derive10validation5testss_29test_neither_query_nor_update0B7_
FNDA:1,_RNCNvNtNtCs4sls2lKyawE_13icarus_derive10validation5testss_35test_mixed_valid_invalid_parameters0B7_
FNDA:1,_RNvNtNtCs4sls2lKyawE_13icarus_derive10validation5testss_19test_has_references
FNDA:1,_RNvNtNtCs4sls2lKyawE_13icarus_derive10validation5testss_19test_is_result_type
FNDA:1,_RNvNtNtCs4sls2lKyawE_13icarus_derive10validation5testss_21test_sync_query_valid
FNDA:1,_RNvNtNtCs4sls2lKyawE_13icarus_derive10validation5testss_22test_is_simple_pattern
FNDA:1,_RNvNtNtCs4sls2lKyawE_13icarus_derive10validation5testss_22test_sync_update_valid
FNDA:1,_RNvNtNtCs4sls2lKyawE_13icarus_derive10validation5testss_23test_async_update_valid
FNDA:1,_RNvNtNtCs4sls2lKyawE_13icarus_derive10validation5testss_23test_must_return_result
FNDA:1,_RNvNtNtCs4sls2lKyawE_13icarus_derive10validation5testss_23test_no_self_parameters
FNDA:1,_RNvNtNtCs4sls2lKyawE_13icarus_derive10validation5testss_24test_valid_tool_function
FNDA:1,_RNvNtNtCs4sls2lKyawE_13icarus_derive10validation5testss_24test_void_return_warning
FNDA:1,_RNvNtNtCs4sls2lKyawE_13icarus_derive10validation5testss_25test_reference_parameters
FNDA:1,_RNvNtNtCs4sls2lKyawE_13icarus_derive10validation5testss_26test_both_query_and_update
FNDA:1,_RNvNtNtCs4sls2lKyawE_13icarus_derive10validation5testss_26test_query_cannot_be_async
FNDA:1,_RNvNtNtCs4sls2lKyawE_13icarus_derive10validation5testss_28test_complex_pattern_warning
FNDA:1,_RNvNtNtCs4sls2lKyawE_13icarus_derive10validation5testss_29test_multiple_parameter_types
FNDA:1,_RNvNtNtCs4sls2lKyawE_13icarus_derive10validation5testss_29test_neither_query_nor_update
FNDA:1,_RNvNtNtCs4sls2lKyawE_13icarus_derive10validation5testss_35test_mixed_valid_invalid_parameters
FNDA:1,_RNvNtNtCs4sls2lKyawE_13icarus_derive10validation5testss_35test_validation_result_accumulation
FNDA:0,_RNvMNtCsdJxqUgS89VV_13icarus_derive10validationNtB2_16ValidationResult11add_warning
FNDA:0,_RNvMNtCsdJxqUgS89VV_13icarus_derive10validationNtB2_16ValidationResult3new
FNDA:0,_RNvMNtCsdJxqUgS89VV_13icarus_derive10validationNtB2_16ValidationResult9add_error
FNDA:0,_RNvNtCsdJxqUgS89VV_13icarus_derive10validation14has_references
FNDA:0,_RNvNtCsdJxqUgS89VV_13icarus_derive10validation14is_result_type
FNDA:0,_RNvNtCsdJxqUgS89VV_13icarus_derive10validation17is_simple_pattern
FNDA:0,_RNvNtCsdJxqUgS89VV_13icarus_derive10validation19validate_async_sync
FNDA:0,_RNvNtCsdJxqUgS89VV_13icarus_derive10validation19validate_parameters
FNDA:0,_RNvNtCsdJxqUgS89VV_13icarus_derive10validation20validate_return_type
FNDA:0,_RNvNtCsdJxqUgS89VV_13icarus_derive10validation22validate_tool_function
FNF:37
FNH:37
DA:19,15
DA:20,15
DA:21,15
DA:22,15
DA:23,15
DA:24,15
DA:25,15
DA:27,9
DA:28,9
DA:29,9
DA:30,9
DA:32,3
DA:33,3
DA:34,3
DA:38,14
DA:39,14
DA:40,14
DA:41,14
DA:42,14
DA:43,14
DA:46,14
DA:47,1
DA:48,1
DA:49,1
DA:50,13
DA:51,1
DA:52,1
DA:53,1
DA:54,12
DA:57,14
DA:60,14
DA:63,14
DA:65,14
DA:66,14
DA:69,14
DA:70,14
DA:71,1
DA:72,1
DA:73,1
DA:74,1
DA:75,1
DA:76,1
DA:77,13
DA:78,13
DA:79,1
DA:80,12
DA:83,14
DA:86,17
DA:87,17
DA:88,17
DA:89,17
DA:90,0
DA:91,0
DA:92,0
DA:93,17
DA:96,14
DA:97,14
DA:98,14
DA:99,14
DA:100,23
DA:101,9
DA:102,1
DA:103,1
DA:104,1
DA:105,8
DA:107,8
DA:108,2
DA:109,2
DA:110,2
DA:111,2
DA:112,6
DA:115,8
DA:116,1
DA:117,1
DA:118,1
DA:119,1
DA:120,7
DA:124,14
DA:127,12
DA:128,12
DA:129,4
DA:133,7
DA:135,1
DA:137,12
DA:140,11
DA:141,11
DA:142,11
DA:145,14
DA:146,14
DA:148,14
DA:149,1
DA:150,1
DA:151,1
DA:152,13
DA:153,14
DA:161,1
DA:162,1
DA:168,1
DA:169,1
DA:170,1
DA:171,1
DA:174,1
DA:175,1
DA:181,1
DA:182,1
DA:183,1
DA:184,1
DA:187,1
DA:188,1
DA:194,1
DA:195,1
DA:196,1
DA:197,1
DA:198,1
DA:199,1
DA:200,1
DA:203,1
DA:204,1
DA:210,1
DA:211,1
DA:212,1
DA:213,1
DA:216,1
DA:217,1
DA:223,1
DA:224,1
DA:225,1
DA:226,1
DA:229,1
DA:230,1
DA:236,1
DA:237,1
DA:238,1
DA:239,1
DA:242,1
DA:243,1
DA:249,1
DA:250,1
DA:251,1
DA:252,1
DA:255,1
DA:256,1
DA:262,1
DA:264,1
DA:265,1
DA:266,1
DA:269,1
DA:270,1
DA:276,1
DA:278,1
DA:279,1
DA:280,1
DA:283,1
DA:284,1
DA:290,1
DA:291,1
DA:292,1
DA:293,1
DA:296,1
DA:297,1
DA:303,1
DA:304,1
DA:305,1
DA:306,1
DA:309,1
DA:310,1
DA:316,1
DA:317,1
DA:318,1
DA:319,1
DA:322,1
DA:323,1
DA:324,1
DA:326,1
DA:327,1
DA:329,1
DA:330,1
DA:332,1
DA:333,1
DA:334,1
DA:337,1
DA:338,1
DA:339,1
DA:341,1
DA:342,1
DA:344,1
DA:345,1
DA:347,1
DA:348,1
DA:349,1
DA:352,1
DA:353,1
DA:354,1
DA:356,1
DA:357,1
DA:359,1
DA:360,1
DA:361,1
DA:364,1
DA:365,1
DA:366,1
DA:367,1
DA:368,1
DA:370,1
DA:371,1
DA:372,1
DA:374,1
DA:375,1
DA:376,1
DA:378,1
DA:379,1
DA:380,1
DA:381,1
DA:384,1
DA:385,1
DA:391,1
DA:392,1
DA:393,1
DA:394,1
DA:397,1
DA:398,1
DA:404,1
DA:405,1
DA:406,1
DA:407,1
BRF:0
BRH:0
LF:234
LH:231
end_of_record
SF:/Users/goshea/projects/icarus/icarus-sdk/crates/icarus-mcp/src/config/mod.rs
FN:186,_RNCNvMs_NtCs3Gh2wsxwUTX_10icarus_mcp6configNtB6_16McpConfigBuilder5build0B8_
FN:212,_RNvNtNtCse2FGHvVELmL_10icarus_mcp6config5testss_17test_local_config
FN:236,_RNvNtNtCse2FGHvVELmL_10icarus_mcp6config5testss_17test_with_timeout
FN:253,_RNvNtNtCse2FGHvVELmL_10icarus_mcp6config5testss_18test_builder_basic
FN:269,_RNvNtNtCse2FGHvVELmL_10icarus_mcp6config5testss_18test_builder_local
FN:224,_RNvNtNtCse2FGHvVELmL_10icarus_mcp6config5testss_19test_mainnet_config
FN:439,_RNvNtNtCse2FGHvVELmL_10icarus_mcp6config5testss_20test_builder_default
FN:283,_RNvNtNtCse2FGHvVELmL_10icarus_mcp6config5testss_20test_builder_mainnet
FN:326,_RNvNtNtCse2FGHvVELmL_10icarus_mcp6config5testss_27test_builder_missing_ic_url
FN:337,_RNvNtNtCse2FGHvVELmL_10icarus_mcp6config5testss_28test_builder_invalid_timeout
FN:297,_RNvNtNtCse2FGHvVELmL_10icarus_mcp6config5testss_31test_builder_full_configuration
FN:363,_RNvNtNtCse2FGHvVELmL_10icarus_mcp6config5testss_32test_builder_invalid_concurrency
FN:316,_RNvNtNtCse2FGHvVELmL_10icarus_mcp6config5testss_32test_builder_missing_canister_id
FN:244,_RNvNtNtCse2FGHvVELmL_10icarus_mcp6config5testss_33test_with_max_concurrent_requests
FN:389,_RNvNtNtCse2FGHvVELmL_10icarus_mcp6config5testss_34test_builder_auto_detect_localhost
FN:418,_RNvNtNtCse2FGHvVELmL_10icarus_mcp6config5testss_35test_builder_string_into_conversion
FN:117,_RINvMs_NtCse2FGHvVELmL_10icarus_mcp6configNtB5_16McpConfigBuilder6ic_urlNtNtCsiTraAjBDcu4_5alloc6string6StringEB7_
FN:117,_RINvMs_NtCse2FGHvVELmL_10icarus_mcp6configNtB5_16McpConfigBuilder6ic_urlReEB7_
FN:186,_RNCNvMs_NtCse2FGHvVELmL_10icarus_mcp6configNtB6_16McpConfigBuilder5build0B8_
FN:139,_RNvMs_NtCse2FGHvVELmL_10icarus_mcp6configNtB4_16McpConfigBuilder7timeout
FN:77,_RNvMNtCse2FGHvVELmL_10icarus_mcp6configNtB2_9McpConfig12with_timeout
FN:83,_RNvMNtCse2FGHvVELmL_10icarus_mcp6configNtB2_9McpConfig28with_max_concurrent_requests
FN:54,_RNvMNtCse2FGHvVELmL_10icarus_mcp6configNtB2_9McpConfig3new
FN:67,_RNvMNtCse2FGHvVELmL_10icarus_mcp6configNtB2_9McpConfig5local
FN:90,_RNvMNtCse2FGHvVELmL_10icarus_mcp6configNtB2_9McpConfig7builderB4_
FN:72,_RNvMNtCse2FGHvVELmL_10icarus_mcp6configNtB2_9McpConfig7mainnet
FN:110,_RNvMs_NtCse2FGHvVELmL_10icarus_mcp6configNtB4_16McpConfigBuilder11canister_idB6_
FN:146,_RNvMs_NtCse2FGHvVELmL_10icarus_mcp6configNtB4_16McpConfigBuilder12timeout_secsB6_
FN:153,_RNvMs_NtCse2FGHvVELmL_10icarus_mcp6configNtB4_16McpConfigBuilder14fetch_root_keyB6_
FN:160,_RNvMs_NtCse2FGHvVELmL_10icarus_mcp6configNtB4_16McpConfigBuilder23max_concurrent_requestsB6_
FN:98,_RNvMs_NtCse2FGHvVELmL_10icarus_mcp6configNtB4_16McpConfigBuilder3newB6_
FN:166,_RNvMs_NtCse2FGHvVELmL_10icarus_mcp6configNtB4_16McpConfigBuilder5build
FN:124,_RNvMs_NtCse2FGHvVELmL_10icarus_mcp6configNtB4_16McpConfigBuilder5localB6_
FN:132,_RNvMs_NtCse2FGHvVELmL_10icarus_mcp6configNtB4_16McpConfigBuilder7mainnetB6_
FN:200,_RNvXs0_NtCse2FGHvVELmL_10icarus_mcp6configNtB5_16McpConfigBuilderNtNtCsaNl6UpbT7bw_4core7default7Default7defaultB7_
FNDA:0,_RNCNvMs_NtCs3Gh2wsxwUTX_10icarus_mcp6configNtB6_16McpConfigBuilder5build0B8_
FNDA:1,_RNvNtNtCse2FGHvVELmL_10icarus_mcp6config5testss_17test_local_config
FNDA:1,_RNvNtNtCse2FGHvVELmL_10icarus_mcp6config5testss_17test_with_timeout
FNDA:1,_RNvNtNtCse2FGHvVELmL_10icarus_mcp6config5testss_18test_builder_basic
FNDA:1,_RNvNtNtCse2FGHvVELmL_10icarus_mcp6config5testss_18test_builder_local
FNDA:1,_RNvNtNtCse2FGHvVELmL_10icarus_mcp6config5testss_19test_mainnet_config
FNDA:1,_RNvNtNtCse2FGHvVELmL_10icarus_mcp6config5testss_20test_builder_default
FNDA:1,_RNvNtNtCse2FGHvVELmL_10icarus_mcp6config5testss_20test_builder_mainnet
FNDA:1,_RNvNtNtCse2FGHvVELmL_10icarus_mcp6config5testss_27test_builder_missing_ic_url
FNDA:1,_RNvNtNtCse2FGHvVELmL_10icarus_mcp6config5testss_28test_builder_invalid_timeout
FNDA:1,_RNvNtNtCse2FGHvVELmL_10icarus_mcp6config5testss_31test_builder_full_configuration
FNDA:1,_RNvNtNtCse2FGHvVELmL_10icarus_mcp6config5testss_32test_builder_invalid_concurrency
FNDA:1,_RNvNtNtCse2FGHvVELmL_10icarus_mcp6config5testss_32test_builder_missing_canister_id
FNDA:1,_RNvNtNtCse2FGHvVELmL_10icarus_mcp6config5testss_33test_with_max_concurrent_requests
FNDA:1,_RNvNtNtCse2FGHvVELmL_10icarus_mcp6config5testss_34test_builder_auto_detect_localhost
FNDA:1,_RNvNtNtCse2FGHvVELmL_10icarus_mcp6config5testss_35test_builder_string_into_conversion
FNDA:1,_RINvMs_NtCse2FGHvVELmL_10icarus_mcp6configNtB5_16McpConfigBuilder6ic_urlNtNtCsiTraAjBDcu4_5alloc6string6StringEB7_
FNDA:11,_RINvMs_NtCse2FGHvVELmL_10icarus_mcp6configNtB5_16McpConfigBuilder6ic_urlReEB7_
FNDA:6,_RNCNvMs_NtCse2FGHvVELmL_10icarus_mcp6configNtB6_16McpConfigBuilder5build0B8_
FNDA:0,_RNvMs_NtCse2FGHvVELmL_10icarus_mcp6configNtB4_16McpConfigBuilder7timeout
FNDA:1,_RNvMNtCse2FGHvVELmL_10icarus_mcp6configNtB2_9McpConfig12with_timeout
FNDA:1,_RNvMNtCse2FGHvVELmL_10icarus_mcp6configNtB2_9McpConfig28with_max_concurrent_requests
FNDA:7,_RNvMNtCse2FGHvVELmL_10icarus_mcp6configNtB2_9McpConfig3new
FNDA:6,_RNvMNtCse2FGHvVELmL_10icarus_mcp6configNtB2_9McpConfig5local
FNDA:15,_RNvMNtCse2FGHvVELmL_10icarus_mcp6configNtB2_9McpConfig7builderB4_
FNDA:1,_RNvMNtCse2FGHvVELmL_10icarus_mcp6configNtB2_9McpConfig7mainnet
FNDA:14,_RNvMs_NtCse2FGHvVELmL_10icarus_mcp6configNtB4_16McpConfigBuilder11canister_idB6_
FNDA:3,_RNvMs_NtCse2FGHvVELmL_10icarus_mcp6configNtB4_16McpConfigBuilder12timeout_secsB6_
FNDA:1,_RNvMs_NtCse2FGHvVELmL_10icarus_mcp6configNtB4_16McpConfigBuilder14fetch_root_keyB6_
FNDA:3,_RNvMs_NtCse2FGHvVELmL_10icarus_mcp6configNtB4_16McpConfigBuilder23max_concurrent_requestsB6_
FNDA:17,_RNvMs_NtCse2FGHvVELmL_10icarus_mcp6configNtB4_16McpConfigBuilder3newB6_
FNDA:17,_RNvMs_NtCse2FGHvVELmL_10icarus_mcp6configNtB4_16McpConfigBuilder5build
FNDA:1,_RNvMs_NtCse2FGHvVELmL_10icarus_mcp6configNtB4_16McpConfigBuilder5localB6_
FNDA:1,_RNvMs_NtCse2FGHvVELmL_10icarus_mcp6configNtB4_16McpConfigBuilder7mainnetB6_
FNDA:1,_RNvXs0_NtCse2FGHvVELmL_10icarus_mcp6configNtB5_16McpConfigBuilderNtNtCsaNl6UpbT7bw_4core7default7Default7defaultB7_
FNF:33
FNH:32
DA:54,7
DA:55,7
DA:57,7
DA:58,7
DA:59,7
DA:60,7
DA:61,7
DA:62,7
DA:63,7
DA:64,7
DA:67,6
DA:68,6
DA:69,6
DA:72,1
DA:73,1
DA:74,1
DA:77,1
DA:78,1
DA:79,1
DA:80,1
DA:83,1
DA:84,1
DA:85,1
DA:86,1
DA:90,15
DA:91,15
DA:92,15
DA:98,17
DA:99,17
DA:100,17
DA:101,17
DA:102,17
DA:103,17
DA:104,17
DA:105,17
DA:106,17
DA:110,14
DA:111,14
DA:112,14
DA:113,14
DA:117,12
DA:118,12
DA:119,12
DA:120,12
DA:124,1
DA:125,1
DA:126,1
DA:127,1
DA:128,1
DA:132,1
DA:133,1
DA:134,1
DA:135,1
DA:136,1
DA:139,0
DA:140,0
DA:141,0
DA:142,0
DA:146,3
DA:147,3
DA:148,3
DA:149,3
DA:153,1
DA:154,1
DA:155,1
DA:156,1
DA:160,3
DA:161,3
DA:162,3
DA:163,3
DA:166,17
DA:167,17
DA:168,14
DA:171,13
DA:172,13
DA:173,13
DA:174,2
DA:175,11
DA:178,11
DA:179,11
DA:180,2
DA:181,9
DA:184,9
DA:185,9
DA:186,9
DA:188,9
DA:189,9
DA:190,9
DA:191,9
DA:192,9
DA:193,9
DA:194,9
DA:195,17
DA:200,1
DA:201,1
DA:202,1
DA:212,1
DA:213,1
DA:214,1
DA:216,1
DA:217,1
DA:218,1
DA:219,1
DA:220,1
DA:221,1
DA:224,1
DA:225,1
DA:226,1
DA:228,1
DA:229,1
DA:230,1
DA:231,1
DA:232,1
DA:233,1
DA:236,1
DA:237,1
DA:238,1
DA:240,1
DA:241,1
DA:244,1
DA:245,1
DA:246,1
DA:248,1
DA:249,1
DA:253,1
DA:254,1
DA:255,1
DA:256,1
DA:257,1
DA:258,1
DA:259,1
DA:261,1
DA:262,1
DA:263,1
DA:264,1
DA:265,1
DA:266,1
DA:269,1
DA:270,1
DA:271,1
DA:272,1
DA:273,1
DA:274,1
DA:275,1
DA:277,1
DA:278,1
DA:279,1
DA:280,1
DA:283,1
DA:284,1
DA:285,1
DA:286,1
DA:287,1
DA:288,1
DA:289,1
DA:291,1
DA:292,1
DA:293,1
DA:294,1
DA:297,1
DA:298,1
DA:299,1
DA:300,1
DA:301,1
DA:302,1
DA:303,1
DA:304,1
DA:305,1
DA:306,1
DA:308,1
DA:309,1
DA:310,1
DA:311,1
DA:312,1
DA:313,1
DA:316,1
DA:317,1
DA:319,1
DA:320,1
DA:321,0
DA:323,1
DA:326,1
DA:327,1
DA:328,1
DA:330,1
DA:331,1
DA:332,0
DA:334,1
DA:337,1
DA:338,1
DA:339,1
DA:340,1
DA:341,1
DA:342,1
DA:343,1
DA:345,1
DA:346,1
DA:347,0
DA:350,1
DA:351,1
DA:352,1
DA:353,1
DA:354,1
DA:356,1
DA:357,1
DA:358,0
DA:360,1
DA:363,1
DA:364,1
DA:365,1
DA:366,1
DA:367,1
DA:368,1
DA:369,1
DA:371,1
DA:372,1
DA:373,0
DA:376,1
DA:377,1
DA:378,1
DA:379,1
DA:380,1
DA:382,1
DA:383,1
DA:384,0
DA:386,1
DA:389,1
DA:390,1
DA:393,1
DA:394,1
DA:395,1
DA:396,1
DA:397,1
DA:398,1
DA:401,1
DA:402,1
DA:403,1
DA:404,1
DA:405,1
DA:406,1
DA:409,1
DA:410,1
DA:411,1
DA:412,1
DA:413,1
DA:414,1
DA:415,1
DA:418,1
DA:419,1
DA:422,1
DA:423,1
DA:424,1
DA:425,1
DA:426,1
DA:427,1
DA:430,1
DA:431,1
DA:432,1
DA:433,1
DA:434,1
DA:435,1
DA:436,1
DA:439,1
DA:440,1
DA:441,1
DA:444,1
DA:445,1
DA:447,1
DA:448,1
DA:449,1
BRF:0
BRH:0
LF:271
LH:261
end_of_record
SF:/Users/goshea/projects/icarus/icarus-sdk/crates/icarus-mcp/src/networking/client.rs
FN:160,_RNvMNtNtCs3Gh2wsxwUTX_10icarus_mcp10networking6clientNtB2_14CanisterClient11call_method
FN:81,_RNvMNtNtCs3Gh2wsxwUTX_10icarus_mcp10networking6clientNtB2_14CanisterClient11canister_idB6_
FN:109,_RNvMNtNtCs3Gh2wsxwUTX_10icarus_mcp10networking6clientNtB2_14CanisterClient13refresh_tools
FN:213,_RNvMNtNtCs3Gh2wsxwUTX_10icarus_mcp10networking6clientNtB2_14CanisterClient14json_to_candid
FN:242,_RNvMNtNtCs3Gh2wsxwUTX_10icarus_mcp10networking6clientNtB2_14CanisterClient19check_authorization
FN:126,_RNvMNtNtCs3Gh2wsxwUTX_10icarus_mcp10networking6clientNtB2_14CanisterClient21get_canister_metadata
FN:88,_RNvMNtNtCs3Gh2wsxwUTX_10icarus_mcp10networking6clientNtB2_14CanisterClient3new
FN:69,_RINvNtNtNtCs3Gh2wsxwUTX_10icarus_mcp10networking6client14smallvec_serde11deserializeQINtNtCs5wLgFgtV6z4_10serde_json2de12DeserializerNtNtB1q_4read7StrReadEEB8_
FN:246,_RNCNCNvMNtNtCs3Gh2wsxwUTX_10icarus_mcp10networking6clientNtB6_14CanisterClient19check_authorization00Ba_
FN:165,_RNCNvMNtNtCs3Gh2wsxwUTX_10icarus_mcp10networking6clientNtB4_14CanisterClient11call_method0B8_
FN:242,_RNCNvMNtNtCs3Gh2wsxwUTX_10icarus_mcp10networking6clientNtB4_14CanisterClient19check_authorization0B8_
FN:126,_RNCNvMNtNtCs3Gh2wsxwUTX_10icarus_mcp10networking6clientNtB4_14CanisterClient21get_canister_metadata0B8_
FN:69,_RINvNtNtNtCse2FGHvVELmL_10icarus_mcp10networking6client14smallvec_serde11deserializepEB8_
FN:62,_RINvNtNtNtCse2FGHvVELmL_10icarus_mcp10networking6client14smallvec_serde9serializepEB8_
FN:246,_RNCNCNvMNtNtCse2FGHvVELmL_10icarus_mcp10networking6clientNtB6_14CanisterClient19check_authorization00Ba_
FN:165,_RNCNvMNtNtCse2FGHvVELmL_10icarus_mcp10networking6clientNtB4_14CanisterClient11call_method0B8_
FN:109,_RNCNvMNtNtCse2FGHvVELmL_10icarus_mcp10networking6clientNtB4_14CanisterClient13refresh_tools0B8_
FN:242,_RNCNvMNtNtCse2FGHvVELmL_10icarus_mcp10networking6clientNtB4_14CanisterClient19check_authorization0B8_
FN:126,_RNCNvMNtNtCse2FGHvVELmL_10icarus_mcp10networking6clientNtB4_14CanisterClient21get_canister_metadata0B8_
FN:88,_RNCNvMNtNtCse2FGHvVELmL_10icarus_mcp10networking6clientNtB4_14CanisterClient3new0B8_
FN:160,_RNvMNtNtCse2FGHvVELmL_10icarus_mcp10networking6clientNtB2_14CanisterClient11call_method
FN:81,_RNvMNtNtCse2FGHvVELmL_10icarus_mcp10networking6clientNtB2_14CanisterClient11canister_idB6_
FN:109,_RNvMNtNtCse2FGHvVELmL_10icarus_mcp10networking6clientNtB2_14CanisterClient13refresh_tools
FN:213,_RNvMNtNtCse2FGHvVELmL_10icarus_mcp10networking6clientNtB2_14CanisterClient14json_to_candid
FN:242,_RNvMNtNtCse2FGHvVELmL_10icarus_mcp10networking6clientNtB2_14CanisterClient19check_authorization
FN:126,_RNvMNtNtCse2FGHvVELmL_10icarus_mcp10networking6clientNtB2_14CanisterClient21get_canister_metadata
FN:88,_RNvMNtNtCse2FGHvVELmL_10icarus_mcp10networking6clientNtB2_14CanisterClient3new
FNDA:0,_RNvMNtNtCs3Gh2wsxwUTX_10icarus_mcp10networking6clientNtB2_14CanisterClient11call_method
FNDA:0,_RNvMNtNtCs3Gh2wsxwUTX_10icarus_mcp10networking6clientNtB2_14CanisterClient11canister_idB6_
FNDA:0,_RNvMNtNtCs3Gh2wsxwUTX_10icarus_mcp10networking6clientNtB2_14CanisterClient13refresh_tools
FNDA:0,_RNvMNtNtCs3Gh2wsxwUTX_10icarus_mcp10networking6clientNtB2_14CanisterClient14json_to_candid
FNDA:0,_RNvMNtNtCs3Gh2wsxwUTX_10icarus_mcp10networking6clientNtB2_14CanisterClient19check_authorization
FNDA:0,_RNvMNtNtCs3Gh2wsxwUTX_10icarus_mcp10networking6clientNtB2_14CanisterClient21get_canister_metadata
FNDA:0,_RNvMNtNtCs3Gh2wsxwUTX_10icarus_mcp10networking6clientNtB2_14CanisterClient3new
FNDA:0,_RINvNtNtNtCs3Gh2wsxwUTX_10icarus_mcp10networking6client14smallvec_serde11deserializeQINtNtCs5wLgFgtV6z4_10serde_json2de12DeserializerNtNtB1q_4read7StrReadEEB8_
FNDA:0,_RNCNCNvMNtNtCs3Gh2wsxwUTX_10icarus_mcp10networking6clientNtB6_14CanisterClient19check_authorization00Ba_
FNDA:0,_RNCNvMNtNtCs3Gh2wsxwUTX_10icarus_mcp10networking6clientNtB4_14CanisterClient11call_method0B8_
FNDA:0,_RNCNvMNtNtCs3Gh2wsxwUTX_10icarus_mcp10networking6clientNtB4_14CanisterClient19check_authorization0B8_
FNDA:0,_RNCNvMNtNtCs3Gh2wsxwUTX_10icarus_mcp10networking6clientNtB4_14CanisterClient21get_canister_metadata0B8_
FNDA:0,_RINvNtNtNtCse2FGHvVELmL_10icarus_mcp10networking6client14smallvec_serde11deserializepEB8_
FNDA:0,_RINvNtNtNtCse2FGHvVELmL_10icarus_mcp10networking6client14smallvec_serde9serializepEB8_
FNDA:0,_RNCNCNvMNtNtCse2FGHvVELmL_10icarus_mcp10networking6clientNtB6_14CanisterClient19check_authorization00Ba_
FNDA:0,_RNCNvMNtNtCse2FGHvVELmL_10icarus_mcp10networking6clientNtB4_14CanisterClient11call_method0B8_
FNDA:0,_RNCNvMNtNtCse2FGHvVELmL_10icarus_mcp10networking6clientNtB4_14CanisterClient13refresh_tools0B8_
FNDA:0,_RNCNvMNtNtCse2FGHvVELmL_10icarus_mcp10networking6clientNtB4_14CanisterClient19check_authorization0B8_
FNDA:0,_RNCNvMNtNtCse2FGHvVELmL_10icarus_mcp10networking6clientNtB4_14CanisterClient21get_canister_metadata0B8_
FNDA:0,_RNCNvMNtNtCse2FGHvVELmL_10icarus_mcp10networking6clientNtB4_14CanisterClient3new0B8_
FNDA:0,_RNvMNtNtCse2FGHvVELmL_10icarus_mcp10networking6clientNtB2_14CanisterClient11call_method
FNDA:0,_RNvMNtNtCse2FGHvVELmL_10icarus_mcp10networking6clientNtB2_14CanisterClient11canister_idB6_
FNDA:0,_RNvMNtNtCse2FGHvVELmL_10icarus_mcp10networking6clientNtB2_14CanisterClient13refresh_tools
FNDA:0,_RNvMNtNtCse2FGHvVELmL_10icarus_mcp10networking6clientNtB2_14CanisterClient14json_to_candid
FNDA:0,_RNvMNtNtCse2FGHvVELmL_10icarus_mcp10networking6clientNtB2_14CanisterClient19check_authorization
FNDA:0,_RNvMNtNtCse2FGHvVELmL_10icarus_mcp10networking6clientNtB2_14CanisterClient21get_canister_metadata
FNDA:0,_RNvMNtNtCse2FGHvVELmL_10icarus_mcp10networking6clientNtB2_14CanisterClient3new
FNF:15
FNH:0
DA:62,0
DA:63,0
DA:64,0
DA:66,0
DA:67,0
DA:69,0
DA:70,0
DA:71,0
DA:73,0
DA:74,0
DA:75,0
DA:81,0
DA:82,0
DA:83,0
DA:88,0
DA:89,0
DA:92,0
DA:93,0
DA:97,0
DA:99,0
DA:100,0
DA:101,0
DA:102,0
DA:103,0
DA:104,0
DA:109,0
DA:110,0
DA:112,0
DA:115,0
DA:116,0
DA:117,0
DA:118,0
DA:119,0
DA:121,0
DA:122,0
DA:123,0
DA:126,0
DA:127,0
DA:129,0
DA:130,0
DA:131,0
DA:132,0
DA:133,0
DA:136,0
DA:137,0
DA:138,0
DA:139,0
DA:141,0
DA:142,0
DA:146,0
DA:147,0
DA:148,0
DA:149,0
DA:151,0
DA:152,0
DA:157,0
DA:160,0
DA:161,0
DA:162,0
DA:163,0
DA:164,0
DA:165,0
DA:166,0
DA:167,0
DA:172,0
DA:174,0
DA:175,0
DA:176,0
DA:177,0
DA:178,0
DA:179,0
DA:181,0
DA:182,0
DA:183,0
DA:184,0
DA:185,0
DA:189,0
DA:190,0
DA:191,0
DA:192,0
DA:194,0
DA:195,0
DA:199,0
DA:200,0
DA:201,0
DA:202,0
DA:204,0
DA:205,0
DA:210,0
DA:213,0
DA:216,0
DA:217,0
DA:219,0
DA:220,0
DA:222,0
DA:223,0
DA:224,0
DA:225,0
DA:226,0
DA:227,0
DA:229,0
DA:232,0
DA:234,0
DA:235,0
DA:237,0
DA:239,0
DA:242,0
DA:243,0
DA:244,0
DA:245,0
DA:246,0
DA:248,0
DA:249,0
DA:250,0
DA:251,0
DA:252,0
DA:253,0
DA:255,0
DA:256,0
DA:257,0
BRF:0
BRH:0
LF:126
LH:0
end_of_record
SF:/Users/goshea/projects/icarus/icarus-sdk/crates/icarus-mcp/src/networking/pool.rs
FN:38,_RNCNvMNtNtCs3Gh2wsxwUTX_10icarus_mcp10networking4poolNtB4_9AgentPool6global0B8_
FN:128,_RNvMNtNtCs3Gh2wsxwUTX_10icarus_mcp10networking4poolNtB2_9AgentPool16get_dfx_identity
FN:46,_RNvMNtNtCs3Gh2wsxwUTX_10icarus_mcp10networking4poolNtB2_9AgentPool19get_or_create_agent
FN:109,_RNvMNtNtCs3Gh2wsxwUTX_10icarus_mcp10networking4poolNtB2_9AgentPool25get_current_identity_name
FN:29,_RNvMNtNtCs3Gh2wsxwUTX_10icarus_mcp10networking4poolNtB2_9AgentPool3new
FN:101,_RNvMNtNtCs3Gh2wsxwUTX_10icarus_mcp10networking4poolNtB2_9AgentPool5clear
FN:36,_RNvMNtNtCs3Gh2wsxwUTX_10icarus_mcp10networking4poolNtB2_9AgentPool6global
FN:200,_RNCNvNtNtNtCse2FGHvVELmL_10icarus_mcp10networking4pool5testss_15test_pool_clear0B9_
FN:179,_RNCNvNtNtNtCse2FGHvVELmL_10icarus_mcp10networking4pool5testss_18test_agent_caching0B9_
FN:164,_RNCNvNtNtNtCse2FGHvVELmL_10icarus_mcp10networking4pool5testss_24test_agent_pool_creation0B9_
FN:170,_RNCNvNtNtNtCse2FGHvVELmL_10icarus_mcp10networking4pool5testss_26test_global_pool_singleton0B9_
FN:200,_RNvNtNtNtCse2FGHvVELmL_10icarus_mcp10networking4pool5testss_15test_pool_clear
FN:179,_RNvNtNtNtCse2FGHvVELmL_10icarus_mcp10networking4pool5testss_18test_agent_caching
FN:164,_RNvNtNtNtCse2FGHvVELmL_10icarus_mcp10networking4pool5testss_24test_agent_pool_creation
FN:170,_RNvNtNtNtCse2FGHvVELmL_10icarus_mcp10networking4pool5testss_26test_global_pool_singleton
FN:128,_RNCNvMNtNtCse2FGHvVELmL_10icarus_mcp10networking4poolNtB4_9AgentPool16get_dfx_identity0B8_
FN:46,_RNCNvMNtNtCse2FGHvVELmL_10icarus_mcp10networking4poolNtB4_9AgentPool19get_or_create_agent0B8_
FN:109,_RNCNvMNtNtCse2FGHvVELmL_10icarus_mcp10networking4poolNtB4_9AgentPool25get_current_identity_name0B8_
FN:101,_RNCNvMNtNtCse2FGHvVELmL_10icarus_mcp10networking4poolNtB4_9AgentPool5clear0B8_
FN:38,_RNCNvMNtNtCse2FGHvVELmL_10icarus_mcp10networking4poolNtB4_9AgentPool6global0B8_
FN:128,_RNvMNtNtCse2FGHvVELmL_10icarus_mcp10networking4poolNtB2_9AgentPool16get_dfx_identity
FN:46,_RNvMNtNtCse2FGHvVELmL_10icarus_mcp10networking4poolNtB2_9AgentPool19get_or_create_agent
FN:109,_RNvMNtNtCse2FGHvVELmL_10icarus_mcp10networking4poolNtB2_9AgentPool25get_current_identity_name
FN:29,_RNvMNtNtCse2FGHvVELmL_10icarus_mcp10networking4poolNtB2_9AgentPool3new
FN:101,_RNvMNtNtCse2FGHvVELmL_10icarus_mcp10networking4poolNtB2_9AgentPool5clear
FN:36,_RNvMNtNtCse2FGHvVELmL_10icarus_mcp10networking4poolNtB2_9AgentPool6global
FNDA:0,_RNCNvMNtNtCs3Gh2wsxwUTX_10icarus_mcp10networking4poolNtB4_9AgentPool6global0B8_
FNDA:0,_RNvMNtNtCs3Gh2wsxwUTX_10icarus_mcp10networking4poolNtB2_9AgentPool16get_dfx_identity
FNDA:0,_RNvMNtNtCs3Gh2wsxwUTX_10icarus_mcp10networking4poolNtB2_9AgentPool19get_or_create_agent
FNDA:0,_RNvMNtNtCs3Gh2wsxwUTX_10icarus_mcp10networking4poolNtB2_9AgentPool25get_current_identity_name
FNDA:0,_RNvMNtNtCs3Gh2wsxwUTX_10icarus_mcp10networking4poolNtB2_9AgentPool3new
FNDA:0,_RNvMNtNtCs3Gh2wsxwUTX_10icarus_mcp10networking4poolNtB2_9AgentPool5clear
FNDA:0,_RNvMNtNtCs3Gh2wsxwUTX_10icarus_mcp10networking4poolNtB2_9AgentPool6global
FNDA:1,_RNCNvNtNtNtCse2FGHvVELmL_10icarus_mcp10networking4pool5testss_15test_pool_clear0B9_
FNDA:1,_RNCNvNtNtNtCse2FGHvVELmL_10icarus_mcp10networking4pool5testss_18test_agent_caching0B9_
FNDA:1,_RNCNvNtNtNtCse2FGHvVELmL_10icarus_mcp10networking4pool5testss_24test_agent_pool_creation0B9_
FNDA:1,_RNCNvNtNtNtCse2FGHvVELmL_10icarus_mcp10networking4pool5testss_26test_global_pool_singleton0B9_
FNDA:1,_RNvNtNtNtCse2FGHvVELmL_10icarus_mcp10networking4pool5testss_15test_pool_clear
FNDA:1,_RNvNtNtNtCse2FGHvVELmL_10icarus_mcp10networking4pool5testss_18test_agent_caching
FNDA:1,_RNvNtNtNtCse2FGHvVELmL_10icarus_mcp10networking4pool5testss_24test_agent_pool_creation
FNDA:1,_RNvNtNtNtCse2FGHvVELmL_10icarus_mcp10networking4pool5testss_26test_global_pool_singleton
FNDA:2,_RNCNvMNtNtCse2FGHvVELmL_10icarus_mcp10networking4poolNtB4_9AgentPool16get_dfx_identity0B8_
FNDA:3,_RNCNvMNtNtCse2FGHvVELmL_10icarus_mcp10networking4poolNtB4_9AgentPool19get_or_create_agent0B8_
FNDA:3,_RNCNvMNtNtCse2FGHvVELmL_10icarus_mcp10networking4poolNtB4_9AgentPool25get_current_identity_name0B8_
FNDA:1,_RNCNvMNtNtCse2FGHvVELmL_10icarus_mcp10networking4poolNtB4_9AgentPool5clear0B8_
FNDA:1,_RNCNvMNtNtCse2FGHvVELmL_10icarus_mcp10networking4poolNtB4_9AgentPool6global0B8_
FNDA:2,_RNvMNtNtCse2FGHvVELmL_10icarus_mcp10networking4poolNtB2_9AgentPool16get_dfx_identity
FNDA:3,_RNvMNtNtCse2FGHvVELmL_10icarus_mcp10networking4poolNtB2_9AgentPool19get_or_create_agent
FNDA:3,_RNvMNtNtCse2FGHvVELmL_10icarus_mcp10networking4poolNtB2_9AgentPool25get_current_identity_name
FNDA:4,_RNvMNtNtCse2FGHvVELmL_10icarus_mcp10networking4poolNtB2_9AgentPool3new
FNDA:1,_RNvMNtNtCse2FGHvVELmL_10icarus_mcp10networking4poolNtB2_9AgentPool5clear
FNDA:2,_RNvMNtNtCse2FGHvVELmL_10icarus_mcp10networking4poolNtB2_9AgentPool6global
FNF:19
FNH:19
DA:29,4
DA:30,4
DA:31,4
DA:32,4
DA:33,4
DA:36,2
DA:37,2
DA:38,2
DA:39,2
DA:40,2
DA:46,3
DA:47,3
DA:48,3
DA:52,3
DA:53,3
DA:54,1
DA:55,0
DA:58,1
DA:59,2
DA:63,2
DA:66,2
DA:67,0
DA:68,2
DA:70,2
DA:71,0
DA:76,2
DA:77,2
DA:78,2
DA:79,2
DA:82,2
DA:83,0
DA:84,2
DA:87,2
DA:88,2
DA:89,2
DA:90,0
DA:92,2
DA:93,2
DA:95,2
DA:96,3
DA:101,1
DA:102,1
DA:103,1
DA:104,1
DA:105,1
DA:106,1
DA:109,3
DA:111,3
DA:112,3
DA:113,3
DA:114,3
DA:116,3
DA:117,3
DA:118,3
DA:122,0
DA:125,3
DA:128,2
DA:130,2
DA:131,2
DA:132,2
DA:133,2
DA:134,2
DA:136,8
DA:137,6
DA:138,6
DA:139,6
DA:140,6
DA:142,4
DA:143,0
DA:144,0
DA:145,0
DA:147,0
DA:148,0
DA:149,4
DA:150,2
DA:153,2
DA:154,2
DA:164,1
DA:165,1
DA:166,1
DA:167,1
DA:170,1
DA:171,1
DA:172,1
DA:175,1
DA:176,1
DA:179,1
DA:180,1
DA:181,1
DA:182,1
DA:183,1
DA:184,1
DA:185,1
DA:186,1
DA:187,1
DA:190,1
DA:193,1
DA:196,1
DA:197,1
DA:200,1
DA:201,1
DA:202,1
DA:203,1
DA:204,1
DA:205,1
DA:206,1
DA:207,1
DA:208,1
DA:211,1
DA:212,1
DA:215,1
DA:216,1
DA:217,1
BRF:0
BRH:0
LF:126
LH:115
end_of_record
SF:/Users/goshea/projects/icarus/icarus-sdk/crates/icarus-mcp/src/protocol/mod.rs
FN:216,_RNvNtNtCse2FGHvVELmL_10icarus_mcp8protocol5tests20create_test_metadata
FN:235,_RNvNtNtCse2FGHvVELmL_10icarus_mcp8protocol5testss_17test_convert_tool
FN:253,_RNvNtNtCse2FGHvVELmL_10icarus_mcp8protocol5testss_20test_get_server_info
FN:284,_RNvNtNtCse2FGHvVELmL_10icarus_mcp8protocol5testss_26test_trait_implementations
FN:266,_RNvNtNtCse2FGHvVELmL_10icarus_mcp8protocol5testss_31test_tool_conversion_edge_cases
FN:297,_RNCNvNtNtCse2FGHvVELmL_10icarus_mcp8protocol5testss_26test_trait_implementations0B7_
FN:304,_RNCNvNtNtCse2FGHvVELmL_10icarus_mcp8protocol5testss_26test_trait_implementationss_0B7_
FN:47,_RINvYNtNtCse2FGHvVELmL_10icarus_mcp8protocol18McpProtocolHandlerNtB5_13ToolConverter22convert_tools_filteredNCNvNtB5_5testss_26test_trait_implementations0EB7_
FN:47,_RINvYNtNtCse2FGHvVELmL_10icarus_mcp8protocol18McpProtocolHandlerNtB5_13ToolConverter22convert_tools_filteredNCNvNtB5_5testss_26test_trait_implementationss_0EB7_
FN:53,_RNCINvYNtNtCse2FGHvVELmL_10icarus_mcp8protocol18McpProtocolHandlerNtB7_13ToolConverter22convert_tools_filteredNCNvNtB7_5testss_26test_trait_implementations0E0B9_
FN:53,_RNCINvYNtNtCse2FGHvVELmL_10icarus_mcp8protocol18McpProtocolHandlerNtB7_13ToolConverter22convert_tools_filteredNCNvNtB7_5testss_26test_trait_implementationss_0E0B9_
FN:149,_RNvXs0_NtCse2FGHvVELmL_10icarus_mcp8protocolNtB5_18McpProtocolHandlerNtB5_13ToolConverter12convert_toolB7_
FN:42,_RNvYNtNtCse2FGHvVELmL_10icarus_mcp8protocol18McpProtocolHandlerNtB4_13ToolConverter13convert_toolsB6_
FN:94,_RNvMNtCse2FGHvVELmL_10icarus_mcp8protocolINtB2_18McpProtocolHandlerpE12with_backendB4_
FN:99,_RNvMNtCse2FGHvVELmL_10icarus_mcp8protocolINtB2_18McpProtocolHandlerpE7backendB4_
FN:107,_RNvMs_NtCse2FGHvVELmL_10icarus_mcp8protocolNtB4_18McpProtocolHandler3new
FN:115,_RNvMs_NtCse2FGHvVELmL_10icarus_mcp8protocolNtB4_18McpProtocolHandler6client
FN:168,_RNvXININtCse2FGHvVELmL_10icarus_mcp8protocols3_0pEINtB5_18McpProtocolHandlerpENtB5_11McpProtocol10list_toolsB7_
FN:192,_RNvXININtCse2FGHvVELmL_10icarus_mcp8protocols3_0pEINtB5_18McpProtocolHandlerpENtB5_11McpProtocol15get_server_infoB7_
FN:204,_RNvXININtCse2FGHvVELmL_10icarus_mcp8protocols3_0pEINtB5_18McpProtocolHandlerpENtB5_11McpProtocol8metadataB7_
FN:178,_RNvXININtCse2FGHvVELmL_10icarus_mcp8protocols3_0pEINtB5_18McpProtocolHandlerpENtB5_11McpProtocol9call_toolB7_
FN:134,_RNvXs2_NtCse2FGHvVELmL_10icarus_mcp8protocolINtNtCsiTraAjBDcu4_5alloc4sync3ArcNtNtNtB7_10networking6client14CanisterClientENtB5_15CanisterBackend11call_method
FN:125,_RNvXs2_NtCse2FGHvVELmL_10icarus_mcp8protocolINtNtCsiTraAjBDcu4_5alloc4sync3ArcNtNtNtB7_10networking6client14CanisterClientENtB5_15CanisterBackend12get_metadata
FN:142,_RNvXs2_NtCse2FGHvVELmL_10icarus_mcp8protocolINtNtCsiTraAjBDcu4_5alloc4sync3ArcNtNtNtB7_10networking6client14CanisterClientENtB5_15CanisterBackend16canister_id_text
FN:138,_RNvXs2_NtCse2FGHvVELmL_10icarus_mcp8protocolINtNtCsiTraAjBDcu4_5alloc4sync3ArcNtNtNtB7_10networking6client14CanisterClientENtB5_15CanisterBackend19check_authorization
FNDA:2,_RNvNtNtCse2FGHvVELmL_10icarus_mcp8protocol5tests20create_test_metadata
FNDA:1,_RNvNtNtCse2FGHvVELmL_10icarus_mcp8protocol5testss_17test_convert_tool
FNDA:1,_RNvNtNtCse2FGHvVELmL_10icarus_mcp8protocol5testss_20test_get_server_info
FNDA:1,_RNvNtNtCse2FGHvVELmL_10icarus_mcp8protocol5testss_26test_trait_implementations
FNDA:1,_RNvNtNtCse2FGHvVELmL_10icarus_mcp8protocol5testss_31test_tool_conversion_edge_cases
FNDA:1,_RNCNvNtNtCse2FGHvVELmL_10icarus_mcp8protocol5testss_26test_trait_implementations0B7_
FNDA:1,_RNCNvNtNtCse2FGHvVELmL_10icarus_mcp8protocol5testss_26test_trait_implementationss_0B7_
FNDA:1,_RINvYNtNtCse2FGHvVELmL_10icarus_mcp8protocol18McpProtocolHandlerNtB5_13ToolConverter22convert_tools_filteredNCNvNtB5_5testss_26test_trait_implementations0EB7_
FNDA:1,_RINvYNtNtCse2FGHvVELmL_10icarus_mcp8protocol18McpProtocolHandlerNtB5_13ToolConverter22convert_tools_filteredNCNvNtB5_5testss_26test_trait_implementationss_0EB7_
FNDA:1,_RNCINvYNtNtCse2FGHvVELmL_10icarus_mcp8protocol18McpProtocolHandlerNtB7_13ToolConverter22convert_tools_filteredNCNvNtB7_5testss_26test_trait_implementations0E0B9_
FNDA:1,_RNCINvYNtNtCse2FGHvVELmL_10icarus_mcp8protocol18McpProtocolHandlerNtB7_13ToolConverter22convert_tools_filteredNCNvNtB7_5testss_26test_trait_implementationss_0E0B9_
FNDA:4,_RNvXs0_NtCse2FGHvVELmL_10icarus_mcp8protocolNtB5_18McpProtocolHandlerNtB5_13ToolConverter12convert_toolB7_
FNDA:1,_RNvYNtNtCse2FGHvVELmL_10icarus_mcp8protocol18McpProtocolHandlerNtB4_13ToolConverter13convert_toolsB6_
FNDA:0,_RNvMNtCse2FGHvVELmL_10icarus_mcp8protocolINtB2_18McpProtocolHandlerpE12with_backendB4_
FNDA:0,_RNvMNtCse2FGHvVELmL_10icarus_mcp8protocolINtB2_18McpProtocolHandlerpE7backendB4_
FNDA:0,_RNvMs_NtCse2FGHvVELmL_10icarus_mcp8protocolNtB4_18McpProtocolHandler3new
FNDA:0,_RNvMs_NtCse2FGHvVELmL_10icarus_mcp8protocolNtB4_18McpProtocolHandler6client
FNDA:0,_RNvXININtCse2FGHvVELmL_10icarus_mcp8protocols3_0pEINtB5_18McpProtocolHandlerpENtB5_11McpProtocol10list_toolsB7_
FNDA:0,_RNvXININtCse2FGHvVELmL_10icarus_mcp8protocols3_0pEINtB5_18McpProtocolHandlerpENtB5_11McpProtocol15get_server_infoB7_
FNDA:0,_RNvXININtCse2FGHvVELmL_10icarus_mcp8protocols3_0pEINtB5_18McpProtocolHandlerpENtB5_11McpProtocol8metadataB7_
FNDA:0,_RNvXININtCse2FGHvVELmL_10icarus_mcp8protocols3_0pEINtB5_18McpProtocolHandlerpENtB5_11McpProtocol9call_toolB7_
FNDA:0,_RNvXs2_NtCse2FGHvVELmL_10icarus_mcp8protocolINtNtCsiTraAjBDcu4_5alloc4sync3ArcNtNtNtB7_10networking6client14CanisterClientENtB5_15CanisterBackend11call_method
FNDA:0,_RNvXs2_NtCse2FGHvVELmL_10icarus_mcp8protocolINtNtCsiTraAjBDcu4_5alloc4sync3ArcNtNtNtB7_10networking6client14CanisterClientENtB5_15CanisterBackend12get_metadata
FNDA:0,_RNvXs2_NtCse2FGHvVELmL_10icarus_mcp8protocolINtNtCsiTraAjBDcu4_5alloc4sync3ArcNtNtNtB7_10networking6client14CanisterClientENtB5_15CanisterBackend16canister_id_text
FNDA:0,_RNvXs2_NtCse2FGHvVELmL_10icarus_mcp8protocolINtNtCsiTraAjBDcu4_5alloc4sync3ArcNtNtNtB7_10networking6client14CanisterClientENtB5_15CanisterBackend19check_authorization
FNF:23
FNH:11
DA:42,1
DA:43,1
DA:44,1
DA:47,2
DA:48,2
DA:49,2
DA:51,2
DA:52,2
DA:53,2
DA:54,2
DA:55,2
DA:56,2
DA:94,0
DA:95,0
DA:96,0
DA:99,0
DA:100,0
DA:101,0
DA:107,0
DA:108,0
DA:109,0
DA:110,0
DA:111,0
DA:112,0
DA:115,0
DA:116,0
DA:117,0
DA:125,0
DA:127,0
DA:134,0
DA:136,0
DA:138,0
DA:140,0
DA:142,0
DA:143,0
DA:144,0
DA:149,4
DA:150,4
DA:151,4
DA:152,4
DA:153,4
DA:154,4
DA:155,4
DA:157,4
DA:168,0
DA:172,0
DA:178,0
DA:190,0
DA:192,0
DA:193,0
DA:194,0
DA:195,0
DA:196,0
DA:197,0
DA:198,0
DA:199,0
DA:200,0
DA:202,0
DA:204,0
DA:205,0
DA:206,0
DA:216,2
DA:217,2
DA:218,2
DA:219,2
DA:220,2
DA:221,2
DA:222,2
DA:223,2
DA:224,2
DA:225,2
DA:226,2
DA:227,2
DA:228,2
DA:229,2
DA:230,2
DA:231,2
DA:232,2
DA:235,1
DA:236,1
DA:237,1
DA:238,1
DA:239,1
DA:240,1
DA:241,1
DA:242,1
DA:244,1
DA:246,1
DA:247,1
DA:248,1
DA:249,1
DA:250,1
DA:253,1
DA:254,1
DA:255,1
DA:256,1
DA:260,1
DA:261,1
DA:262,1
DA:263,1
DA:266,1
DA:268,1
DA:269,1
DA:270,1
DA:271,1
DA:272,1
DA:273,1
DA:274,1
DA:276,1
DA:277,1
DA:278,1
DA:279,1
DA:280,1
DA:281,1
DA:284,1
DA:287,1
DA:290,1
DA:291,1
DA:292,1
DA:293,1
DA:296,1
DA:297,1
DA:298,1
DA:299,1
DA:300,1
DA:301,1
DA:303,1
DA:304,1
DA:305,1
DA:306,1
DA:307,1
DA:308,1
BRF:0
BRH:0
LF:135
LH:94
end_of_record
SF:/Users/goshea/projects/icarus/icarus-sdk/crates/icarus-mcp/src/server.rs
FN:45,_RNvMNtCse2FGHvVELmL_10icarus_mcp6serverNtB2_9McpServer3newB4_
FN:55,_RNvMNtCse2FGHvVELmL_10icarus_mcp6serverNtB2_9McpServer7builderB4_
FN:174,_RNvMs2_NtCse2FGHvVELmL_10icarus_mcp6serverNtB5_16McpServerBuilder3newB7_
FN:180,_RNvMs2_NtCse2FGHvVELmL_10icarus_mcp6serverNtB5_16McpServerBuilder6configB7_
FN:197,_RNvXs3_NtCse2FGHvVELmL_10icarus_mcp6serverNtB5_16McpServerBuilderNtNtCsaNl6UpbT7bw_4core7default7Default7defaultB7_
FN:204,_RNvXs4_NtCse2FGHvVELmL_10icarus_mcp6serverNtB5_9McpServerNtNtCsaNl6UpbT7bw_4core7default7Default7defaultB7_
FN:233,_RNvNtNtCse2FGHvVELmL_10icarus_mcp6server5testss_20test_builder_pattern
FN:291,_RNvNtNtCse2FGHvVELmL_10icarus_mcp6server5testss_23test_phantom_data_usage
FN:264,_RNvNtNtCse2FGHvVELmL_10icarus_mcp6server5testss_27test_backward_compatibility
FN:254,_RNvNtNtCse2FGHvVELmL_10icarus_mcp6server5testss_27test_server_builder_default
FN:216,_RNvNtNtCse2FGHvVELmL_10icarus_mcp6server5testss_27test_type_state_transitions
FN:278,_RNvNtNtCse2FGHvVELmL_10icarus_mcp6server5testss_28test_type_state_marker_types
FN:117,_RINvMs_NtCse2FGHvVELmL_10icarus_mcp6serverINtB5_9McpServerNtB5_9ConnectedE5serveppEB7_
FN:121,_RNCINvMs_NtCse2FGHvVELmL_10icarus_mcp6serverINtB7_9McpServerNtB7_9ConnectedE5serveppE0B9_
FN:189,_RNCNCNvMs2_NtCse2FGHvVELmL_10icarus_mcp6serverNtB9_16McpServerBuilder5build00Bb_
FN:60,_RNCNvMNtCse2FGHvVELmL_10icarus_mcp6serverNtB4_9McpServer7connect0B6_
FN:138,_RNCNvMs0_NtCse2FGHvVELmL_10icarus_mcp6serverINtB7_9McpServerNtB7_7ServingE3run0B9_
FN:166,_RNCNvMs1_NtCse2FGHvVELmL_10icarus_mcp6serverNtB7_9McpServer11from_config0B9_
FN:186,_RNCNvMs2_NtCse2FGHvVELmL_10icarus_mcp6serverNtB7_16McpServerBuilder5build0B9_
FN:110,_RNCNvMs_NtCse2FGHvVELmL_10icarus_mcp6serverINtB6_9McpServerNtB6_9ConnectedE13refresh_tools0B8_
FN:60,_RNvMNtCse2FGHvVELmL_10icarus_mcp6serverNtB2_9McpServer7connect
FN:138,_RNvMs0_NtCse2FGHvVELmL_10icarus_mcp6serverINtB5_9McpServerNtB5_7ServingE3run
FN:153,_RNvMs0_NtCse2FGHvVELmL_10icarus_mcp6serverINtB5_9McpServerNtB5_7ServingE8shutdown
FN:166,_RNvMs1_NtCse2FGHvVELmL_10icarus_mcp6serverNtB5_9McpServer11from_config
FN:186,_RNvMs2_NtCse2FGHvVELmL_10icarus_mcp6serverNtB5_16McpServerBuilder5build
FN:110,_RNvMs_NtCse2FGHvVELmL_10icarus_mcp6serverINtB4_9McpServerNtB4_9ConnectedE13refresh_tools
FN:97,_RNvMs_NtCse2FGHvVELmL_10icarus_mcp6serverINtB4_9McpServerNtB4_9ConnectedE6clientB6_
FN:103,_RNvMs_NtCse2FGHvVELmL_10icarus_mcp6serverINtB4_9McpServerNtB4_9ConnectedE7handlerB6_
FNDA:3,_RNvMNtCse2FGHvVELmL_10icarus_mcp6serverNtB2_9McpServer3newB4_
FNDA:1,_RNvMNtCse2FGHvVELmL_10icarus_mcp6serverNtB2_9McpServer7builderB4_
FNDA:4,_RNvMs2_NtCse2FGHvVELmL_10icarus_mcp6serverNtB5_16McpServerBuilder3newB7_
FNDA:1,_RNvMs2_NtCse2FGHvVELmL_10icarus_mcp6serverNtB5_16McpServerBuilder6configB7_
FNDA:1,_RNvXs3_NtCse2FGHvVELmL_10icarus_mcp6serverNtB5_16McpServerBuilderNtNtCsaNl6UpbT7bw_4core7default7Default7defaultB7_
FNDA:1,_RNvXs4_NtCse2FGHvVELmL_10icarus_mcp6serverNtB5_9McpServerNtNtCsaNl6UpbT7bw_4core7default7Default7defaultB7_
FNDA:1,_RNvNtNtCse2FGHvVELmL_10icarus_mcp6server5testss_20test_builder_pattern
FNDA:1,_RNvNtNtCse2FGHvVELmL_10icarus_mcp6server5testss_23test_phantom_data_usage
FNDA:1,_RNvNtNtCse2FGHvVELmL_10icarus_mcp6server5testss_27test_backward_compatibility
FNDA:1,_RNvNtNtCse2FGHvVELmL_10icarus_mcp6server5testss_27test_server_builder_default
FNDA:1,_RNvNtNtCse2FGHvVELmL_10icarus_mcp6server5testss_27test_type_state_transitions
FNDA:1,_RNvNtNtCse2FGHvVELmL_10icarus_mcp6server5testss_28test_type_state_marker_types
FNDA:0,_RINvMs_NtCse2FGHvVELmL_10icarus_mcp6serverINtB5_9McpServerNtB5_9ConnectedE5serveppEB7_
FNDA:0,_RNCINvMs_NtCse2FGHvVELmL_10icarus_mcp6serverINtB7_9McpServerNtB7_9ConnectedE5serveppE0B9_
FNDA:0,_RNCNCNvMs2_NtCse2FGHvVELmL_10icarus_mcp6serverNtB9_16McpServerBuilder5build00Bb_
FNDA:0,_RNCNvMNtCse2FGHvVELmL_10icarus_mcp6serverNtB4_9McpServer7connect0B6_
FNDA:0,_RNCNvMs0_NtCse2FGHvVELmL_10icarus_mcp6serverINtB7_9McpServerNtB7_7ServingE3run0B9_
FNDA:0,_RNCNvMs1_NtCse2FGHvVELmL_10icarus_mcp6serverNtB7_9McpServer11from_config0B9_
FNDA:0,_RNCNvMs2_NtCse2FGHvVELmL_10icarus_mcp6serverNtB7_16McpServerBuilder5build0B9_
FNDA:0,_RNCNvMs_NtCse2FGHvVELmL_10icarus_mcp6serverINtB6_9McpServerNtB6_9ConnectedE13refresh_tools0B8_
FNDA:0,_RNvMNtCse2FGHvVELmL_10icarus_mcp6serverNtB2_9McpServer7connect
FNDA:0,_RNvMs0_NtCse2FGHvVELmL_10icarus_mcp6serverINtB5_9McpServerNtB5_7ServingE3run
FNDA:0,_RNvMs0_NtCse2FGHvVELmL_10icarus_mcp6serverINtB5_9McpServerNtB5_7ServingE8shutdown
FNDA:0,_RNvMs1_NtCse2FGHvVELmL_10icarus_mcp6serverNtB5_9McpServer11from_config
FNDA:0,_RNvMs2_NtCse2FGHvVELmL_10icarus_mcp6serverNtB5_16McpServerBuilder5build
FNDA:0,_RNvMs_NtCse2FGHvVELmL_10icarus_mcp6serverINtB4_9McpServerNtB4_9ConnectedE13refresh_tools
FNDA:0,_RNvMs_NtCse2FGHvVELmL_10icarus_mcp6serverINtB4_9McpServerNtB4_9ConnectedE6clientB6_
FNDA:0,_RNvMs_NtCse2FGHvVELmL_10icarus_mcp6serverINtB4_9McpServerNtB4_9ConnectedE7handlerB6_
FNF:28
FNH:12
DA:45,3
DA:46,3
DA:47,3
DA:48,3
DA:49,3
DA:50,3
DA:51,3
DA:55,1
DA:56,1
DA:57,1
DA:60,0
DA:61,0
DA:62,0
DA:67,0
DA:70,0
DA:73,0
DA:74,0
DA:75,0
DA:77,0
DA:81,0
DA:84,0
DA:86,0
DA:87,0
DA:88,0
DA:89,0
DA:90,0
DA:91,0
DA:97,0
DA:98,0
DA:99,0
DA:103,0
DA:104,0
DA:105,0
DA:106,0
DA:107,0
DA:110,0
DA:113,0
DA:114,0
DA:117,0
DA:118,0
DA:119,0
DA:120,0
DA:121,0
DA:122,0
DA:128,0
DA:129,0
DA:130,0
DA:131,0
DA:132,0
DA:133,0
DA:138,0
DA:146,0
DA:147,0
DA:149,0
DA:150,0
DA:153,0
DA:154,0
DA:155,0
DA:156,0
DA:157,0
DA:158,0
DA:159,0
DA:160,0
DA:166,0
DA:167,0
DA:168,0
DA:174,4
DA:175,4
DA:176,4
DA:180,1
DA:181,1
DA:182,1
DA:183,1
DA:186,0
DA:187,0
DA:188,0
DA:189,0
DA:191,0
DA:192,0
DA:197,1
DA:198,1
DA:199,1
DA:204,1
DA:205,1
DA:206,1
DA:216,1
DA:218,1
DA:224,1
DA:228,1
DA:229,1
DA:230,1
DA:233,1
DA:234,1
DA:235,1
DA:238,1
DA:241,1
DA:248,1
DA:251,1
DA:254,1
DA:255,1
DA:256,1
DA:259,1
DA:260,1
DA:261,1
DA:264,1
DA:266,1
DA:267,1
DA:274,1
DA:275,1
DA:278,1
DA:280,1
DA:281,1
DA:282,1
DA:285,1
DA:286,1
DA:287,1
DA:288,1
DA:291,1
DA:295,1
DA:296,1
DA:300,1
DA:305,1
BRF:0
BRH:0
LF:128
LH:60
end_of_record
SF:/Users/goshea/projects/icarus/icarus-sdk/crates/icarus-mcp/src/storage/allocator.rs
FN:340,_RNvXs6_NtNtCs3Gh2wsxwUTX_10icarus_mcp7storage9allocatorNtB5_12PooledBufferNtNtNtCsaNl6UpbT7bw_4core3ops4drop4Drop4drop
FN:272,_RNvMs3_NtNtCs3Gh2wsxwUTX_10icarus_mcp7storage9allocatorNtB5_17TrackingAllocator11reset_stats
FN:239,_RNvMs3_NtNtCs3Gh2wsxwUTX_10icarus_mcp7storage9allocatorNtB5_17TrackingAllocator3new
FN:254,_RNvMs3_NtNtCs3Gh2wsxwUTX_10icarus_mcp7storage9allocatorNtB5_17TrackingAllocator5stats
FN:322,_RNvMs5_NtNtCs3Gh2wsxwUTX_10icarus_mcp7storage9allocatorNtB5_12PooledBuffer3new
FN:334,_RNvMs5_NtNtCs3Gh2wsxwUTX_10icarus_mcp7storage9allocatorNtB5_12PooledBuffer4take
FN:329,_RNvMs5_NtNtCs3Gh2wsxwUTX_10icarus_mcp7storage9allocatorNtB5_12PooledBuffer6as_mut
FN:66,_RNvMs_NtNtCs3Gh2wsxwUTX_10icarus_mcp7storage9allocatorNtB4_10BufferPool10get_buffer
FN:156,_RNvMs_NtNtCs3Gh2wsxwUTX_10icarus_mcp7storage9allocatorNtB4_10BufferPool11reset_stats
FN:102,_RNvMs_NtNtCs3Gh2wsxwUTX_10icarus_mcp7storage9allocatorNtB4_10BufferPool13return_buffer
FN:129,_RNvMs_NtNtCs3Gh2wsxwUTX_10icarus_mcp7storage9allocatorNtB4_10BufferPool19find_best_pool_size
FN:42,_RNvMs_NtNtCs3Gh2wsxwUTX_10icarus_mcp7storage9allocatorNtB4_10BufferPool3new
FN:138,_RNvMs_NtNtCs3Gh2wsxwUTX_10icarus_mcp7storage9allocatorNtB4_10BufferPool9get_stats
FN:188,_RNvNtNtCs3Gh2wsxwUTX_10icarus_mcp7storage9allocator14get_pool_stats
FN:178,_RNvNtNtCs3Gh2wsxwUTX_10icarus_mcp7storage9allocator17get_pooled_buffer
FN:183,_RNvNtNtCs3Gh2wsxwUTX_10icarus_mcp7storage9allocator20return_pooled_buffer
FN:30,_RNvXNtNtCs3Gh2wsxwUTX_10icarus_mcp7storage9allocatorNtB2_9PoolStatsNtNtCsaNl6UpbT7bw_4core7default7Default7default
FN:167,_RNvXs0_NtNtCs3Gh2wsxwUTX_10icarus_mcp7storage9allocatorNtB5_10BufferPoolNtNtCsaNl6UpbT7bw_4core7default7Default7default
FN:219,_RNvXs1_NtNtCs3Gh2wsxwUTX_10icarus_mcp7storage9allocatorNtB5_15AllocationStatsNtNtCsaNl6UpbT7bw_4core7default7Default7default
FN:232,_RNvXs2_NtNtCs3Gh2wsxwUTX_10icarus_mcp7storage9allocatorNtB5_17TrackingAllocatorNtNtCsaNl6UpbT7bw_4core7default7Default7default
FN:283,_RNvXs4_NtNtCs3Gh2wsxwUTX_10icarus_mcp7storage9allocatorNtB5_17TrackingAllocatorNtNtNtCsaNl6UpbT7bw_4core5alloc6global11GlobalAlloc5alloc
FN:300,_RNvXs4_NtNtCs3Gh2wsxwUTX_10icarus_mcp7storage9allocatorNtB5_17TrackingAllocatorNtNtNtCsaNl6UpbT7bw_4core5alloc6global11GlobalAlloc7dealloc
FN:350,_RNvXs7_NtNtCs3Gh2wsxwUTX_10icarus_mcp7storage9allocatorNtB5_12PooledBufferNtNtNtCsaNl6UpbT7bw_4core3ops5deref5Deref5deref
FN:356,_RNvXs8_NtNtCs3Gh2wsxwUTX_10icarus_mcp7storage9allocatorNtB5_12PooledBufferNtNtNtCsaNl6UpbT7bw_4core3ops5deref8DerefMut9deref_mut
FN:132,_RNCNvMs_NtNtCs3Gh2wsxwUTX_10icarus_mcp7storage9allocatorNtB6_10BufferPool19find_best_pool_size0Ba_
FN:141,_RNCNvMs_NtNtCs3Gh2wsxwUTX_10icarus_mcp7storage9allocatorNtB6_10BufferPool9get_stats0Ba_
FN:189,_RNCNvNtNtCs3Gh2wsxwUTX_10icarus_mcp7storage9allocator14get_pool_stats0B7_
FN:179,_RNCNvNtNtCs3Gh2wsxwUTX_10icarus_mcp7storage9allocator17get_pooled_buffer0B7_
FN:184,_RNCNvNtNtCs3Gh2wsxwUTX_10icarus_mcp7storage9allocator20return_pooled_buffer0B7_
FN:340,_RNvXs6_NtNtCse2FGHvVELmL_10icarus_mcp7storage9allocatorNtB5_12PooledBufferNtNtNtCsaNl6UpbT7bw_4core3ops4drop4Drop4drop
FN:443,_RNvNtNtNtCse2FGHvVELmL_10icarus_mcp7storage9allocator5testss_18test_pooled_buffer
FN:457,_RNvNtNtNtCse2FGHvVELmL_10icarus_mcp7storage9allocator5testss_22test_thread_local_pool
FN:420,_RNvNtNtNtCse2FGHvVELmL_10icarus_mcp7storage9allocator5testss_23test_tracking_allocator
FN:475,_RNvNtNtNtCse2FGHvVELmL_10icarus_mcp7storage9allocator5testss_24test_pool_stats_tracking
FN:366,_RNvNtNtNtCse2FGHvVELmL_10icarus_mcp7storage9allocator5testss_25test_buffer_pool_creation
FN:379,_RNvNtNtNtCse2FGHvVELmL_10icarus_mcp7storage9allocator5testss_27test_buffer_pool_get_return
FN:403,_RNvNtNtNtCse2FGHvVELmL_10icarus_mcp7storage9allocator5testss_30test_buffer_pool_size_matching
FN:132,_RNCNvMs_NtNtCse2FGHvVELmL_10icarus_mcp7storage9allocatorNtB6_10BufferPool19find_best_pool_size0Ba_
FN:141,_RNCNvMs_NtNtCse2FGHvVELmL_10icarus_mcp7storage9allocatorNtB6_10BufferPool9get_stats0Ba_
FN:189,_RNCNvNtNtCse2FGHvVELmL_10icarus_mcp7storage9allocator14get_pool_stats0B7_
FN:179,_RNCNvNtNtCse2FGHvVELmL_10icarus_mcp7storage9allocator17get_pooled_buffer0B7_
FN:184,_RNCNvNtNtCse2FGHvVELmL_10icarus_mcp7storage9allocator20return_pooled_buffer0B7_
FN:239,_RNvMs3_NtNtCse2FGHvVELmL_10icarus_mcp7storage9allocatorNtB5_17TrackingAllocator3new
FN:254,_RNvMs3_NtNtCse2FGHvVELmL_10icarus_mcp7storage9allocatorNtB5_17TrackingAllocator5stats
FN:322,_RNvMs5_NtNtCse2FGHvVELmL_10icarus_mcp7storage9allocatorNtB5_12PooledBuffer3new
FN:66,_RNvMs_NtNtCse2FGHvVELmL_10icarus_mcp7storage9allocatorNtB4_10BufferPool10get_buffer
FN:156,_RNvMs_NtNtCse2FGHvVELmL_10icarus_mcp7storage9allocatorNtB4_10BufferPool11reset_stats
FN:102,_RNvMs_NtNtCse2FGHvVELmL_10icarus_mcp7storage9allocatorNtB4_10BufferPool13return_buffer
FN:129,_RNvMs_NtNtCse2FGHvVELmL_10icarus_mcp7storage9allocatorNtB4_10BufferPool19find_best_pool_size
FN:42,_RNvMs_NtNtCse2FGHvVELmL_10icarus_mcp7storage9allocatorNtB4_10BufferPool3new
FN:138,_RNvMs_NtNtCse2FGHvVELmL_10icarus_mcp7storage9allocatorNtB4_10BufferPool9get_stats
FN:188,_RNvNtNtCse2FGHvVELmL_10icarus_mcp7storage9allocator14get_pool_stats
FN:178,_RNvNtNtCse2FGHvVELmL_10icarus_mcp7storage9allocator17get_pooled_buffer
FN:183,_RNvNtNtCse2FGHvVELmL_10icarus_mcp7storage9allocator20return_pooled_buffer
FN:30,_RNvXNtNtCse2FGHvVELmL_10icarus_mcp7storage9allocatorNtB2_9PoolStatsNtNtCsaNl6UpbT7bw_4core7default7Default7default
FN:283,_RNvXs4_NtNtCse2FGHvVELmL_10icarus_mcp7storage9allocatorNtB5_17TrackingAllocatorNtNtNtCsaNl6UpbT7bw_4core5alloc6global11GlobalAlloc5alloc
FN:300,_RNvXs4_NtNtCse2FGHvVELmL_10icarus_mcp7storage9allocatorNtB5_17TrackingAllocatorNtNtNtCsaNl6UpbT7bw_4core5alloc6global11GlobalAlloc7dealloc
FN:350,_RNvXs7_NtNtCse2FGHvVELmL_10icarus_mcp7storage9allocatorNtB5_12PooledBufferNtNtNtCsaNl6UpbT7bw_4core3ops5deref5Deref5deref
FN:356,_RNvXs8_NtNtCse2FGHvVELmL_10icarus_mcp7storage9allocatorNtB5_12PooledBufferNtNtNtCsaNl6UpbT7bw_4core3ops5deref8DerefMut9deref_mut
FN:272,_RNvMs3_NtNtCse2FGHvVELmL_10icarus_mcp7storage9allocatorNtB5_17TrackingAllocator11reset_stats
FN:334,_RNvMs5_NtNtCse2FGHvVELmL_10icarus_mcp7storage9allocatorNtB5_12PooledBuffer4take
FN:329,_RNvMs5_NtNtCse2FGHvVELmL_10icarus_mcp7storage9allocatorNtB5_12PooledBuffer6as_mut
FN:167,_RNvXs0_NtNtCse2FGHvVELmL_10icarus_mcp7storage9allocatorNtB5_10BufferPoolNtNtCsaNl6UpbT7bw_4core7default7Default7default
FN:219,_RNvXs1_NtNtCse2FGHvVELmL_10icarus_mcp7storage9allocatorNtB5_15AllocationStatsNtNtCsaNl6UpbT7bw_4core7default7Default7default
FN:232,_RNvXs2_NtNtCse2FGHvVELmL_10icarus_mcp7storage9allocatorNtB5_17TrackingAllocatorNtNtCsaNl6UpbT7bw_4core7default7Default7default
FNDA:0,_RNvXs6_NtNtCs3Gh2wsxwUTX_10icarus_mcp7storage9allocatorNtB5_12PooledBufferNtNtNtCsaNl6UpbT7bw_4core3ops4drop4Drop4drop
FNDA:0,_RNvMs3_NtNtCs3Gh2wsxwUTX_10icarus_mcp7storage9allocatorNtB5_17TrackingAllocator11reset_stats
FNDA:0,_RNvMs3_NtNtCs3Gh2wsxwUTX_10icarus_mcp7storage9allocatorNtB5_17TrackingAllocator3new
FNDA:0,_RNvMs3_NtNtCs3Gh2wsxwUTX_10icarus_mcp7storage9allocatorNtB5_17TrackingAllocator5stats
FNDA:0,_RNvMs5_NtNtCs3Gh2wsxwUTX_10icarus_mcp7storage9allocatorNtB5_12PooledBuffer3new
FNDA:0,_RNvMs5_NtNtCs3Gh2wsxwUTX_10icarus_mcp7storage9allocatorNtB5_12PooledBuffer4take
FNDA:0,_RNvMs5_NtNtCs3Gh2wsxwUTX_10icarus_mcp7storage9allocatorNtB5_12PooledBuffer6as_mut
FNDA:0,_RNvMs_NtNtCs3Gh2wsxwUTX_10icarus_mcp7storage9allocatorNtB4_10BufferPool10get_buffer
FNDA:0,_RNvMs_NtNtCs3Gh2wsxwUTX_10icarus_mcp7storage9allocatorNtB4_10BufferPool11reset_stats
FNDA:0,_RNvMs_NtNtCs3Gh2wsxwUTX_10icarus_mcp7storage9allocatorNtB4_10BufferPool13return_buffer
FNDA:0,_RNvMs_NtNtCs3Gh2wsxwUTX_10icarus_mcp7storage9allocatorNtB4_10BufferPool19find_best_pool_size
FNDA:0,_RNvMs_NtNtCs3Gh2wsxwUTX_10icarus_mcp7storage9allocatorNtB4_10BufferPool3new
FNDA:0,_RNvMs_NtNtCs3Gh2wsxwUTX_10icarus_mcp7storage9allocatorNtB4_10BufferPool9get_stats
FNDA:0,_RNvNtNtCs3Gh2wsxwUTX_10icarus_mcp7storage9allocator14get_pool_stats
FNDA:0,_RNvNtNtCs3Gh2wsxwUTX_10icarus_mcp7storage9allocator17get_pooled_buffer
FNDA:0,_RNvNtNtCs3Gh2wsxwUTX_10icarus_mcp7storage9allocator20return_pooled_buffer
FNDA:0,_RNvXNtNtCs3Gh2wsxwUTX_10icarus_mcp7storage9allocatorNtB2_9PoolStatsNtNtCsaNl6UpbT7bw_4core7default7Default7default
FNDA:0,_RNvXs0_NtNtCs3Gh2wsxwUTX_10icarus_mcp7storage9allocatorNtB5_10BufferPoolNtNtCsaNl6UpbT7bw_4core7default7Default7default
FNDA:0,_RNvXs1_NtNtCs3Gh2wsxwUTX_10icarus_mcp7storage9allocatorNtB5_15AllocationStatsNtNtCsaNl6UpbT7bw_4core7default7Default7default
FNDA:0,_RNvXs2_NtNtCs3Gh2wsxwUTX_10icarus_mcp7storage9allocatorNtB5_17TrackingAllocatorNtNtCsaNl6UpbT7bw_4core7default7Default7default
FNDA:0,_RNvXs4_NtNtCs3Gh2wsxwUTX_10icarus_mcp7storage9allocatorNtB5_17TrackingAllocatorNtNtNtCsaNl6UpbT7bw_4core5alloc6global11GlobalAlloc5alloc
FNDA:0,_RNvXs4_NtNtCs3Gh2wsxwUTX_10icarus_mcp7storage9allocatorNtB5_17TrackingAllocatorNtNtNtCsaNl6UpbT7bw_4core5alloc6global11GlobalAlloc7dealloc
FNDA:0,_RNvXs7_NtNtCs3Gh2wsxwUTX_10icarus_mcp7storage9allocatorNtB5_12PooledBufferNtNtNtCsaNl6UpbT7bw_4core3ops5deref5Deref5deref
FNDA:0,_RNvXs8_NtNtCs3Gh2wsxwUTX_10icarus_mcp7storage9allocatorNtB5_12PooledBufferNtNtNtCsaNl6UpbT7bw_4core3ops5deref8DerefMut9deref_mut
FNDA:0,_RNCNvMs_NtNtCs3Gh2wsxwUTX_10icarus_mcp7storage9allocatorNtB6_10BufferPool19find_best_pool_size0Ba_
FNDA:0,_RNCNvMs_NtNtCs3Gh2wsxwUTX_10icarus_mcp7storage9allocatorNtB6_10BufferPool9get_stats0Ba_
FNDA:0,_RNCNvNtNtCs3Gh2wsxwUTX_10icarus_mcp7storage9allocator14get_pool_stats0B7_
FNDA:0,_RNCNvNtNtCs3Gh2wsxwUTX_10icarus_mcp7storage9allocator17get_pooled_buffer0B7_
FNDA:0,_RNCNvNtNtCs3Gh2wsxwUTX_10icarus_mcp7storage9allocator20return_pooled_buffer0B7_
FNDA:1,_RNvXs6_NtNtCse2FGHvVELmL_10icarus_mcp7storage9allocatorNtB5_12PooledBufferNtNtNtCsaNl6UpbT7bw_4core3ops4drop4Drop4drop
FNDA:1,_RNvNtNtNtCse2FGHvVELmL_10icarus_mcp7storage9allocator5testss_18test_pooled_buffer
FNDA:1,_RNvNtNtNtCse2FGHvVELmL_10icarus_mcp7storage9allocator5testss_22test_thread_local_pool
FNDA:1,_RNvNtNtNtCse2FGHvVELmL_10icarus_mcp7storage9allocator5testss_23test_tracking_allocator
FNDA:1,_RNvNtNtNtCse2FGHvVELmL_10icarus_mcp7storage9allocator5testss_24test_pool_stats_tracking
FNDA:1,_RNvNtNtNtCse2FGHvVELmL_10icarus_mcp7storage9allocator5testss_25test_buffer_pool_creation
FNDA:1,_RNvNtNtNtCse2FGHvVELmL_10icarus_mcp7storage9allocator5testss_27test_buffer_pool_get_return
FNDA:1,_RNvNtNtNtCse2FGHvVELmL_10icarus_mcp7storage9allocator5testss_30test_buffer_pool_size_matching
FNDA:155,_RNCNvMs_NtNtCse2FGHvVELmL_10icarus_mcp7storage9allocatorNtB6_10BufferPool19find_best_pool_size0Ba_
FNDA:25,_RNCNvMs_NtNtCse2FGHvVELmL_10icarus_mcp7storage9allocatorNtB6_10BufferPool9get_stats0Ba_
FNDA:1,_RNCNvNtNtCse2FGHvVELmL_10icarus_mcp7storage9allocator14get_pool_stats0B7_
FNDA:3,_RNCNvNtNtCse2FGHvVELmL_10icarus_mcp7storage9allocator17get_pooled_buffer0B7_
FNDA:2,_RNCNvNtNtCse2FGHvVELmL_10icarus_mcp7storage9allocator20return_pooled_buffer0B7_
FNDA:1,_RNvMs3_NtNtCse2FGHvVELmL_10icarus_mcp7storage9allocatorNtB5_17TrackingAllocator3new
FNDA:2,_RNvMs3_NtNtCse2FGHvVELmL_10icarus_mcp7storage9allocatorNtB5_17TrackingAllocator5stats
FNDA:1,_RNvMs5_NtNtCse2FGHvVELmL_10icarus_mcp7storage9allocatorNtB5_12PooledBuffer3new
FNDA:18,_RNvMs_NtNtCse2FGHvVELmL_10icarus_mcp7storage9allocatorNtB4_10BufferPool10get_buffer
FNDA:1,_RNvMs_NtNtCse2FGHvVELmL_10icarus_mcp7storage9allocatorNtB4_10BufferPool11reset_stats
FNDA:13,_RNvMs_NtNtCse2FGHvVELmL_10icarus_mcp7storage9allocatorNtB4_10BufferPool13return_buffer
FNDA:31,_RNvMs_NtNtCse2FGHvVELmL_10icarus_mcp7storage9allocatorNtB4_10BufferPool19find_best_pool_size
FNDA:6,_RNvMs_NtNtCse2FGHvVELmL_10icarus_mcp7storage9allocatorNtB4_10BufferPool3new
FNDA:5,_RNvMs_NtNtCse2FGHvVELmL_10icarus_mcp7storage9allocatorNtB4_10BufferPool9get_stats
FNDA:1,_RNvNtNtCse2FGHvVELmL_10icarus_mcp7storage9allocator14get_pool_stats
FNDA:3,_RNvNtNtCse2FGHvVELmL_10icarus_mcp7storage9allocator17get_pooled_buffer
FNDA:2,_RNvNtNtCse2FGHvVELmL_10icarus_mcp7storage9allocator20return_pooled_buffer
FNDA:30,_RNvXNtNtCse2FGHvVELmL_10icarus_mcp7storage9allocatorNtB2_9PoolStatsNtNtCsaNl6UpbT7bw_4core7default7Default7default
FNDA:1,_RNvXs4_NtNtCse2FGHvVELmL_10icarus_mcp7storage9allocatorNtB5_17TrackingAllocatorNtNtNtCsaNl6UpbT7bw_4core5alloc6global11GlobalAlloc5alloc
FNDA:1,_RNvXs4_NtNtCse2FGHvVELmL_10icarus_mcp7storage9allocatorNtB5_17TrackingAllocatorNtNtNtCsaNl6UpbT7bw_4core5alloc6global11GlobalAlloc7dealloc
FNDA:2,_RNvXs7_NtNtCse2FGHvVELmL_10icarus_mcp7storage9allocatorNtB5_12PooledBufferNtNtNtCsaNl6UpbT7bw_4core3ops5deref5Deref5deref
FNDA:1,_RNvXs8_NtNtCse2FGHvVELmL_10icarus_mcp7storage9allocatorNtB5_12PooledBufferNtNtNtCsaNl6UpbT7bw_4core3ops5deref8DerefMut9deref_mut
FNDA:0,_RNvMs3_NtNtCse2FGHvVELmL_10icarus_mcp7storage9allocatorNtB5_17TrackingAllocator11reset_stats
FNDA:0,_RNvMs5_NtNtCse2FGHvVELmL_10icarus_mcp7storage9allocatorNtB5_12PooledBuffer4take
FNDA:0,_RNvMs5_NtNtCse2FGHvVELmL_10icarus_mcp7storage9allocatorNtB5_12PooledBuffer6as_mut
FNDA:0,_RNvXs0_NtNtCse2FGHvVELmL_10icarus_mcp7storage9allocatorNtB5_10BufferPoolNtNtCsaNl6UpbT7bw_4core7default7Default7default
FNDA:0,_RNvXs1_NtNtCse2FGHvVELmL_10icarus_mcp7storage9allocatorNtB5_15AllocationStatsNtNtCsaNl6UpbT7bw_4core7default7Default7default
FNDA:0,_RNvXs2_NtNtCse2FGHvVELmL_10icarus_mcp7storage9allocatorNtB5_17TrackingAllocatorNtNtCsaNl6UpbT7bw_4core7default7Default7default
FNF:36
FNH:30
DA:30,30
DA:31,30
DA:32,30
DA:33,30
DA:34,30
DA:35,30
DA:36,30
DA:37,30
DA:42,6
DA:43,6
DA:44,6
DA:47,6
DA:48,6
DA:49,6
DA:50,6
DA:51,6
DA:52,6
DA:53,6
DA:55,36
DA:56,30
DA:57,30
DA:58,30
DA:60,6
DA:61,6
DA:66,18
DA:68,18
DA:70,18
DA:71,18
DA:72,18
DA:73,18
DA:75,11
DA:76,11
DA:77,11
DA:78,11
DA:81,11
DA:82,11
DA:83,11
DA:84,7
DA:85,0
DA:88,7
DA:89,7
DA:90,7
DA:91,7
DA:92,0
DA:93,0
DA:96,7
DA:97,18
DA:102,13
DA:103,13
DA:104,13
DA:106,13
DA:108,13
DA:109,13
DA:110,13
DA:112,13
DA:113,13
DA:114,13
DA:116,13
DA:117,13
DA:118,13
DA:119,0
DA:120,0
DA:121,0
DA:122,0
DA:123,0
DA:126,13
DA:129,31
DA:130,31
DA:131,31
DA:132,155
DA:133,31
DA:134,31
DA:135,31
DA:138,5
DA:139,5
DA:140,5
DA:141,25
DA:142,25
DA:143,25
DA:144,25
DA:145,25
DA:146,25
DA:147,25
DA:148,25
DA:149,25
DA:150,25
DA:151,25
DA:152,5
DA:153,5
DA:156,1
DA:157,5
DA:158,5
DA:159,5
DA:160,5
DA:161,5
DA:162,5
DA:163,1
DA:167,0
DA:168,0
DA:169,0
DA:178,3
DA:179,3
DA:180,3
DA:183,2
DA:184,2
DA:185,2
DA:188,1
DA:189,1
DA:190,1
DA:219,0
DA:220,0
DA:221,0
DA:222,0
DA:223,0
DA:224,0
DA:225,0
DA:226,0
DA:227,0
DA:228,0
DA:232,0
DA:233,0
DA:234,0
DA:239,1
DA:240,1
DA:241,1
DA:242,1
DA:243,1
DA:244,1
DA:245,1
DA:246,1
DA:247,1
DA:248,1
DA:249,1
DA:250,1
DA:251,1
DA:254,2
DA:255,2
DA:256,2
DA:257,2
DA:258,2
DA:259,2
DA:260,2
DA:261,2
DA:262,2
DA:263,2
DA:264,2
DA:265,2
DA:266,2
DA:267,2
DA:268,2
DA:269,2
DA:272,0
DA:273,0
DA:274,0
DA:275,0
DA:276,0
DA:277,0
DA:278,0
DA:279,0
DA:283,1
DA:284,1
DA:285,1
DA:286,1
DA:287,1
DA:288,1
DA:289,1
DA:290,1
DA:291,1
DA:292,1
DA:293,1
DA:294,1
DA:295,1
DA:296,1
DA:297,1
DA:298,1
DA:300,1
DA:301,1
DA:302,1
DA:303,1
DA:304,1
DA:305,1
DA:306,1
DA:307,1
DA:308,1
DA:309,1
DA:310,1
DA:311,1
DA:312,1
DA:322,1
DA:323,1
DA:324,1
DA:325,1
DA:326,1
DA:329,0
DA:330,0
DA:331,0
DA:334,0
DA:335,0
DA:336,0
DA:340,1
DA:341,1
DA:342,1
DA:343,1
DA:344,1
DA:350,2
DA:351,2
DA:352,2
DA:356,1
DA:357,1
DA:358,1
DA:366,1
DA:367,1
DA:368,1
DA:371,1
DA:372,1
DA:373,1
DA:374,1
DA:375,1
DA:376,1
DA:379,1
DA:380,1
DA:383,1
DA:384,1
DA:387,1
DA:390,1
DA:391,1
DA:394,1
DA:395,1
DA:396,1
DA:397,1
DA:398,1
DA:399,0
DA:400,1
DA:403,1
DA:404,1
DA:407,1
DA:408,1
DA:411,1
DA:412,1
DA:415,1
DA:416,1
DA:417,1
DA:420,1
DA:421,1
DA:424,1
DA:425,1
DA:426,1
DA:428,1
DA:429,1
DA:430,1
DA:431,1
DA:433,1
DA:435,1
DA:436,1
DA:437,1
DA:438,1
DA:440,1
DA:443,1
DA:444,1
DA:447,1
DA:450,1
DA:451,1
DA:454,1
DA:457,1
DA:459,1
DA:460,1
DA:463,1
DA:466,1
DA:467,1
DA:470,1
DA:471,1
DA:472,1
DA:475,1
DA:476,1
DA:479,11
DA:480,10
DA:481,10
DA:482,10
DA:485,1
DA:486,1
DA:487,1
DA:488,1
DA:489,1
DA:490,0
DA:493,1
DA:494,1
DA:495,5
DA:496,5
DA:497,5
DA:498,5
DA:499,5
DA:501,1
BRF:0
BRH:0
LF:297
LH:257
end_of_record
SF:/Users/goshea/projects/icarus/icarus-sdk/crates/icarus-mcp/src/storage/profile.rs
FN:403,_RNvXs6_NtNtCs3Gh2wsxwUTX_10icarus_mcp7storage7profileNtB5_11TimingGuardNtNtNtCsaNl6UpbT7bw_4core3ops4drop4Drop4drop
FN:106,_RNvMs1_NtNtCs3Gh2wsxwUTX_10icarus_mcp7storage7profileNtB5_15AllocationStats17record_allocation
FN:214,_RNvMs4_NtNtCs3Gh2wsxwUTX_10icarus_mcp7storage7profileNtB5_19PerformanceProfiler11start_timer
FN:227,_RNvMs4_NtNtCs3Gh2wsxwUTX_10icarus_mcp7storage7profileNtB5_19PerformanceProfiler13mark_hot_path
FN:310,_RNvMs4_NtNtCs3Gh2wsxwUTX_10icarus_mcp7storage7profileNtB5_19PerformanceProfiler14get_statistics
FN:366,_RNvMs4_NtNtCs3Gh2wsxwUTX_10icarus_mcp7storage7profileNtB5_19PerformanceProfiler16reset_statistics
FN:219,_RNvMs4_NtNtCs3Gh2wsxwUTX_10icarus_mcp7storage7profileNtB5_19PerformanceProfiler17record_allocation
FN:238,_RNvMs4_NtNtCs3Gh2wsxwUTX_10icarus_mcp7storage7profileNtB5_19PerformanceProfiler24generate_recommendations
FN:204,_RNvMs4_NtNtCs3Gh2wsxwUTX_10icarus_mcp7storage7profileNtB5_19PerformanceProfiler3new
FN:390,_RNvMs5_NtNtCs3Gh2wsxwUTX_10icarus_mcp7storage7profileNtB5_11TimingGuard3new
FN:46,_RNvMs_NtNtCs3Gh2wsxwUTX_10icarus_mcp7storage7profileNtB4_13FunctionStats6update
FN:476,_RNvNtNtCs3Gh2wsxwUTX_10icarus_mcp7storage7profile15thread_profiler
FN:34,_RNvXNtNtCs3Gh2wsxwUTX_10icarus_mcp7storage7profileNtB2_13FunctionStatsNtNtCsaNl6UpbT7bw_4core7default7Default7default
FN:95,_RNvXs0_NtNtCs3Gh2wsxwUTX_10icarus_mcp7storage7profileNtB5_15AllocationStatsNtNtCsaNl6UpbT7bw_4core7default7Default7default
FN:138,_RNvXs2_NtNtCs3Gh2wsxwUTX_10icarus_mcp7storage7profileNtB5_12HotPathStatsNtNtCsaNl6UpbT7bw_4core7default7Default7default
FN:197,_RNvXs3_NtNtCs3Gh2wsxwUTX_10icarus_mcp7storage7profileNtB5_19PerformanceProfilerNtNtCsaNl6UpbT7bw_4core7default7Default7default
FN:481,_RNCNvNtNtCs3Gh2wsxwUTX_10icarus_mcp7storage7profile15thread_profiler0B7_
FN:403,_RNvXs6_NtNtCse2FGHvVELmL_10icarus_mcp7storage7profileNtB5_11TimingGuardNtNtNtCsaNl6UpbT7bw_4core3ops4drop4Drop4drop
FN:501,_RNvNtNtNtCse2FGHvVELmL_10icarus_mcp7storage7profile5testss_20test_function_timing
FN:585,_RNvNtNtNtCse2FGHvVELmL_10icarus_mcp7storage7profile5testss_21test_statistics_reset
FN:534,_RNvNtNtNtCse2FGHvVELmL_10icarus_mcp7storage7profile5testss_22test_hot_path_tracking
FN:518,_RNvNtNtNtCse2FGHvVELmL_10icarus_mcp7storage7profile5testss_25test_allocation_recording
FN:606,_RNvNtNtNtCse2FGHvVELmL_10icarus_mcp7storage7profile5testss_27test_profile_function_macro
FN:549,_RNvNtNtNtCse2FGHvVELmL_10icarus_mcp7storage7profile5testss_33test_optimization_recommendations
FN:491,_RNvNtNtNtCse2FGHvVELmL_10icarus_mcp7storage7profile5testss_34test_performance_profiler_creation
FN:106,_RNvMs1_NtNtCse2FGHvVELmL_10icarus_mcp7storage7profileNtB5_15AllocationStats17record_allocation
FN:214,_RNvMs4_NtNtCse2FGHvVELmL_10icarus_mcp7storage7profileNtB5_19PerformanceProfiler11start_timer
FN:227,_RNvMs4_NtNtCse2FGHvVELmL_10icarus_mcp7storage7profileNtB5_19PerformanceProfiler13mark_hot_path
FN:310,_RNvMs4_NtNtCse2FGHvVELmL_10icarus_mcp7storage7profileNtB5_19PerformanceProfiler14get_statistics
FN:366,_RNvMs4_NtNtCse2FGHvVELmL_10icarus_mcp7storage7profileNtB5_19PerformanceProfiler16reset_statistics
FN:219,_RNvMs4_NtNtCse2FGHvVELmL_10icarus_mcp7storage7profileNtB5_19PerformanceProfiler17record_allocation
FN:238,_RNvMs4_NtNtCse2FGHvVELmL_10icarus_mcp7storage7profileNtB5_19PerformanceProfiler24generate_recommendations
FN:204,_RNvMs4_NtNtCse2FGHvVELmL_10icarus_mcp7storage7profileNtB5_19PerformanceProfiler3new
FN:390,_RNvMs5_NtNtCse2FGHvVELmL_10icarus_mcp7storage7profileNtB5_11TimingGuard3new
FN:46,_RNvMs_NtNtCse2FGHvVELmL_10icarus_mcp7storage7profileNtB4_13FunctionStats6update
FN:34,_RNvXNtNtCse2FGHvVELmL_10icarus_mcp7storage7profileNtB2_13FunctionStatsNtNtCsaNl6UpbT7bw_4core7default7Default7default
FN:95,_RNvXs0_NtNtCse2FGHvVELmL_10icarus_mcp7storage7profileNtB5_15AllocationStatsNtNtCsaNl6UpbT7bw_4core7default7Default7default
FN:138,_RNvXs2_NtNtCse2FGHvVELmL_10icarus_mcp7storage7profileNtB5_12HotPathStatsNtNtCsaNl6UpbT7bw_4core7default7Default7default
FN:481,_RNCNvNtNtCse2FGHvVELmL_10icarus_mcp7storage7profile15thread_profiler0B7_
FN:476,_RNvNtNtCse2FGHvVELmL_10icarus_mcp7storage7profile15thread_profiler
FN:197,_RNvXs3_NtNtCse2FGHvVELmL_10icarus_mcp7storage7profileNtB5_19PerformanceProfilerNtNtCsaNl6UpbT7bw_4core7default7Default7default
FN:575,_RNCNvNtNtNtCse2FGHvVELmL_10icarus_mcp7storage7profile5testss_33test_optimization_recommendations0B9_
FN:578,_RNCNvNtNtNtCse2FGHvVELmL_10icarus_mcp7storage7profile5testss_33test_optimization_recommendationss_0B9_
FNDA:0,_RNvXs6_NtNtCs3Gh2wsxwUTX_10icarus_mcp7storage7profileNtB5_11TimingGuardNtNtNtCsaNl6UpbT7bw_4core3ops4drop4Drop4drop
FNDA:0,_RNvMs1_NtNtCs3Gh2wsxwUTX_10icarus_mcp7storage7profileNtB5_15AllocationStats17record_allocation
FNDA:0,_RNvMs4_NtNtCs3Gh2wsxwUTX_10icarus_mcp7storage7profileNtB5_19PerformanceProfiler11start_timer
FNDA:0,_RNvMs4_NtNtCs3Gh2wsxwUTX_10icarus_mcp7storage7profileNtB5_19PerformanceProfiler13mark_hot_path
FNDA:0,_RNvMs4_NtNtCs3Gh2wsxwUTX_10icarus_mcp7storage7profileNtB5_19PerformanceProfiler14get_statistics
FNDA:0,_RNvMs4_NtNtCs3Gh2wsxwUTX_10icarus_mcp7storage7profileNtB5_19PerformanceProfiler16reset_statistics
FNDA:0,_RNvMs4_NtNtCs3Gh2wsxwUTX_10icarus_mcp7storage7profileNtB5_19PerformanceProfiler17record_allocation
FNDA:0,_RNvMs4_NtNtCs3Gh2wsxwUTX_10icarus_mcp7storage7profileNtB5_19PerformanceProfiler24generate_recommendations
FNDA:0,_RNvMs4_NtNtCs3Gh2wsxwUTX_10icarus_mcp7storage7profileNtB5_19PerformanceProfiler3new
FNDA:0,_RNvMs5_NtNtCs3Gh2wsxwUTX_10icarus_mcp7storage7profileNtB5_11TimingGuard3new
FNDA:0,_RNvMs_NtNtCs3Gh2wsxwUTX_10icarus_mcp7storage7profileNtB4_13FunctionStats6update
FNDA:0,_RNvNtNtCs3Gh2wsxwUTX_10icarus_mcp7storage7profile15thread_profiler
FNDA:0,_RNvXNtNtCs3Gh2wsxwUTX_10icarus_mcp7storage7profileNtB2_13FunctionStatsNtNtCsaNl6UpbT7bw_4core7default7Default7default
FNDA:0,_RNvXs0_NtNtCs3Gh2wsxwUTX_10icarus_mcp7storage7profileNtB5_15AllocationStatsNtNtCsaNl6UpbT7bw_4core7default7Default7default
FNDA:0,_RNvXs2_NtNtCs3Gh2wsxwUTX_10icarus_mcp7storage7profileNtB5_12HotPathStatsNtNtCsaNl6UpbT7bw_4core7default7Default7default
FNDA:0,_RNvXs3_NtNtCs3Gh2wsxwUTX_10icarus_mcp7storage7profileNtB5_19PerformanceProfilerNtNtCsaNl6UpbT7bw_4core7default7Default7default
FNDA:0,_RNCNvNtNtCs3Gh2wsxwUTX_10icarus_mcp7storage7profile15thread_profiler0B7_
FNDA:9,_RNvXs6_NtNtCse2FGHvVELmL_10icarus_mcp7storage7profileNtB5_11TimingGuardNtNtNtCsaNl6UpbT7bw_4core3ops4drop4Drop4drop
FNDA:1,_RNvNtNtNtCse2FGHvVELmL_10icarus_mcp7storage7profile5testss_20test_function_timing
FNDA:1,_RNvNtNtNtCse2FGHvVELmL_10icarus_mcp7storage7profile5testss_21test_statistics_reset
FNDA:1,_RNvNtNtNtCse2FGHvVELmL_10icarus_mcp7storage7profile5testss_22test_hot_path_tracking
FNDA:1,_RNvNtNtNtCse2FGHvVELmL_10icarus_mcp7storage7profile5testss_25test_allocation_recording
FNDA:1,_RNvNtNtNtCse2FGHvVELmL_10icarus_mcp7storage7profile5testss_27test_profile_function_macro
FNDA:1,_RNvNtNtNtCse2FGHvVELmL_10icarus_mcp7storage7profile5testss_33test_optimization_recommendations
FNDA:1,_RNvNtNtNtCse2FGHvVELmL_10icarus_mcp7storage7profile5testss_34test_performance_profiler_creation
FNDA:204,_RNvMs1_NtNtCse2FGHvVELmL_10icarus_mcp7storage7profileNtB5_15AllocationStats17record_allocation
FNDA:9,_RNvMs4_NtNtCse2FGHvVELmL_10icarus_mcp7storage7profileNtB5_19PerformanceProfiler11start_timer
FNDA:2,_RNvMs4_NtNtCse2FGHvVELmL_10icarus_mcp7storage7profileNtB5_19PerformanceProfiler13mark_hot_path
FNDA:7,_RNvMs4_NtNtCse2FGHvVELmL_10icarus_mcp7storage7profileNtB5_19PerformanceProfiler14get_statistics
FNDA:1,_RNvMs4_NtNtCse2FGHvVELmL_10icarus_mcp7storage7profileNtB5_19PerformanceProfiler16reset_statistics
FNDA:204,_RNvMs4_NtNtCse2FGHvVELmL_10icarus_mcp7storage7profileNtB5_19PerformanceProfiler17record_allocation
FNDA:1,_RNvMs4_NtNtCse2FGHvVELmL_10icarus_mcp7storage7profileNtB5_19PerformanceProfiler24generate_recommendations
FNDA:7,_RNvMs4_NtNtCse2FGHvVELmL_10icarus_mcp7storage7profileNtB5_19PerformanceProfiler3new
FNDA:9,_RNvMs5_NtNtCse2FGHvVELmL_10icarus_mcp7storage7profileNtB5_11TimingGuard3new
FNDA:9,_RNvMs_NtNtCse2FGHvVELmL_10icarus_mcp7storage7profileNtB4_13FunctionStats6update
FNDA:4,_RNvXNtNtCse2FGHvVELmL_10icarus_mcp7storage7profileNtB2_13FunctionStatsNtNtCsaNl6UpbT7bw_4core7default7Default7default
FNDA:3,_RNvXs0_NtNtCse2FGHvVELmL_10icarus_mcp7storage7profileNtB5_15AllocationStatsNtNtCsaNl6UpbT7bw_4core7default7Default7default
FNDA:1,_RNvXs2_NtNtCse2FGHvVELmL_10icarus_mcp7storage7profileNtB5_12HotPathStatsNtNtCsaNl6UpbT7bw_4core7default7Default7default
FNDA:0,_RNCNvNtNtCse2FGHvVELmL_10icarus_mcp7storage7profile15thread_profiler0B7_
FNDA:0,_RNvNtNtCse2FGHvVELmL_10icarus_mcp7storage7profile15thread_profiler
FNDA:0,_RNvXs3_NtNtCse2FGHvVELmL_10icarus_mcp7storage7profileNtB5_19PerformanceProfilerNtNtCsaNl6UpbT7bw_4core7default7Default7default
FNDA:1,_RNCNvNtNtNtCse2FGHvVELmL_10icarus_mcp7storage7profile5testss_33test_optimization_recommendations0B9_
FNDA:2,_RNCNvNtNtNtCse2FGHvVELmL_10icarus_mcp7storage7profile5testss_33test_optimization_recommendationss_0B9_
FNF:26
FNH:23
DA:34,4
DA:35,4
DA:36,4
DA:37,4
DA:38,4
DA:39,4
DA:40,4
DA:41,4
DA:42,4
DA:46,9
DA:47,9
DA:48,9
DA:49,9
DA:52,9
DA:53,9
DA:54,5
DA:55,5
DA:56,5
DA:57,5
DA:58,5
DA:59,5
DA:60,5
DA:61,0
DA:66,9
DA:67,9
DA:68,3
DA:69,3
DA:70,3
DA:71,3
DA:72,3
DA:73,3
DA:74,3
DA:75,0
DA:80,9
DA:81,9
DA:82,9
DA:95,3
DA:96,3
DA:97,3
DA:98,3
DA:99,3
DA:100,3
DA:101,3
DA:102,3
DA:106,204
DA:107,204
DA:108,204
DA:109,204
DA:110,204
DA:113,204
DA:114,204
DA:115,4
DA:116,4
DA:117,4
DA:118,4
DA:119,4
DA:120,4
DA:121,4
DA:122,0
DA:125,204
DA:138,1
DA:139,1
DA:140,1
DA:141,1
DA:142,1
DA:143,1
DA:144,1
DA:197,0
DA:198,0
DA:199,0
DA:204,7
DA:205,7
DA:206,7
DA:207,7
DA:208,7
DA:209,7
DA:210,7
DA:211,7
DA:214,9
DA:215,9
DA:216,9
DA:219,204
DA:220,204
DA:221,204
DA:222,204
DA:223,204
DA:224,204
DA:227,2
DA:228,2
DA:229,2
DA:230,2
DA:231,2
DA:232,2
DA:233,2
DA:234,2
DA:235,2
DA:238,1
DA:239,1
DA:242,1
DA:243,1
DA:244,1
DA:245,1
DA:248,1
DA:250,1
DA:252,1
DA:253,1
DA:254,1
DA:255,1
DA:256,0
DA:258,1
DA:260,1
DA:263,0
DA:265,1
DA:266,0
DA:267,0
DA:268,0
DA:269,0
DA:270,0
DA:271,0
DA:272,0
DA:273,0
DA:274,1
DA:275,0
DA:277,0
DA:280,1
DA:281,1
DA:282,1
DA:283,1
DA:285,1
DA:286,1
DA:287,1
DA:288,1
DA:289,1
DA:290,1
DA:291,1
DA:292,1
DA:293,1
DA:294,1
DA:295,1
DA:296,1
DA:297,1
DA:299,0
DA:302,1
DA:303,1
DA:304,1
DA:306,1
DA:307,1
DA:310,7
DA:311,7
DA:312,7
DA:313,7
DA:315,7
DA:316,7
DA:317,3
DA:318,3
DA:319,3
DA:320,3
DA:321,3
DA:322,3
DA:323,3
DA:324,3
DA:325,3
DA:326,3
DA:327,3
DA:328,0
DA:330,7
DA:331,7
DA:332,2
DA:333,2
DA:334,2
DA:335,2
DA:336,2
DA:337,2
DA:338,2
DA:339,2
DA:340,2
DA:341,2
DA:342,2
DA:343,2
DA:344,0
DA:346,7
DA:347,7
DA:348,1
DA:349,1
DA:350,1
DA:351,1
DA:352,1
DA:353,1
DA:354,1
DA:355,1
DA:356,0
DA:358,7
DA:359,7
DA:360,7
DA:361,7
DA:362,7
DA:363,7
DA:366,1
DA:367,1
DA:368,1
DA:369,1
DA:370,1
DA:371,1
DA:372,1
DA:373,1
DA:374,1
DA:375,1
DA:376,1
DA:377,1
DA:378,1
DA:379,1
DA:390,9
DA:391,9
DA:392,9
DA:393,9
DA:394,9
DA:395,9
DA:396,9
DA:397,9
DA:398,9
DA:399,9
DA:403,9
DA:404,9
DA:406,9
DA:407,9
DA:408,9
DA:409,9
DA:410,9
DA:476,0
DA:479,0
DA:481,0
DA:482,0
DA:483,0
DA:491,1
DA:492,1
DA:493,1
DA:495,1
DA:496,1
DA:497,1
DA:498,1
DA:501,1
DA:502,1
DA:504,1
DA:505,1
DA:506,1
DA:507,1
DA:509,1
DA:510,1
DA:512,1
DA:513,1
DA:514,1
DA:515,1
DA:518,1
DA:519,1
DA:521,1
DA:522,1
DA:524,1
DA:525,1
DA:527,1
DA:528,1
DA:529,1
DA:530,1
DA:531,1
DA:534,1
DA:535,1
DA:537,1
DA:538,1
DA:540,1
DA:541,1
DA:543,1
DA:544,1
DA:545,1
DA:546,1
DA:549,1
DA:550,1
DA:553,1
DA:554,1
DA:555,1
DA:556,1
DA:559,6
DA:560,5
DA:561,5
DA:563,1
DA:564,201
DA:565,200
DA:566,200
DA:567,200
DA:569,1
DA:570,1
DA:573,1
DA:574,1
DA:575,1
DA:576,1
DA:577,1
DA:578,2
DA:580,1
DA:581,1
DA:582,1
DA:585,1
DA:586,1
DA:588,1
DA:589,1
DA:590,1
DA:592,1
DA:594,1
DA:595,1
DA:596,1
DA:598,1
DA:600,1
DA:601,1
DA:602,1
DA:603,1
DA:606,1
DA:607,1
DA:609,1
DA:610,1
DA:611,1
DA:614,1
DA:616,1
DA:617,1
DA:618,1
BRF:0
BRH:0
LF:323
LH:296
end_of_record
SF:/Users/goshea/projects/icarus/icarus-sdk/crates/icarus-mcp/src/storage/simd.rs
FN:312,_RNCNvMNtNtCs3Gh2wsxwUTX_10icarus_mcp7storage4simdNtB4_13SimdProcessor14find_byte_simd0B8_
FN:195,_RNCNvMNtNtCs3Gh2wsxwUTX_10icarus_mcp7storage4simdNtB4_13SimdProcessor15scalar_checksum0B8_
FN:506,_RNvNtNtNtCse2FGHvVELmL_10icarus_mcp7storage4simd5testss_14test_fast_copy
FN:534,_RNvNtNtNtCse2FGHvVELmL_10icarus_mcp7storage4simd5testss_14test_fast_find
FN:524,_RNvNtNtNtCse2FGHvVELmL_10icarus_mcp7storage4simd5testss_17test_fast_compare
FN:569,_RNvNtNtNtCse2FGHvVELmL_10icarus_mcp7storage4simd5testss_17test_simd_methods
FN:515,_RNvNtNtNtCse2FGHvVELmL_10icarus_mcp7storage4simd5testss_18test_fast_checksum
FN:546,_RNvNtNtNtCse2FGHvVELmL_10icarus_mcp7storage4simd5testss_20test_json_validation
FN:555,_RNvNtNtNtCse2FGHvVELmL_10icarus_mcp7storage4simd5testss_26test_large_data_processing
FN:203,_RNvMNtNtCse2FGHvVELmL_10icarus_mcp7storage4simdNtB2_13SimdProcessor12fast_compare
FN:106,_RNvMNtNtCse2FGHvVELmL_10icarus_mcp7storage4simdNtB2_13SimdProcessor13fast_checksum
FN:311,_RNvMNtNtCse2FGHvVELmL_10icarus_mcp7storage4simdNtB2_13SimdProcessor14find_byte_simd
FN:194,_RNvMNtNtCse2FGHvVELmL_10icarus_mcp7storage4simdNtB2_13SimdProcessor15scalar_checksum
FN:365,_RNvMNtNtCse2FGHvVELmL_10icarus_mcp7storage4simdNtB2_13SimdProcessor17find_pattern_simd
FN:390,_RNvMNtNtCse2FGHvVELmL_10icarus_mcp7storage4simdNtB2_13SimdProcessor23validate_json_structure
FN:20,_RNvMNtNtCse2FGHvVELmL_10icarus_mcp7storage4simdNtB2_13SimdProcessor9fast_copy
FN:282,_RNvMNtNtCse2FGHvVELmL_10icarus_mcp7storage4simdNtB2_13SimdProcessor9fast_find
FN:518,_RNCNvNtNtNtCse2FGHvVELmL_10icarus_mcp7storage4simd5testss_18test_fast_checksum0B9_
FN:312,_RNCNvMNtNtCse2FGHvVELmL_10icarus_mcp7storage4simdNtB4_13SimdProcessor14find_byte_simd0B8_
FN:195,_RNCNvMNtNtCse2FGHvVELmL_10icarus_mcp7storage4simdNtB4_13SimdProcessor15scalar_checksum0B8_
FNDA:0,_RNCNvMNtNtCs3Gh2wsxwUTX_10icarus_mcp7storage4simdNtB4_13SimdProcessor14find_byte_simd0B8_
FNDA:0,_RNCNvMNtNtCs3Gh2wsxwUTX_10icarus_mcp7storage4simdNtB4_13SimdProcessor15scalar_checksum0B8_
FNDA:1,_RNvNtNtNtCse2FGHvVELmL_10icarus_mcp7storage4simd5testss_14test_fast_copy
FNDA:1,_RNvNtNtNtCse2FGHvVELmL_10icarus_mcp7storage4simd5testss_14test_fast_find
FNDA:1,_RNvNtNtNtCse2FGHvVELmL_10icarus_mcp7storage4simd5testss_17test_fast_compare
FNDA:1,_RNvNtNtNtCse2FGHvVELmL_10icarus_mcp7storage4simd5testss_17test_simd_methods
FNDA:1,_RNvNtNtNtCse2FGHvVELmL_10icarus_mcp7storage4simd5testss_18test_fast_checksum
FNDA:1,_RNvNtNtNtCse2FGHvVELmL_10icarus_mcp7storage4simd5testss_20test_json_validation
FNDA:1,_RNvNtNtNtCse2FGHvVELmL_10icarus_mcp7storage4simd5testss_26test_large_data_processing
FNDA:2,_RNvMNtNtCse2FGHvVELmL_10icarus_mcp7storage4simdNtB2_13SimdProcessor12fast_compare
FNDA:3,_RNvMNtNtCse2FGHvVELmL_10icarus_mcp7storage4simdNtB2_13SimdProcessor13fast_checksum
FNDA:3,_RNvMNtNtCse2FGHvVELmL_10icarus_mcp7storage4simdNtB2_13SimdProcessor14find_byte_simd
FNDA:3,_RNvMNtNtCse2FGHvVELmL_10icarus_mcp7storage4simdNtB2_13SimdProcessor15scalar_checksum
FNDA:3,_RNvMNtNtCse2FGHvVELmL_10icarus_mcp7storage4simdNtB2_13SimdProcessor17find_pattern_simd
FNDA:2,_RNvMNtNtCse2FGHvVELmL_10icarus_mcp7storage4simdNtB2_13SimdProcessor23validate_json_structure
FNDA:3,_RNvMNtNtCse2FGHvVELmL_10icarus_mcp7storage4simdNtB2_13SimdProcessor9fast_copy
FNDA:3,_RNvMNtNtCse2FGHvVELmL_10icarus_mcp7storage4simdNtB2_13SimdProcessor9fast_find
FNDA:34,_RNCNvNtNtNtCse2FGHvVELmL_10icarus_mcp7storage4simd5testss_18test_fast_checksum0B9_
FNDA:2086,_RNCNvMNtNtCse2FGHvVELmL_10icarus_mcp7storage4simdNtB4_13SimdProcessor14find_byte_simd0B8_
FNDA:12082,_RNCNvMNtNtCse2FGHvVELmL_10icarus_mcp7storage4simdNtB4_13SimdProcessor15scalar_checksum0B8_
FNF:18
FNH:18
DA:20,3
DA:21,3
DA:22,0
DA:23,0
DA:24,0
DA:25,3
DA:27,3
DA:29,0
DA:30,0
DA:31,3
DA:45,3
DA:46,3
DA:47,3
DA:48,3
DA:50,3
DA:51,3
DA:106,3
DA:107,3
DA:108,1
DA:109,2
DA:124,2
DA:126,3
DA:194,3
DA:195,12082
DA:196,3
DA:203,2
DA:204,2
DA:205,0
DA:206,2
DA:208,2
DA:209,2
DA:210,0
DA:225,0
DA:227,2
DA:282,3
DA:283,3
DA:284,0
DA:285,3
DA:287,3
DA:288,0
DA:289,3
DA:292,3
DA:293,3
DA:311,3
DA:312,2086
DA:313,3
DA:365,3
DA:367,3
DA:368,3
DA:370,3
DA:371,3
DA:372,2
DA:373,2
DA:374,2
DA:375,0
DA:376,0
DA:378,1
DA:382,1
DA:383,3
DA:390,2
DA:391,2
DA:392,0
DA:393,2
DA:395,2
DA:396,2
DA:397,2
DA:398,2
DA:401,61
DA:402,59
DA:403,0
DA:404,0
DA:405,59
DA:407,0
DA:408,12
DA:409,0
DA:410,2
DA:411,1
DA:412,1
DA:413,1
DA:414,0
DA:415,1
DA:417,0
DA:418,0
DA:419,0
DA:420,0
DA:421,0
DA:422,0
DA:424,44
DA:428,2
DA:429,2
DA:506,1
DA:507,1
DA:508,1
DA:510,1
DA:511,1
DA:512,1
DA:515,1
DA:516,1
DA:517,1
DA:518,34
DA:520,1
DA:521,1
DA:524,1
DA:525,1
DA:526,1
DA:527,1
DA:529,1
DA:530,1
DA:531,1
DA:534,1
DA:535,1
DA:536,1
DA:538,1
DA:539,1
DA:541,1
DA:542,1
DA:543,1
DA:546,1
DA:547,1
DA:548,1
DA:550,1
DA:551,1
DA:552,1
DA:555,1
DA:557,1
DA:558,1
DA:560,1
DA:561,1
DA:563,1
DA:564,1
DA:565,1
DA:569,1
DA:570,1
DA:573,1
DA:574,1
DA:575,1
DA:578,1
DA:579,1
DA:582,1
DA:583,1
DA:584,1
DA:585,1
DA:586,1
BRF:0
BRH:0
LF:146
LH:122
end_of_record
SF:/Users/goshea/projects/icarus/icarus-sdk/crates/icarus-mcp/src/storage/streaming.rs
FN:476,_RNvNtNtNtCse2FGHvVELmL_10icarus_mcp7storage9streaming5testss_17test_json_parsing
FN:463,_RNvNtNtNtCse2FGHvVELmL_10icarus_mcp7storage9streaming5testss_18test_chunk_reading
FN:533,_RNvNtNtNtCse2FGHvVELmL_10icarus_mcp7storage9streaming5testss_19test_collect_stream
FN:518,_RNvNtNtNtCse2FGHvVELmL_10icarus_mcp7storage9streaming5testss_20test_response_stream
FN:449,_RNvNtNtNtCse2FGHvVELmL_10icarus_mcp7storage9streaming5testss_22test_progress_tracking
FN:545,_RNvNtNtNtCse2FGHvVELmL_10icarus_mcp7storage9streaming5testss_27test_backward_compatibility
FN:491,_RNvNtNtNtCse2FGHvVELmL_10icarus_mcp7storage9streaming5testss_31test_const_generic_buffer_sizes
FN:429,_RNvNtNtNtCse2FGHvVELmL_10icarus_mcp7storage9streaming5testss_32test_streaming_response_creation
FN:441,_RNvNtNtNtCse2FGHvVELmL_10icarus_mcp7storage9streaming5testss_33test_streaming_response_with_size
FN:389,_RINvNtNtCse2FGHvVELmL_10icarus_mcp7storage9streaming14collect_streamNtB2_14ResponseStreamEB6_
FN:392,_RNCINvNtNtCse2FGHvVELmL_10icarus_mcp7storage9streaming14collect_streamNtB4_14ResponseStreamE0B8_
FN:191,_RNCNvMs5_NtNtCse2FGHvVELmL_10icarus_mcp7storage9streamingNtB7_17StreamingResponse8progress0Bb_
FN:156,_RNvMs3_NtNtCse2FGHvVELmL_10icarus_mcp7storage9streamingINtB5_17StreamingResponseINtB5_10CustomSizeKj400_EE11buffer_sizeB9_
FN:156,_RNvMs3_NtNtCse2FGHvVELmL_10icarus_mcp7storage9streamingINtB5_17StreamingResponseINtB5_10CustomSizeKj7d000_EE11buffer_sizeB9_
FN:94,_RNvMs3_NtNtCse2FGHvVELmL_10icarus_mcp7storage9streamingINtB5_17StreamingResponseINtB5_10CustomSizeKj800_EE3newB9_
FN:156,_RNvMs3_NtNtCse2FGHvVELmL_10icarus_mcp7storage9streamingINtB5_17StreamingResponseNtB5_5LargeE11buffer_sizeB9_
FN:94,_RNvMs3_NtNtCse2FGHvVELmL_10icarus_mcp7storage9streamingINtB5_17StreamingResponseNtB5_5LargeE3newB9_
FN:156,_RNvMs3_NtNtCse2FGHvVELmL_10icarus_mcp7storage9streamingINtB5_17StreamingResponseNtB5_5SmallE11buffer_sizeB9_
FN:94,_RNvMs3_NtNtCse2FGHvVELmL_10icarus_mcp7storage9streamingINtB5_17StreamingResponseNtB5_5SmallE3newB9_
FN:156,_RNvMs3_NtNtCse2FGHvVELmL_10icarus_mcp7storage9streamingNtB5_17StreamingResponse11buffer_sizeB9_
FN:94,_RNvMs3_NtNtCse2FGHvVELmL_10icarus_mcp7storage9streamingNtB5_17StreamingResponse3newB9_
FN:117,_RNvMs3_NtNtCse2FGHvVELmL_10icarus_mcp7storage9streamingNtB5_17StreamingResponse9with_sizeB9_
FN:202,_RNvMs5_NtNtCse2FGHvVELmL_10icarus_mcp7storage9streamingINtB5_17StreamingResponseINtB5_10CustomSizeKj800_EE10bytes_readB9_
FN:202,_RNvMs5_NtNtCse2FGHvVELmL_10icarus_mcp7storage9streamingINtB5_17StreamingResponseNtB5_5LargeE10bytes_readB9_
FN:202,_RNvMs5_NtNtCse2FGHvVELmL_10icarus_mcp7storage9streamingINtB5_17StreamingResponseNtB5_5SmallE10bytes_readB9_
FN:239,_RNvMs5_NtNtCse2FGHvVELmL_10icarus_mcp7storage9streamingINtB5_17StreamingResponseNtB5_5SmallE10next_chunkB9_
FN:208,_RNvMs5_NtNtCse2FGHvVELmL_10icarus_mcp7storage9streamingINtB5_17StreamingResponseNtB5_5SmallE11is_finishedB9_
FN:213,_RNvMs5_NtNtCse2FGHvVELmL_10icarus_mcp7storage9streamingINtB5_17StreamingResponseNtB5_5SmallE17extend_from_sliceB9_
FN:250,_RNvMs5_NtNtCse2FGHvVELmL_10icarus_mcp7storage9streamingINtB5_17StreamingResponseNtB5_5SmallE6finishB9_
FN:202,_RNvMs5_NtNtCse2FGHvVELmL_10icarus_mcp7storage9streamingNtB5_17StreamingResponse10bytes_readB9_
FN:239,_RNvMs5_NtNtCse2FGHvVELmL_10icarus_mcp7storage9streamingNtB5_17StreamingResponse10next_chunkB9_
FN:208,_RNvMs5_NtNtCse2FGHvVELmL_10icarus_mcp7storage9streamingNtB5_17StreamingResponse11is_finishedB9_
FN:309,_RNvMs5_NtNtCse2FGHvVELmL_10icarus_mcp7storage9streamingNtB5_17StreamingResponse12find_patternB9_
FN:257,_RNvMs5_NtNtCse2FGHvVELmL_10icarus_mcp7storage9streamingNtB5_17StreamingResponse14try_parse_jsonB9_
FN:213,_RNvMs5_NtNtCse2FGHvVELmL_10icarus_mcp7storage9streamingNtB5_17StreamingResponse17extend_from_sliceB9_
FN:220,_RNvMs5_NtNtCse2FGHvVELmL_10icarus_mcp7storage9streamingNtB5_17StreamingResponse22extend_from_slice_simdB9_
FN:250,_RNvMs5_NtNtCse2FGHvVELmL_10icarus_mcp7storage9streamingNtB5_17StreamingResponse6finishB9_
FN:303,_RNvMs5_NtNtCse2FGHvVELmL_10icarus_mcp7storage9streamingNtB5_17StreamingResponse8checksumB9_
FN:190,_RNvMs5_NtNtCse2FGHvVELmL_10icarus_mcp7storage9streamingNtB5_17StreamingResponse8progressB9_
FN:362,_RNvMs7_NtNtCse2FGHvVELmL_10icarus_mcp7storage9streamingINtB5_14ResponseStreamNtB5_5SmallE3newB9_
FN:362,_RNvMs7_NtNtCse2FGHvVELmL_10icarus_mcp7storage9streamingNtB5_14ResponseStream3newB9_
FN:375,_RNvXs8_NtNtCse2FGHvVELmL_10icarus_mcp7storage9streamingINtB5_14ResponseStreamNtB5_5SmallENtNtCs7kLSOIVBXMu_12futures_core6stream6Stream9poll_nextB9_
FN:375,_RNvXs8_NtNtCse2FGHvVELmL_10icarus_mcp7storage9streamingNtB5_14ResponseStreamNtNtCs7kLSOIVBXMu_12futures_core6stream6Stream9poll_nextB9_
FN:533,_RNCNvNtNtNtCse2FGHvVELmL_10icarus_mcp7storage9streaming5testss_19test_collect_stream0B9_
FN:518,_RNCNvNtNtNtCse2FGHvVELmL_10icarus_mcp7storage9streaming5testss_20test_response_stream0B9_
FN:404,_RINvNtNtCse2FGHvVELmL_10icarus_mcp7storage9streaming15write_stream_toppEB6_
FN:408,_RNCINvNtNtCse2FGHvVELmL_10icarus_mcp7storage9streaming15write_stream_toppE0B8_
FN:106,_RNvMs3_NtNtCse2FGHvVELmL_10icarus_mcp7storage9streamingINtB5_17StreamingResponsepE10new_pooledB9_
FN:144,_RNvMs3_NtNtCse2FGHvVELmL_10icarus_mcp7storage9streamingINtB5_17StreamingResponsepE13with_capacityB9_
